
STM32_FLIGHT_CONTROLLER.elf:     file format elf32-littlearm

Sections:
Idx Name          Size      VMA       LMA       File off  Algn
  0 .isr_vector   00000198  08000000  08000000  00010000  2**0
                  CONTENTS, ALLOC, LOAD, READONLY, DATA
  1 .text         0000ba4c  080001a0  080001a0  000101a0  2**4
                  CONTENTS, ALLOC, LOAD, READONLY, CODE
  2 .rodata       00000a60  0800bbf0  0800bbf0  0001bbf0  2**3
                  CONTENTS, ALLOC, LOAD, READONLY, DATA
  3 .ARM.extab    00000000  0800c650  0800c650  00020268  2**0
                  CONTENTS
  4 .ARM          00000008  0800c650  0800c650  0001c650  2**2
                  CONTENTS, ALLOC, LOAD, READONLY, DATA
  5 .preinit_array 00000000  0800c658  0800c658  00020268  2**0
                  CONTENTS, ALLOC, LOAD, DATA
  6 .init_array   00000004  0800c658  0800c658  0001c658  2**2
                  CONTENTS, ALLOC, LOAD, DATA
  7 .fini_array   00000004  0800c65c  0800c65c  0001c65c  2**2
                  CONTENTS, ALLOC, LOAD, DATA
  8 .data         00000268  20000000  0800c660  00020000  2**3
                  CONTENTS, ALLOC, LOAD, DATA
  9 .bss          000004f8  20000268  0800c8c8  00020268  2**3
                  ALLOC
 10 ._user_heap_stack 00000600  20000760  0800c8c8  00020760  2**0
                  ALLOC
 11 .ARM.attributes 00000030  00000000  00000000  00020268  2**0
                  CONTENTS, READONLY
 12 .debug_info   0001e82a  00000000  00000000  00020298  2**0
                  CONTENTS, READONLY, DEBUGGING
 13 .debug_abbrev 000034ac  00000000  00000000  0003eac2  2**0
                  CONTENTS, READONLY, DEBUGGING
 14 .debug_loc    000107af  00000000  00000000  00041f6e  2**0
                  CONTENTS, READONLY, DEBUGGING
 15 .debug_aranges 00001598  00000000  00000000  00052720  2**3
                  CONTENTS, READONLY, DEBUGGING
 16 .debug_ranges 000014b8  00000000  00000000  00053cb8  2**3
                  CONTENTS, READONLY, DEBUGGING
 17 .debug_macro  0001a18b  00000000  00000000  00055170  2**0
                  CONTENTS, READONLY, DEBUGGING
 18 .debug_line   00010b36  00000000  00000000  0006f2fb  2**0
                  CONTENTS, READONLY, DEBUGGING
 19 .debug_str    00099350  00000000  00000000  0007fe31  2**0
                  CONTENTS, READONLY, DEBUGGING
 20 .comment      0000007b  00000000  00000000  00119181  2**0
                  CONTENTS, READONLY
 21 .debug_frame  00004e3c  00000000  00000000  001191fc  2**2
                  CONTENTS, READONLY, DEBUGGING

Disassembly of section .text:

080001a0 <__do_global_dtors_aux>:
 80001a0:	b510      	push	{r4, lr}
 80001a2:	4c05      	ldr	r4, [pc, #20]	; (80001b8 <__do_global_dtors_aux+0x18>)
 80001a4:	7823      	ldrb	r3, [r4, #0]
 80001a6:	b933      	cbnz	r3, 80001b6 <__do_global_dtors_aux+0x16>
 80001a8:	4b04      	ldr	r3, [pc, #16]	; (80001bc <__do_global_dtors_aux+0x1c>)
 80001aa:	b113      	cbz	r3, 80001b2 <__do_global_dtors_aux+0x12>
 80001ac:	4804      	ldr	r0, [pc, #16]	; (80001c0 <__do_global_dtors_aux+0x20>)
 80001ae:	f3af 8000 	nop.w
 80001b2:	2301      	movs	r3, #1
 80001b4:	7023      	strb	r3, [r4, #0]
 80001b6:	bd10      	pop	{r4, pc}
 80001b8:	20000268 	.word	0x20000268
 80001bc:	00000000 	.word	0x00000000
 80001c0:	0800bbd4 	.word	0x0800bbd4

080001c4 <frame_dummy>:
 80001c4:	b508      	push	{r3, lr}
 80001c6:	4b03      	ldr	r3, [pc, #12]	; (80001d4 <frame_dummy+0x10>)
 80001c8:	b11b      	cbz	r3, 80001d2 <frame_dummy+0xe>
 80001ca:	4903      	ldr	r1, [pc, #12]	; (80001d8 <frame_dummy+0x14>)
 80001cc:	4803      	ldr	r0, [pc, #12]	; (80001dc <frame_dummy+0x18>)
 80001ce:	f3af 8000 	nop.w
 80001d2:	bd08      	pop	{r3, pc}
 80001d4:	00000000 	.word	0x00000000
 80001d8:	2000026c 	.word	0x2000026c
 80001dc:	0800bbd4 	.word	0x0800bbd4

080001e0 <__aeabi_drsub>:
 80001e0:	f081 4100 	eor.w	r1, r1, #2147483648	; 0x80000000
 80001e4:	e002      	b.n	80001ec <__adddf3>
 80001e6:	bf00      	nop

080001e8 <__aeabi_dsub>:
 80001e8:	f083 4300 	eor.w	r3, r3, #2147483648	; 0x80000000

080001ec <__adddf3>:
 80001ec:	b530      	push	{r4, r5, lr}
 80001ee:	ea4f 0441 	mov.w	r4, r1, lsl #1
 80001f2:	ea4f 0543 	mov.w	r5, r3, lsl #1
 80001f6:	ea94 0f05 	teq	r4, r5
 80001fa:	bf08      	it	eq
 80001fc:	ea90 0f02 	teqeq	r0, r2
 8000200:	bf1f      	itttt	ne
 8000202:	ea54 0c00 	orrsne.w	ip, r4, r0
 8000206:	ea55 0c02 	orrsne.w	ip, r5, r2
 800020a:	ea7f 5c64 	mvnsne.w	ip, r4, asr #21
 800020e:	ea7f 5c65 	mvnsne.w	ip, r5, asr #21
 8000212:	f000 80e2 	beq.w	80003da <__adddf3+0x1ee>
 8000216:	ea4f 5454 	mov.w	r4, r4, lsr #21
 800021a:	ebd4 5555 	rsbs	r5, r4, r5, lsr #21
 800021e:	bfb8      	it	lt
 8000220:	426d      	neglt	r5, r5
 8000222:	dd0c      	ble.n	800023e <__adddf3+0x52>
 8000224:	442c      	add	r4, r5
 8000226:	ea80 0202 	eor.w	r2, r0, r2
 800022a:	ea81 0303 	eor.w	r3, r1, r3
 800022e:	ea82 0000 	eor.w	r0, r2, r0
 8000232:	ea83 0101 	eor.w	r1, r3, r1
 8000236:	ea80 0202 	eor.w	r2, r0, r2
 800023a:	ea81 0303 	eor.w	r3, r1, r3
 800023e:	2d36      	cmp	r5, #54	; 0x36
 8000240:	bf88      	it	hi
 8000242:	bd30      	pophi	{r4, r5, pc}
 8000244:	f011 4f00 	tst.w	r1, #2147483648	; 0x80000000
 8000248:	ea4f 3101 	mov.w	r1, r1, lsl #12
 800024c:	f44f 1c80 	mov.w	ip, #1048576	; 0x100000
 8000250:	ea4c 3111 	orr.w	r1, ip, r1, lsr #12
 8000254:	d002      	beq.n	800025c <__adddf3+0x70>
 8000256:	4240      	negs	r0, r0
 8000258:	eb61 0141 	sbc.w	r1, r1, r1, lsl #1
 800025c:	f013 4f00 	tst.w	r3, #2147483648	; 0x80000000
 8000260:	ea4f 3303 	mov.w	r3, r3, lsl #12
 8000264:	ea4c 3313 	orr.w	r3, ip, r3, lsr #12
 8000268:	d002      	beq.n	8000270 <__adddf3+0x84>
 800026a:	4252      	negs	r2, r2
 800026c:	eb63 0343 	sbc.w	r3, r3, r3, lsl #1
 8000270:	ea94 0f05 	teq	r4, r5
 8000274:	f000 80a7 	beq.w	80003c6 <__adddf3+0x1da>
 8000278:	f1a4 0401 	sub.w	r4, r4, #1
 800027c:	f1d5 0e20 	rsbs	lr, r5, #32
 8000280:	db0d      	blt.n	800029e <__adddf3+0xb2>
 8000282:	fa02 fc0e 	lsl.w	ip, r2, lr
 8000286:	fa22 f205 	lsr.w	r2, r2, r5
 800028a:	1880      	adds	r0, r0, r2
 800028c:	f141 0100 	adc.w	r1, r1, #0
 8000290:	fa03 f20e 	lsl.w	r2, r3, lr
 8000294:	1880      	adds	r0, r0, r2
 8000296:	fa43 f305 	asr.w	r3, r3, r5
 800029a:	4159      	adcs	r1, r3
 800029c:	e00e      	b.n	80002bc <__adddf3+0xd0>
 800029e:	f1a5 0520 	sub.w	r5, r5, #32
 80002a2:	f10e 0e20 	add.w	lr, lr, #32
 80002a6:	2a01      	cmp	r2, #1
 80002a8:	fa03 fc0e 	lsl.w	ip, r3, lr
 80002ac:	bf28      	it	cs
 80002ae:	f04c 0c02 	orrcs.w	ip, ip, #2
 80002b2:	fa43 f305 	asr.w	r3, r3, r5
 80002b6:	18c0      	adds	r0, r0, r3
 80002b8:	eb51 71e3 	adcs.w	r1, r1, r3, asr #31
 80002bc:	f001 4500 	and.w	r5, r1, #2147483648	; 0x80000000
 80002c0:	d507      	bpl.n	80002d2 <__adddf3+0xe6>
 80002c2:	f04f 0e00 	mov.w	lr, #0
 80002c6:	f1dc 0c00 	rsbs	ip, ip, #0
 80002ca:	eb7e 0000 	sbcs.w	r0, lr, r0
 80002ce:	eb6e 0101 	sbc.w	r1, lr, r1
 80002d2:	f5b1 1f80 	cmp.w	r1, #1048576	; 0x100000
 80002d6:	d31b      	bcc.n	8000310 <__adddf3+0x124>
 80002d8:	f5b1 1f00 	cmp.w	r1, #2097152	; 0x200000
 80002dc:	d30c      	bcc.n	80002f8 <__adddf3+0x10c>
 80002de:	0849      	lsrs	r1, r1, #1
 80002e0:	ea5f 0030 	movs.w	r0, r0, rrx
 80002e4:	ea4f 0c3c 	mov.w	ip, ip, rrx
 80002e8:	f104 0401 	add.w	r4, r4, #1
 80002ec:	ea4f 5244 	mov.w	r2, r4, lsl #21
 80002f0:	f512 0f80 	cmn.w	r2, #4194304	; 0x400000
 80002f4:	f080 809a 	bcs.w	800042c <__adddf3+0x240>
 80002f8:	f1bc 4f00 	cmp.w	ip, #2147483648	; 0x80000000
 80002fc:	bf08      	it	eq
 80002fe:	ea5f 0c50 	movseq.w	ip, r0, lsr #1
 8000302:	f150 0000 	adcs.w	r0, r0, #0
 8000306:	eb41 5104 	adc.w	r1, r1, r4, lsl #20
 800030a:	ea41 0105 	orr.w	r1, r1, r5
 800030e:	bd30      	pop	{r4, r5, pc}
 8000310:	ea5f 0c4c 	movs.w	ip, ip, lsl #1
 8000314:	4140      	adcs	r0, r0
 8000316:	eb41 0101 	adc.w	r1, r1, r1
 800031a:	f411 1f80 	tst.w	r1, #1048576	; 0x100000
 800031e:	f1a4 0401 	sub.w	r4, r4, #1
 8000322:	d1e9      	bne.n	80002f8 <__adddf3+0x10c>
 8000324:	f091 0f00 	teq	r1, #0
 8000328:	bf04      	itt	eq
 800032a:	4601      	moveq	r1, r0
 800032c:	2000      	moveq	r0, #0
 800032e:	fab1 f381 	clz	r3, r1
 8000332:	bf08      	it	eq
 8000334:	3320      	addeq	r3, #32
 8000336:	f1a3 030b 	sub.w	r3, r3, #11
 800033a:	f1b3 0220 	subs.w	r2, r3, #32
 800033e:	da0c      	bge.n	800035a <__adddf3+0x16e>
 8000340:	320c      	adds	r2, #12
 8000342:	dd08      	ble.n	8000356 <__adddf3+0x16a>
 8000344:	f102 0c14 	add.w	ip, r2, #20
 8000348:	f1c2 020c 	rsb	r2, r2, #12
 800034c:	fa01 f00c 	lsl.w	r0, r1, ip
 8000350:	fa21 f102 	lsr.w	r1, r1, r2
 8000354:	e00c      	b.n	8000370 <__adddf3+0x184>
 8000356:	f102 0214 	add.w	r2, r2, #20
 800035a:	bfd8      	it	le
 800035c:	f1c2 0c20 	rsble	ip, r2, #32
 8000360:	fa01 f102 	lsl.w	r1, r1, r2
 8000364:	fa20 fc0c 	lsr.w	ip, r0, ip
 8000368:	bfdc      	itt	le
 800036a:	ea41 010c 	orrle.w	r1, r1, ip
 800036e:	4090      	lslle	r0, r2
 8000370:	1ae4      	subs	r4, r4, r3
 8000372:	bfa2      	ittt	ge
 8000374:	eb01 5104 	addge.w	r1, r1, r4, lsl #20
 8000378:	4329      	orrge	r1, r5
 800037a:	bd30      	popge	{r4, r5, pc}
 800037c:	ea6f 0404 	mvn.w	r4, r4
 8000380:	3c1f      	subs	r4, #31
 8000382:	da1c      	bge.n	80003be <__adddf3+0x1d2>
 8000384:	340c      	adds	r4, #12
 8000386:	dc0e      	bgt.n	80003a6 <__adddf3+0x1ba>
 8000388:	f104 0414 	add.w	r4, r4, #20
 800038c:	f1c4 0220 	rsb	r2, r4, #32
 8000390:	fa20 f004 	lsr.w	r0, r0, r4
 8000394:	fa01 f302 	lsl.w	r3, r1, r2
 8000398:	ea40 0003 	orr.w	r0, r0, r3
 800039c:	fa21 f304 	lsr.w	r3, r1, r4
 80003a0:	ea45 0103 	orr.w	r1, r5, r3
 80003a4:	bd30      	pop	{r4, r5, pc}
 80003a6:	f1c4 040c 	rsb	r4, r4, #12
 80003aa:	f1c4 0220 	rsb	r2, r4, #32
 80003ae:	fa20 f002 	lsr.w	r0, r0, r2
 80003b2:	fa01 f304 	lsl.w	r3, r1, r4
 80003b6:	ea40 0003 	orr.w	r0, r0, r3
 80003ba:	4629      	mov	r1, r5
 80003bc:	bd30      	pop	{r4, r5, pc}
 80003be:	fa21 f004 	lsr.w	r0, r1, r4
 80003c2:	4629      	mov	r1, r5
 80003c4:	bd30      	pop	{r4, r5, pc}
 80003c6:	f094 0f00 	teq	r4, #0
 80003ca:	f483 1380 	eor.w	r3, r3, #1048576	; 0x100000
 80003ce:	bf06      	itte	eq
 80003d0:	f481 1180 	eoreq.w	r1, r1, #1048576	; 0x100000
 80003d4:	3401      	addeq	r4, #1
 80003d6:	3d01      	subne	r5, #1
 80003d8:	e74e      	b.n	8000278 <__adddf3+0x8c>
 80003da:	ea7f 5c64 	mvns.w	ip, r4, asr #21
 80003de:	bf18      	it	ne
 80003e0:	ea7f 5c65 	mvnsne.w	ip, r5, asr #21
 80003e4:	d029      	beq.n	800043a <__adddf3+0x24e>
 80003e6:	ea94 0f05 	teq	r4, r5
 80003ea:	bf08      	it	eq
 80003ec:	ea90 0f02 	teqeq	r0, r2
 80003f0:	d005      	beq.n	80003fe <__adddf3+0x212>
 80003f2:	ea54 0c00 	orrs.w	ip, r4, r0
 80003f6:	bf04      	itt	eq
 80003f8:	4619      	moveq	r1, r3
 80003fa:	4610      	moveq	r0, r2
 80003fc:	bd30      	pop	{r4, r5, pc}
 80003fe:	ea91 0f03 	teq	r1, r3
 8000402:	bf1e      	ittt	ne
 8000404:	2100      	movne	r1, #0
 8000406:	2000      	movne	r0, #0
 8000408:	bd30      	popne	{r4, r5, pc}
 800040a:	ea5f 5c54 	movs.w	ip, r4, lsr #21
 800040e:	d105      	bne.n	800041c <__adddf3+0x230>
 8000410:	0040      	lsls	r0, r0, #1
 8000412:	4149      	adcs	r1, r1
 8000414:	bf28      	it	cs
 8000416:	f041 4100 	orrcs.w	r1, r1, #2147483648	; 0x80000000
 800041a:	bd30      	pop	{r4, r5, pc}
 800041c:	f514 0480 	adds.w	r4, r4, #4194304	; 0x400000
 8000420:	bf3c      	itt	cc
 8000422:	f501 1180 	addcc.w	r1, r1, #1048576	; 0x100000
 8000426:	bd30      	popcc	{r4, r5, pc}
 8000428:	f001 4500 	and.w	r5, r1, #2147483648	; 0x80000000
 800042c:	f045 41fe 	orr.w	r1, r5, #2130706432	; 0x7f000000
 8000430:	f441 0170 	orr.w	r1, r1, #15728640	; 0xf00000
 8000434:	f04f 0000 	mov.w	r0, #0
 8000438:	bd30      	pop	{r4, r5, pc}
 800043a:	ea7f 5c64 	mvns.w	ip, r4, asr #21
 800043e:	bf1a      	itte	ne
 8000440:	4619      	movne	r1, r3
 8000442:	4610      	movne	r0, r2
 8000444:	ea7f 5c65 	mvnseq.w	ip, r5, asr #21
 8000448:	bf1c      	itt	ne
 800044a:	460b      	movne	r3, r1
 800044c:	4602      	movne	r2, r0
 800044e:	ea50 3401 	orrs.w	r4, r0, r1, lsl #12
 8000452:	bf06      	itte	eq
 8000454:	ea52 3503 	orrseq.w	r5, r2, r3, lsl #12
 8000458:	ea91 0f03 	teqeq	r1, r3
 800045c:	f441 2100 	orrne.w	r1, r1, #524288	; 0x80000
 8000460:	bd30      	pop	{r4, r5, pc}
 8000462:	bf00      	nop

08000464 <__aeabi_ui2d>:
 8000464:	f090 0f00 	teq	r0, #0
 8000468:	bf04      	itt	eq
 800046a:	2100      	moveq	r1, #0
 800046c:	4770      	bxeq	lr
 800046e:	b530      	push	{r4, r5, lr}
 8000470:	f44f 6480 	mov.w	r4, #1024	; 0x400
 8000474:	f104 0432 	add.w	r4, r4, #50	; 0x32
 8000478:	f04f 0500 	mov.w	r5, #0
 800047c:	f04f 0100 	mov.w	r1, #0
 8000480:	e750      	b.n	8000324 <__adddf3+0x138>
 8000482:	bf00      	nop

08000484 <__aeabi_i2d>:
 8000484:	f090 0f00 	teq	r0, #0
 8000488:	bf04      	itt	eq
 800048a:	2100      	moveq	r1, #0
 800048c:	4770      	bxeq	lr
 800048e:	b530      	push	{r4, r5, lr}
 8000490:	f44f 6480 	mov.w	r4, #1024	; 0x400
 8000494:	f104 0432 	add.w	r4, r4, #50	; 0x32
 8000498:	f010 4500 	ands.w	r5, r0, #2147483648	; 0x80000000
 800049c:	bf48      	it	mi
 800049e:	4240      	negmi	r0, r0
 80004a0:	f04f 0100 	mov.w	r1, #0
 80004a4:	e73e      	b.n	8000324 <__adddf3+0x138>
 80004a6:	bf00      	nop

080004a8 <__aeabi_f2d>:
 80004a8:	0042      	lsls	r2, r0, #1
 80004aa:	ea4f 01e2 	mov.w	r1, r2, asr #3
 80004ae:	ea4f 0131 	mov.w	r1, r1, rrx
 80004b2:	ea4f 7002 	mov.w	r0, r2, lsl #28
 80004b6:	bf1f      	itttt	ne
 80004b8:	f012 437f 	andsne.w	r3, r2, #4278190080	; 0xff000000
 80004bc:	f093 4f7f 	teqne	r3, #4278190080	; 0xff000000
 80004c0:	f081 5160 	eorne.w	r1, r1, #939524096	; 0x38000000
 80004c4:	4770      	bxne	lr
 80004c6:	f032 427f 	bics.w	r2, r2, #4278190080	; 0xff000000
 80004ca:	bf08      	it	eq
 80004cc:	4770      	bxeq	lr
 80004ce:	f093 4f7f 	teq	r3, #4278190080	; 0xff000000
 80004d2:	bf04      	itt	eq
 80004d4:	f441 2100 	orreq.w	r1, r1, #524288	; 0x80000
 80004d8:	4770      	bxeq	lr
 80004da:	b530      	push	{r4, r5, lr}
 80004dc:	f44f 7460 	mov.w	r4, #896	; 0x380
 80004e0:	f001 4500 	and.w	r5, r1, #2147483648	; 0x80000000
 80004e4:	f021 4100 	bic.w	r1, r1, #2147483648	; 0x80000000
 80004e8:	e71c      	b.n	8000324 <__adddf3+0x138>
 80004ea:	bf00      	nop

080004ec <__aeabi_ul2d>:
 80004ec:	ea50 0201 	orrs.w	r2, r0, r1
 80004f0:	bf08      	it	eq
 80004f2:	4770      	bxeq	lr
 80004f4:	b530      	push	{r4, r5, lr}
 80004f6:	f04f 0500 	mov.w	r5, #0
 80004fa:	e00a      	b.n	8000512 <__aeabi_l2d+0x16>

080004fc <__aeabi_l2d>:
 80004fc:	ea50 0201 	orrs.w	r2, r0, r1
 8000500:	bf08      	it	eq
 8000502:	4770      	bxeq	lr
 8000504:	b530      	push	{r4, r5, lr}
 8000506:	f011 4500 	ands.w	r5, r1, #2147483648	; 0x80000000
 800050a:	d502      	bpl.n	8000512 <__aeabi_l2d+0x16>
 800050c:	4240      	negs	r0, r0
 800050e:	eb61 0141 	sbc.w	r1, r1, r1, lsl #1
 8000512:	f44f 6480 	mov.w	r4, #1024	; 0x400
 8000516:	f104 0432 	add.w	r4, r4, #50	; 0x32
 800051a:	ea5f 5c91 	movs.w	ip, r1, lsr #22
 800051e:	f43f aed8 	beq.w	80002d2 <__adddf3+0xe6>
 8000522:	f04f 0203 	mov.w	r2, #3
 8000526:	ea5f 0cdc 	movs.w	ip, ip, lsr #3
 800052a:	bf18      	it	ne
 800052c:	3203      	addne	r2, #3
 800052e:	ea5f 0cdc 	movs.w	ip, ip, lsr #3
 8000532:	bf18      	it	ne
 8000534:	3203      	addne	r2, #3
 8000536:	eb02 02dc 	add.w	r2, r2, ip, lsr #3
 800053a:	f1c2 0320 	rsb	r3, r2, #32
 800053e:	fa00 fc03 	lsl.w	ip, r0, r3
 8000542:	fa20 f002 	lsr.w	r0, r0, r2
 8000546:	fa01 fe03 	lsl.w	lr, r1, r3
 800054a:	ea40 000e 	orr.w	r0, r0, lr
 800054e:	fa21 f102 	lsr.w	r1, r1, r2
 8000552:	4414      	add	r4, r2
 8000554:	e6bd      	b.n	80002d2 <__adddf3+0xe6>
 8000556:	bf00      	nop

08000558 <__aeabi_dmul>:
 8000558:	b570      	push	{r4, r5, r6, lr}
 800055a:	f04f 0cff 	mov.w	ip, #255	; 0xff
 800055e:	f44c 6ce0 	orr.w	ip, ip, #1792	; 0x700
 8000562:	ea1c 5411 	ands.w	r4, ip, r1, lsr #20
 8000566:	bf1d      	ittte	ne
 8000568:	ea1c 5513 	andsne.w	r5, ip, r3, lsr #20
 800056c:	ea94 0f0c 	teqne	r4, ip
 8000570:	ea95 0f0c 	teqne	r5, ip
 8000574:	f000 f8de 	bleq	8000734 <__aeabi_dmul+0x1dc>
 8000578:	442c      	add	r4, r5
 800057a:	ea81 0603 	eor.w	r6, r1, r3
 800057e:	ea21 514c 	bic.w	r1, r1, ip, lsl #21
 8000582:	ea23 534c 	bic.w	r3, r3, ip, lsl #21
 8000586:	ea50 3501 	orrs.w	r5, r0, r1, lsl #12
 800058a:	bf18      	it	ne
 800058c:	ea52 3503 	orrsne.w	r5, r2, r3, lsl #12
 8000590:	f441 1180 	orr.w	r1, r1, #1048576	; 0x100000
 8000594:	f443 1380 	orr.w	r3, r3, #1048576	; 0x100000
 8000598:	d038      	beq.n	800060c <__aeabi_dmul+0xb4>
 800059a:	fba0 ce02 	umull	ip, lr, r0, r2
 800059e:	f04f 0500 	mov.w	r5, #0
 80005a2:	fbe1 e502 	umlal	lr, r5, r1, r2
 80005a6:	f006 4200 	and.w	r2, r6, #2147483648	; 0x80000000
 80005aa:	fbe0 e503 	umlal	lr, r5, r0, r3
 80005ae:	f04f 0600 	mov.w	r6, #0
 80005b2:	fbe1 5603 	umlal	r5, r6, r1, r3
 80005b6:	f09c 0f00 	teq	ip, #0
 80005ba:	bf18      	it	ne
 80005bc:	f04e 0e01 	orrne.w	lr, lr, #1
 80005c0:	f1a4 04ff 	sub.w	r4, r4, #255	; 0xff
 80005c4:	f5b6 7f00 	cmp.w	r6, #512	; 0x200
 80005c8:	f564 7440 	sbc.w	r4, r4, #768	; 0x300
 80005cc:	d204      	bcs.n	80005d8 <__aeabi_dmul+0x80>
 80005ce:	ea5f 0e4e 	movs.w	lr, lr, lsl #1
 80005d2:	416d      	adcs	r5, r5
 80005d4:	eb46 0606 	adc.w	r6, r6, r6
 80005d8:	ea42 21c6 	orr.w	r1, r2, r6, lsl #11
 80005dc:	ea41 5155 	orr.w	r1, r1, r5, lsr #21
 80005e0:	ea4f 20c5 	mov.w	r0, r5, lsl #11
 80005e4:	ea40 505e 	orr.w	r0, r0, lr, lsr #21
 80005e8:	ea4f 2ece 	mov.w	lr, lr, lsl #11
 80005ec:	f1b4 0cfd 	subs.w	ip, r4, #253	; 0xfd
 80005f0:	bf88      	it	hi
 80005f2:	f5bc 6fe0 	cmphi.w	ip, #1792	; 0x700
 80005f6:	d81e      	bhi.n	8000636 <__aeabi_dmul+0xde>
 80005f8:	f1be 4f00 	cmp.w	lr, #2147483648	; 0x80000000
 80005fc:	bf08      	it	eq
 80005fe:	ea5f 0e50 	movseq.w	lr, r0, lsr #1
 8000602:	f150 0000 	adcs.w	r0, r0, #0
 8000606:	eb41 5104 	adc.w	r1, r1, r4, lsl #20
 800060a:	bd70      	pop	{r4, r5, r6, pc}
 800060c:	f006 4600 	and.w	r6, r6, #2147483648	; 0x80000000
 8000610:	ea46 0101 	orr.w	r1, r6, r1
 8000614:	ea40 0002 	orr.w	r0, r0, r2
 8000618:	ea81 0103 	eor.w	r1, r1, r3
 800061c:	ebb4 045c 	subs.w	r4, r4, ip, lsr #1
 8000620:	bfc2      	ittt	gt
 8000622:	ebd4 050c 	rsbsgt	r5, r4, ip
 8000626:	ea41 5104 	orrgt.w	r1, r1, r4, lsl #20
 800062a:	bd70      	popgt	{r4, r5, r6, pc}
 800062c:	f441 1180 	orr.w	r1, r1, #1048576	; 0x100000
 8000630:	f04f 0e00 	mov.w	lr, #0
 8000634:	3c01      	subs	r4, #1
 8000636:	f300 80ab 	bgt.w	8000790 <__aeabi_dmul+0x238>
 800063a:	f114 0f36 	cmn.w	r4, #54	; 0x36
 800063e:	bfde      	ittt	le
 8000640:	2000      	movle	r0, #0
 8000642:	f001 4100 	andle.w	r1, r1, #2147483648	; 0x80000000
 8000646:	bd70      	pople	{r4, r5, r6, pc}
 8000648:	f1c4 0400 	rsb	r4, r4, #0
 800064c:	3c20      	subs	r4, #32
 800064e:	da35      	bge.n	80006bc <__aeabi_dmul+0x164>
 8000650:	340c      	adds	r4, #12
 8000652:	dc1b      	bgt.n	800068c <__aeabi_dmul+0x134>
 8000654:	f104 0414 	add.w	r4, r4, #20
 8000658:	f1c4 0520 	rsb	r5, r4, #32
 800065c:	fa00 f305 	lsl.w	r3, r0, r5
 8000660:	fa20 f004 	lsr.w	r0, r0, r4
 8000664:	fa01 f205 	lsl.w	r2, r1, r5
 8000668:	ea40 0002 	orr.w	r0, r0, r2
 800066c:	f001 4200 	and.w	r2, r1, #2147483648	; 0x80000000
 8000670:	f021 4100 	bic.w	r1, r1, #2147483648	; 0x80000000
 8000674:	eb10 70d3 	adds.w	r0, r0, r3, lsr #31
 8000678:	fa21 f604 	lsr.w	r6, r1, r4
 800067c:	eb42 0106 	adc.w	r1, r2, r6
 8000680:	ea5e 0e43 	orrs.w	lr, lr, r3, lsl #1
 8000684:	bf08      	it	eq
 8000686:	ea20 70d3 	biceq.w	r0, r0, r3, lsr #31
 800068a:	bd70      	pop	{r4, r5, r6, pc}
 800068c:	f1c4 040c 	rsb	r4, r4, #12
 8000690:	f1c4 0520 	rsb	r5, r4, #32
 8000694:	fa00 f304 	lsl.w	r3, r0, r4
 8000698:	fa20 f005 	lsr.w	r0, r0, r5
 800069c:	fa01 f204 	lsl.w	r2, r1, r4
 80006a0:	ea40 0002 	orr.w	r0, r0, r2
 80006a4:	f001 4100 	and.w	r1, r1, #2147483648	; 0x80000000
 80006a8:	eb10 70d3 	adds.w	r0, r0, r3, lsr #31
 80006ac:	f141 0100 	adc.w	r1, r1, #0
 80006b0:	ea5e 0e43 	orrs.w	lr, lr, r3, lsl #1
 80006b4:	bf08      	it	eq
 80006b6:	ea20 70d3 	biceq.w	r0, r0, r3, lsr #31
 80006ba:	bd70      	pop	{r4, r5, r6, pc}
 80006bc:	f1c4 0520 	rsb	r5, r4, #32
 80006c0:	fa00 f205 	lsl.w	r2, r0, r5
 80006c4:	ea4e 0e02 	orr.w	lr, lr, r2
 80006c8:	fa20 f304 	lsr.w	r3, r0, r4
 80006cc:	fa01 f205 	lsl.w	r2, r1, r5
 80006d0:	ea43 0302 	orr.w	r3, r3, r2
 80006d4:	fa21 f004 	lsr.w	r0, r1, r4
 80006d8:	f001 4100 	and.w	r1, r1, #2147483648	; 0x80000000
 80006dc:	fa21 f204 	lsr.w	r2, r1, r4
 80006e0:	ea20 0002 	bic.w	r0, r0, r2
 80006e4:	eb00 70d3 	add.w	r0, r0, r3, lsr #31
 80006e8:	ea5e 0e43 	orrs.w	lr, lr, r3, lsl #1
 80006ec:	bf08      	it	eq
 80006ee:	ea20 70d3 	biceq.w	r0, r0, r3, lsr #31
 80006f2:	bd70      	pop	{r4, r5, r6, pc}
 80006f4:	f094 0f00 	teq	r4, #0
 80006f8:	d10f      	bne.n	800071a <__aeabi_dmul+0x1c2>
 80006fa:	f001 4600 	and.w	r6, r1, #2147483648	; 0x80000000
 80006fe:	0040      	lsls	r0, r0, #1
 8000700:	eb41 0101 	adc.w	r1, r1, r1
 8000704:	f411 1f80 	tst.w	r1, #1048576	; 0x100000
 8000708:	bf08      	it	eq
 800070a:	3c01      	subeq	r4, #1
 800070c:	d0f7      	beq.n	80006fe <__aeabi_dmul+0x1a6>
 800070e:	ea41 0106 	orr.w	r1, r1, r6
 8000712:	f095 0f00 	teq	r5, #0
 8000716:	bf18      	it	ne
 8000718:	4770      	bxne	lr
 800071a:	f003 4600 	and.w	r6, r3, #2147483648	; 0x80000000
 800071e:	0052      	lsls	r2, r2, #1
 8000720:	eb43 0303 	adc.w	r3, r3, r3
 8000724:	f413 1f80 	tst.w	r3, #1048576	; 0x100000
 8000728:	bf08      	it	eq
 800072a:	3d01      	subeq	r5, #1
 800072c:	d0f7      	beq.n	800071e <__aeabi_dmul+0x1c6>
 800072e:	ea43 0306 	orr.w	r3, r3, r6
 8000732:	4770      	bx	lr
 8000734:	ea94 0f0c 	teq	r4, ip
 8000738:	ea0c 5513 	and.w	r5, ip, r3, lsr #20
 800073c:	bf18      	it	ne
 800073e:	ea95 0f0c 	teqne	r5, ip
 8000742:	d00c      	beq.n	800075e <__aeabi_dmul+0x206>
 8000744:	ea50 0641 	orrs.w	r6, r0, r1, lsl #1
 8000748:	bf18      	it	ne
 800074a:	ea52 0643 	orrsne.w	r6, r2, r3, lsl #1
 800074e:	d1d1      	bne.n	80006f4 <__aeabi_dmul+0x19c>
 8000750:	ea81 0103 	eor.w	r1, r1, r3
 8000754:	f001 4100 	and.w	r1, r1, #2147483648	; 0x80000000
 8000758:	f04f 0000 	mov.w	r0, #0
 800075c:	bd70      	pop	{r4, r5, r6, pc}
 800075e:	ea50 0641 	orrs.w	r6, r0, r1, lsl #1
 8000762:	bf06      	itte	eq
 8000764:	4610      	moveq	r0, r2
 8000766:	4619      	moveq	r1, r3
 8000768:	ea52 0643 	orrsne.w	r6, r2, r3, lsl #1
 800076c:	d019      	beq.n	80007a2 <__aeabi_dmul+0x24a>
 800076e:	ea94 0f0c 	teq	r4, ip
 8000772:	d102      	bne.n	800077a <__aeabi_dmul+0x222>
 8000774:	ea50 3601 	orrs.w	r6, r0, r1, lsl #12
 8000778:	d113      	bne.n	80007a2 <__aeabi_dmul+0x24a>
 800077a:	ea95 0f0c 	teq	r5, ip
 800077e:	d105      	bne.n	800078c <__aeabi_dmul+0x234>
 8000780:	ea52 3603 	orrs.w	r6, r2, r3, lsl #12
 8000784:	bf1c      	itt	ne
 8000786:	4610      	movne	r0, r2
 8000788:	4619      	movne	r1, r3
 800078a:	d10a      	bne.n	80007a2 <__aeabi_dmul+0x24a>
 800078c:	ea81 0103 	eor.w	r1, r1, r3
 8000790:	f001 4100 	and.w	r1, r1, #2147483648	; 0x80000000
 8000794:	f041 41fe 	orr.w	r1, r1, #2130706432	; 0x7f000000
 8000798:	f441 0170 	orr.w	r1, r1, #15728640	; 0xf00000
 800079c:	f04f 0000 	mov.w	r0, #0
 80007a0:	bd70      	pop	{r4, r5, r6, pc}
 80007a2:	f041 41fe 	orr.w	r1, r1, #2130706432	; 0x7f000000
 80007a6:	f441 0178 	orr.w	r1, r1, #16252928	; 0xf80000
 80007aa:	bd70      	pop	{r4, r5, r6, pc}

080007ac <__aeabi_ddiv>:
 80007ac:	b570      	push	{r4, r5, r6, lr}
 80007ae:	f04f 0cff 	mov.w	ip, #255	; 0xff
 80007b2:	f44c 6ce0 	orr.w	ip, ip, #1792	; 0x700
 80007b6:	ea1c 5411 	ands.w	r4, ip, r1, lsr #20
 80007ba:	bf1d      	ittte	ne
 80007bc:	ea1c 5513 	andsne.w	r5, ip, r3, lsr #20
 80007c0:	ea94 0f0c 	teqne	r4, ip
 80007c4:	ea95 0f0c 	teqne	r5, ip
 80007c8:	f000 f8a7 	bleq	800091a <__aeabi_ddiv+0x16e>
 80007cc:	eba4 0405 	sub.w	r4, r4, r5
 80007d0:	ea81 0e03 	eor.w	lr, r1, r3
 80007d4:	ea52 3503 	orrs.w	r5, r2, r3, lsl #12
 80007d8:	ea4f 3101 	mov.w	r1, r1, lsl #12
 80007dc:	f000 8088 	beq.w	80008f0 <__aeabi_ddiv+0x144>
 80007e0:	ea4f 3303 	mov.w	r3, r3, lsl #12
 80007e4:	f04f 5580 	mov.w	r5, #268435456	; 0x10000000
 80007e8:	ea45 1313 	orr.w	r3, r5, r3, lsr #4
 80007ec:	ea43 6312 	orr.w	r3, r3, r2, lsr #24
 80007f0:	ea4f 2202 	mov.w	r2, r2, lsl #8
 80007f4:	ea45 1511 	orr.w	r5, r5, r1, lsr #4
 80007f8:	ea45 6510 	orr.w	r5, r5, r0, lsr #24
 80007fc:	ea4f 2600 	mov.w	r6, r0, lsl #8
 8000800:	f00e 4100 	and.w	r1, lr, #2147483648	; 0x80000000
 8000804:	429d      	cmp	r5, r3
 8000806:	bf08      	it	eq
 8000808:	4296      	cmpeq	r6, r2
 800080a:	f144 04fd 	adc.w	r4, r4, #253	; 0xfd
 800080e:	f504 7440 	add.w	r4, r4, #768	; 0x300
 8000812:	d202      	bcs.n	800081a <__aeabi_ddiv+0x6e>
 8000814:	085b      	lsrs	r3, r3, #1
 8000816:	ea4f 0232 	mov.w	r2, r2, rrx
 800081a:	1ab6      	subs	r6, r6, r2
 800081c:	eb65 0503 	sbc.w	r5, r5, r3
 8000820:	085b      	lsrs	r3, r3, #1
 8000822:	ea4f 0232 	mov.w	r2, r2, rrx
 8000826:	f44f 1080 	mov.w	r0, #1048576	; 0x100000
 800082a:	f44f 2c00 	mov.w	ip, #524288	; 0x80000
 800082e:	ebb6 0e02 	subs.w	lr, r6, r2
 8000832:	eb75 0e03 	sbcs.w	lr, r5, r3
 8000836:	bf22      	ittt	cs
 8000838:	1ab6      	subcs	r6, r6, r2
 800083a:	4675      	movcs	r5, lr
 800083c:	ea40 000c 	orrcs.w	r0, r0, ip
 8000840:	085b      	lsrs	r3, r3, #1
 8000842:	ea4f 0232 	mov.w	r2, r2, rrx
 8000846:	ebb6 0e02 	subs.w	lr, r6, r2
 800084a:	eb75 0e03 	sbcs.w	lr, r5, r3
 800084e:	bf22      	ittt	cs
 8000850:	1ab6      	subcs	r6, r6, r2
 8000852:	4675      	movcs	r5, lr
 8000854:	ea40 005c 	orrcs.w	r0, r0, ip, lsr #1
 8000858:	085b      	lsrs	r3, r3, #1
 800085a:	ea4f 0232 	mov.w	r2, r2, rrx
 800085e:	ebb6 0e02 	subs.w	lr, r6, r2
 8000862:	eb75 0e03 	sbcs.w	lr, r5, r3
 8000866:	bf22      	ittt	cs
 8000868:	1ab6      	subcs	r6, r6, r2
 800086a:	4675      	movcs	r5, lr
 800086c:	ea40 009c 	orrcs.w	r0, r0, ip, lsr #2
 8000870:	085b      	lsrs	r3, r3, #1
 8000872:	ea4f 0232 	mov.w	r2, r2, rrx
 8000876:	ebb6 0e02 	subs.w	lr, r6, r2
 800087a:	eb75 0e03 	sbcs.w	lr, r5, r3
 800087e:	bf22      	ittt	cs
 8000880:	1ab6      	subcs	r6, r6, r2
 8000882:	4675      	movcs	r5, lr
 8000884:	ea40 00dc 	orrcs.w	r0, r0, ip, lsr #3
 8000888:	ea55 0e06 	orrs.w	lr, r5, r6
 800088c:	d018      	beq.n	80008c0 <__aeabi_ddiv+0x114>
 800088e:	ea4f 1505 	mov.w	r5, r5, lsl #4
 8000892:	ea45 7516 	orr.w	r5, r5, r6, lsr #28
 8000896:	ea4f 1606 	mov.w	r6, r6, lsl #4
 800089a:	ea4f 03c3 	mov.w	r3, r3, lsl #3
 800089e:	ea43 7352 	orr.w	r3, r3, r2, lsr #29
 80008a2:	ea4f 02c2 	mov.w	r2, r2, lsl #3
 80008a6:	ea5f 1c1c 	movs.w	ip, ip, lsr #4
 80008aa:	d1c0      	bne.n	800082e <__aeabi_ddiv+0x82>
 80008ac:	f411 1f80 	tst.w	r1, #1048576	; 0x100000
 80008b0:	d10b      	bne.n	80008ca <__aeabi_ddiv+0x11e>
 80008b2:	ea41 0100 	orr.w	r1, r1, r0
 80008b6:	f04f 0000 	mov.w	r0, #0
 80008ba:	f04f 4c00 	mov.w	ip, #2147483648	; 0x80000000
 80008be:	e7b6      	b.n	800082e <__aeabi_ddiv+0x82>
 80008c0:	f411 1f80 	tst.w	r1, #1048576	; 0x100000
 80008c4:	bf04      	itt	eq
 80008c6:	4301      	orreq	r1, r0
 80008c8:	2000      	moveq	r0, #0
 80008ca:	f1b4 0cfd 	subs.w	ip, r4, #253	; 0xfd
 80008ce:	bf88      	it	hi
 80008d0:	f5bc 6fe0 	cmphi.w	ip, #1792	; 0x700
 80008d4:	f63f aeaf 	bhi.w	8000636 <__aeabi_dmul+0xde>
 80008d8:	ebb5 0c03 	subs.w	ip, r5, r3
 80008dc:	bf04      	itt	eq
 80008de:	ebb6 0c02 	subseq.w	ip, r6, r2
 80008e2:	ea5f 0c50 	movseq.w	ip, r0, lsr #1
 80008e6:	f150 0000 	adcs.w	r0, r0, #0
 80008ea:	eb41 5104 	adc.w	r1, r1, r4, lsl #20
 80008ee:	bd70      	pop	{r4, r5, r6, pc}
 80008f0:	f00e 4e00 	and.w	lr, lr, #2147483648	; 0x80000000
 80008f4:	ea4e 3111 	orr.w	r1, lr, r1, lsr #12
 80008f8:	eb14 045c 	adds.w	r4, r4, ip, lsr #1
 80008fc:	bfc2      	ittt	gt
 80008fe:	ebd4 050c 	rsbsgt	r5, r4, ip
 8000902:	ea41 5104 	orrgt.w	r1, r1, r4, lsl #20
 8000906:	bd70      	popgt	{r4, r5, r6, pc}
 8000908:	f441 1180 	orr.w	r1, r1, #1048576	; 0x100000
 800090c:	f04f 0e00 	mov.w	lr, #0
 8000910:	3c01      	subs	r4, #1
 8000912:	e690      	b.n	8000636 <__aeabi_dmul+0xde>
 8000914:	ea45 0e06 	orr.w	lr, r5, r6
 8000918:	e68d      	b.n	8000636 <__aeabi_dmul+0xde>
 800091a:	ea0c 5513 	and.w	r5, ip, r3, lsr #20
 800091e:	ea94 0f0c 	teq	r4, ip
 8000922:	bf08      	it	eq
 8000924:	ea95 0f0c 	teqeq	r5, ip
 8000928:	f43f af3b 	beq.w	80007a2 <__aeabi_dmul+0x24a>
 800092c:	ea94 0f0c 	teq	r4, ip
 8000930:	d10a      	bne.n	8000948 <__aeabi_ddiv+0x19c>
 8000932:	ea50 3401 	orrs.w	r4, r0, r1, lsl #12
 8000936:	f47f af34 	bne.w	80007a2 <__aeabi_dmul+0x24a>
 800093a:	ea95 0f0c 	teq	r5, ip
 800093e:	f47f af25 	bne.w	800078c <__aeabi_dmul+0x234>
 8000942:	4610      	mov	r0, r2
 8000944:	4619      	mov	r1, r3
 8000946:	e72c      	b.n	80007a2 <__aeabi_dmul+0x24a>
 8000948:	ea95 0f0c 	teq	r5, ip
 800094c:	d106      	bne.n	800095c <__aeabi_ddiv+0x1b0>
 800094e:	ea52 3503 	orrs.w	r5, r2, r3, lsl #12
 8000952:	f43f aefd 	beq.w	8000750 <__aeabi_dmul+0x1f8>
 8000956:	4610      	mov	r0, r2
 8000958:	4619      	mov	r1, r3
 800095a:	e722      	b.n	80007a2 <__aeabi_dmul+0x24a>
 800095c:	ea50 0641 	orrs.w	r6, r0, r1, lsl #1
 8000960:	bf18      	it	ne
 8000962:	ea52 0643 	orrsne.w	r6, r2, r3, lsl #1
 8000966:	f47f aec5 	bne.w	80006f4 <__aeabi_dmul+0x19c>
 800096a:	ea50 0441 	orrs.w	r4, r0, r1, lsl #1
 800096e:	f47f af0d 	bne.w	800078c <__aeabi_dmul+0x234>
 8000972:	ea52 0543 	orrs.w	r5, r2, r3, lsl #1
 8000976:	f47f aeeb 	bne.w	8000750 <__aeabi_dmul+0x1f8>
 800097a:	e712      	b.n	80007a2 <__aeabi_dmul+0x24a>

0800097c <__aeabi_d2f>:
 800097c:	ea4f 0241 	mov.w	r2, r1, lsl #1
 8000980:	f1b2 43e0 	subs.w	r3, r2, #1879048192	; 0x70000000
 8000984:	bf24      	itt	cs
 8000986:	f5b3 1c00 	subscs.w	ip, r3, #2097152	; 0x200000
 800098a:	f1dc 5cfe 	rsbscs	ip, ip, #532676608	; 0x1fc00000
 800098e:	d90d      	bls.n	80009ac <__aeabi_d2f+0x30>
 8000990:	f001 4c00 	and.w	ip, r1, #2147483648	; 0x80000000
 8000994:	ea4f 02c0 	mov.w	r2, r0, lsl #3
 8000998:	ea4c 7050 	orr.w	r0, ip, r0, lsr #29
 800099c:	f1b2 4f00 	cmp.w	r2, #2147483648	; 0x80000000
 80009a0:	eb40 0083 	adc.w	r0, r0, r3, lsl #2
 80009a4:	bf08      	it	eq
 80009a6:	f020 0001 	biceq.w	r0, r0, #1
 80009aa:	4770      	bx	lr
 80009ac:	f011 4f80 	tst.w	r1, #1073741824	; 0x40000000
 80009b0:	d121      	bne.n	80009f6 <__aeabi_d2f+0x7a>
 80009b2:	f113 7238 	adds.w	r2, r3, #48234496	; 0x2e00000
 80009b6:	bfbc      	itt	lt
 80009b8:	f001 4000 	andlt.w	r0, r1, #2147483648	; 0x80000000
 80009bc:	4770      	bxlt	lr
 80009be:	f441 1180 	orr.w	r1, r1, #1048576	; 0x100000
 80009c2:	ea4f 5252 	mov.w	r2, r2, lsr #21
 80009c6:	f1c2 0218 	rsb	r2, r2, #24
 80009ca:	f1c2 0c20 	rsb	ip, r2, #32
 80009ce:	fa10 f30c 	lsls.w	r3, r0, ip
 80009d2:	fa20 f002 	lsr.w	r0, r0, r2
 80009d6:	bf18      	it	ne
 80009d8:	f040 0001 	orrne.w	r0, r0, #1
 80009dc:	ea4f 23c1 	mov.w	r3, r1, lsl #11
 80009e0:	ea4f 23d3 	mov.w	r3, r3, lsr #11
 80009e4:	fa03 fc0c 	lsl.w	ip, r3, ip
 80009e8:	ea40 000c 	orr.w	r0, r0, ip
 80009ec:	fa23 f302 	lsr.w	r3, r3, r2
 80009f0:	ea4f 0343 	mov.w	r3, r3, lsl #1
 80009f4:	e7cc      	b.n	8000990 <__aeabi_d2f+0x14>
 80009f6:	ea7f 5362 	mvns.w	r3, r2, asr #21
 80009fa:	d107      	bne.n	8000a0c <__aeabi_d2f+0x90>
 80009fc:	ea50 3301 	orrs.w	r3, r0, r1, lsl #12
 8000a00:	bf1e      	ittt	ne
 8000a02:	f04f 40fe 	movne.w	r0, #2130706432	; 0x7f000000
 8000a06:	f440 0040 	orrne.w	r0, r0, #12582912	; 0xc00000
 8000a0a:	4770      	bxne	lr
 8000a0c:	f001 4000 	and.w	r0, r1, #2147483648	; 0x80000000
 8000a10:	f040 40fe 	orr.w	r0, r0, #2130706432	; 0x7f000000
 8000a14:	f440 0000 	orr.w	r0, r0, #8388608	; 0x800000
 8000a18:	4770      	bx	lr
 8000a1a:	bf00      	nop

08000a1c <__aeabi_uldivmod>:
 8000a1c:	b953      	cbnz	r3, 8000a34 <__aeabi_uldivmod+0x18>
 8000a1e:	b94a      	cbnz	r2, 8000a34 <__aeabi_uldivmod+0x18>
 8000a20:	2900      	cmp	r1, #0
 8000a22:	bf08      	it	eq
 8000a24:	2800      	cmpeq	r0, #0
 8000a26:	bf1c      	itt	ne
 8000a28:	f04f 31ff 	movne.w	r1, #4294967295	; 0xffffffff
 8000a2c:	f04f 30ff 	movne.w	r0, #4294967295	; 0xffffffff
 8000a30:	f000 b972 	b.w	8000d18 <__aeabi_idiv0>
 8000a34:	f1ad 0c08 	sub.w	ip, sp, #8
 8000a38:	e96d ce04 	strd	ip, lr, [sp, #-16]!
 8000a3c:	f000 f806 	bl	8000a4c <__udivmoddi4>
 8000a40:	f8dd e004 	ldr.w	lr, [sp, #4]
 8000a44:	e9dd 2302 	ldrd	r2, r3, [sp, #8]
 8000a48:	b004      	add	sp, #16
 8000a4a:	4770      	bx	lr

08000a4c <__udivmoddi4>:
 8000a4c:	e92d 47f0 	stmdb	sp!, {r4, r5, r6, r7, r8, r9, sl, lr}
 8000a50:	9e08      	ldr	r6, [sp, #32]
 8000a52:	4604      	mov	r4, r0
 8000a54:	4688      	mov	r8, r1
 8000a56:	2b00      	cmp	r3, #0
 8000a58:	d14b      	bne.n	8000af2 <__udivmoddi4+0xa6>
 8000a5a:	428a      	cmp	r2, r1
 8000a5c:	4615      	mov	r5, r2
 8000a5e:	d967      	bls.n	8000b30 <__udivmoddi4+0xe4>
 8000a60:	fab2 f282 	clz	r2, r2
 8000a64:	b14a      	cbz	r2, 8000a7a <__udivmoddi4+0x2e>
 8000a66:	f1c2 0720 	rsb	r7, r2, #32
 8000a6a:	fa01 f302 	lsl.w	r3, r1, r2
 8000a6e:	fa20 f707 	lsr.w	r7, r0, r7
 8000a72:	4095      	lsls	r5, r2
 8000a74:	ea47 0803 	orr.w	r8, r7, r3
 8000a78:	4094      	lsls	r4, r2
 8000a7a:	ea4f 4e15 	mov.w	lr, r5, lsr #16
 8000a7e:	0c23      	lsrs	r3, r4, #16
 8000a80:	fbb8 f7fe 	udiv	r7, r8, lr
 8000a84:	fa1f fc85 	uxth.w	ip, r5
 8000a88:	fb0e 8817 	mls	r8, lr, r7, r8
 8000a8c:	ea43 4308 	orr.w	r3, r3, r8, lsl #16
 8000a90:	fb07 f10c 	mul.w	r1, r7, ip
 8000a94:	4299      	cmp	r1, r3
 8000a96:	d909      	bls.n	8000aac <__udivmoddi4+0x60>
 8000a98:	18eb      	adds	r3, r5, r3
 8000a9a:	f107 30ff 	add.w	r0, r7, #4294967295	; 0xffffffff
 8000a9e:	f080 811b 	bcs.w	8000cd8 <__udivmoddi4+0x28c>
 8000aa2:	4299      	cmp	r1, r3
 8000aa4:	f240 8118 	bls.w	8000cd8 <__udivmoddi4+0x28c>
 8000aa8:	3f02      	subs	r7, #2
 8000aaa:	442b      	add	r3, r5
 8000aac:	1a5b      	subs	r3, r3, r1
 8000aae:	b2a4      	uxth	r4, r4
 8000ab0:	fbb3 f0fe 	udiv	r0, r3, lr
 8000ab4:	fb0e 3310 	mls	r3, lr, r0, r3
 8000ab8:	ea44 4403 	orr.w	r4, r4, r3, lsl #16
 8000abc:	fb00 fc0c 	mul.w	ip, r0, ip
 8000ac0:	45a4      	cmp	ip, r4
 8000ac2:	d909      	bls.n	8000ad8 <__udivmoddi4+0x8c>
 8000ac4:	192c      	adds	r4, r5, r4
 8000ac6:	f100 33ff 	add.w	r3, r0, #4294967295	; 0xffffffff
 8000aca:	f080 8107 	bcs.w	8000cdc <__udivmoddi4+0x290>
 8000ace:	45a4      	cmp	ip, r4
 8000ad0:	f240 8104 	bls.w	8000cdc <__udivmoddi4+0x290>
 8000ad4:	3802      	subs	r0, #2
 8000ad6:	442c      	add	r4, r5
 8000ad8:	ea40 4007 	orr.w	r0, r0, r7, lsl #16
 8000adc:	eba4 040c 	sub.w	r4, r4, ip
 8000ae0:	2700      	movs	r7, #0
 8000ae2:	b11e      	cbz	r6, 8000aec <__udivmoddi4+0xa0>
 8000ae4:	40d4      	lsrs	r4, r2
 8000ae6:	2300      	movs	r3, #0
 8000ae8:	e9c6 4300 	strd	r4, r3, [r6]
 8000aec:	4639      	mov	r1, r7
 8000aee:	e8bd 87f0 	ldmia.w	sp!, {r4, r5, r6, r7, r8, r9, sl, pc}
 8000af2:	428b      	cmp	r3, r1
 8000af4:	d909      	bls.n	8000b0a <__udivmoddi4+0xbe>
 8000af6:	2e00      	cmp	r6, #0
 8000af8:	f000 80eb 	beq.w	8000cd2 <__udivmoddi4+0x286>
 8000afc:	2700      	movs	r7, #0
 8000afe:	e9c6 0100 	strd	r0, r1, [r6]
 8000b02:	4638      	mov	r0, r7
 8000b04:	4639      	mov	r1, r7
 8000b06:	e8bd 87f0 	ldmia.w	sp!, {r4, r5, r6, r7, r8, r9, sl, pc}
 8000b0a:	fab3 f783 	clz	r7, r3
 8000b0e:	2f00      	cmp	r7, #0
 8000b10:	d147      	bne.n	8000ba2 <__udivmoddi4+0x156>
 8000b12:	428b      	cmp	r3, r1
 8000b14:	d302      	bcc.n	8000b1c <__udivmoddi4+0xd0>
 8000b16:	4282      	cmp	r2, r0
 8000b18:	f200 80fa 	bhi.w	8000d10 <__udivmoddi4+0x2c4>
 8000b1c:	1a84      	subs	r4, r0, r2
 8000b1e:	eb61 0303 	sbc.w	r3, r1, r3
 8000b22:	2001      	movs	r0, #1
 8000b24:	4698      	mov	r8, r3
 8000b26:	2e00      	cmp	r6, #0
 8000b28:	d0e0      	beq.n	8000aec <__udivmoddi4+0xa0>
 8000b2a:	e9c6 4800 	strd	r4, r8, [r6]
 8000b2e:	e7dd      	b.n	8000aec <__udivmoddi4+0xa0>
 8000b30:	b902      	cbnz	r2, 8000b34 <__udivmoddi4+0xe8>
 8000b32:	deff      	udf	#255	; 0xff
 8000b34:	fab2 f282 	clz	r2, r2
 8000b38:	2a00      	cmp	r2, #0
 8000b3a:	f040 808f 	bne.w	8000c5c <__udivmoddi4+0x210>
 8000b3e:	1b49      	subs	r1, r1, r5
 8000b40:	ea4f 4e15 	mov.w	lr, r5, lsr #16
 8000b44:	fa1f f885 	uxth.w	r8, r5
 8000b48:	2701      	movs	r7, #1
 8000b4a:	fbb1 fcfe 	udiv	ip, r1, lr
 8000b4e:	0c23      	lsrs	r3, r4, #16
 8000b50:	fb0e 111c 	mls	r1, lr, ip, r1
 8000b54:	ea43 4301 	orr.w	r3, r3, r1, lsl #16
 8000b58:	fb08 f10c 	mul.w	r1, r8, ip
 8000b5c:	4299      	cmp	r1, r3
 8000b5e:	d907      	bls.n	8000b70 <__udivmoddi4+0x124>
 8000b60:	18eb      	adds	r3, r5, r3
 8000b62:	f10c 30ff 	add.w	r0, ip, #4294967295	; 0xffffffff
 8000b66:	d202      	bcs.n	8000b6e <__udivmoddi4+0x122>
 8000b68:	4299      	cmp	r1, r3
 8000b6a:	f200 80cd 	bhi.w	8000d08 <__udivmoddi4+0x2bc>
 8000b6e:	4684      	mov	ip, r0
 8000b70:	1a59      	subs	r1, r3, r1
 8000b72:	b2a3      	uxth	r3, r4
 8000b74:	fbb1 f0fe 	udiv	r0, r1, lr
 8000b78:	fb0e 1410 	mls	r4, lr, r0, r1
 8000b7c:	ea43 4404 	orr.w	r4, r3, r4, lsl #16
 8000b80:	fb08 f800 	mul.w	r8, r8, r0
 8000b84:	45a0      	cmp	r8, r4
 8000b86:	d907      	bls.n	8000b98 <__udivmoddi4+0x14c>
 8000b88:	192c      	adds	r4, r5, r4
 8000b8a:	f100 33ff 	add.w	r3, r0, #4294967295	; 0xffffffff
 8000b8e:	d202      	bcs.n	8000b96 <__udivmoddi4+0x14a>
 8000b90:	45a0      	cmp	r8, r4
 8000b92:	f200 80b6 	bhi.w	8000d02 <__udivmoddi4+0x2b6>
 8000b96:	4618      	mov	r0, r3
 8000b98:	eba4 0408 	sub.w	r4, r4, r8
 8000b9c:	ea40 400c 	orr.w	r0, r0, ip, lsl #16
 8000ba0:	e79f      	b.n	8000ae2 <__udivmoddi4+0x96>
 8000ba2:	f1c7 0c20 	rsb	ip, r7, #32
 8000ba6:	40bb      	lsls	r3, r7
 8000ba8:	fa22 fe0c 	lsr.w	lr, r2, ip
 8000bac:	ea4e 0e03 	orr.w	lr, lr, r3
 8000bb0:	fa01 f407 	lsl.w	r4, r1, r7
 8000bb4:	fa20 f50c 	lsr.w	r5, r0, ip
 8000bb8:	fa21 f30c 	lsr.w	r3, r1, ip
 8000bbc:	ea4f 481e 	mov.w	r8, lr, lsr #16
 8000bc0:	4325      	orrs	r5, r4
 8000bc2:	fbb3 f9f8 	udiv	r9, r3, r8
 8000bc6:	0c2c      	lsrs	r4, r5, #16
 8000bc8:	fb08 3319 	mls	r3, r8, r9, r3
 8000bcc:	fa1f fa8e 	uxth.w	sl, lr
 8000bd0:	ea44 4303 	orr.w	r3, r4, r3, lsl #16
 8000bd4:	fb09 f40a 	mul.w	r4, r9, sl
 8000bd8:	429c      	cmp	r4, r3
 8000bda:	fa02 f207 	lsl.w	r2, r2, r7
 8000bde:	fa00 f107 	lsl.w	r1, r0, r7
 8000be2:	d90b      	bls.n	8000bfc <__udivmoddi4+0x1b0>
 8000be4:	eb1e 0303 	adds.w	r3, lr, r3
 8000be8:	f109 30ff 	add.w	r0, r9, #4294967295	; 0xffffffff
 8000bec:	f080 8087 	bcs.w	8000cfe <__udivmoddi4+0x2b2>
 8000bf0:	429c      	cmp	r4, r3
 8000bf2:	f240 8084 	bls.w	8000cfe <__udivmoddi4+0x2b2>
 8000bf6:	f1a9 0902 	sub.w	r9, r9, #2
 8000bfa:	4473      	add	r3, lr
 8000bfc:	1b1b      	subs	r3, r3, r4
 8000bfe:	b2ad      	uxth	r5, r5
 8000c00:	fbb3 f0f8 	udiv	r0, r3, r8
 8000c04:	fb08 3310 	mls	r3, r8, r0, r3
 8000c08:	ea45 4403 	orr.w	r4, r5, r3, lsl #16
 8000c0c:	fb00 fa0a 	mul.w	sl, r0, sl
 8000c10:	45a2      	cmp	sl, r4
 8000c12:	d908      	bls.n	8000c26 <__udivmoddi4+0x1da>
 8000c14:	eb1e 0404 	adds.w	r4, lr, r4
 8000c18:	f100 33ff 	add.w	r3, r0, #4294967295	; 0xffffffff
 8000c1c:	d26b      	bcs.n	8000cf6 <__udivmoddi4+0x2aa>
 8000c1e:	45a2      	cmp	sl, r4
 8000c20:	d969      	bls.n	8000cf6 <__udivmoddi4+0x2aa>
 8000c22:	3802      	subs	r0, #2
 8000c24:	4474      	add	r4, lr
 8000c26:	ea40 4009 	orr.w	r0, r0, r9, lsl #16
 8000c2a:	fba0 8902 	umull	r8, r9, r0, r2
 8000c2e:	eba4 040a 	sub.w	r4, r4, sl
 8000c32:	454c      	cmp	r4, r9
 8000c34:	46c2      	mov	sl, r8
 8000c36:	464b      	mov	r3, r9
 8000c38:	d354      	bcc.n	8000ce4 <__udivmoddi4+0x298>
 8000c3a:	d051      	beq.n	8000ce0 <__udivmoddi4+0x294>
 8000c3c:	2e00      	cmp	r6, #0
 8000c3e:	d069      	beq.n	8000d14 <__udivmoddi4+0x2c8>
 8000c40:	ebb1 050a 	subs.w	r5, r1, sl
 8000c44:	eb64 0403 	sbc.w	r4, r4, r3
 8000c48:	fa04 fc0c 	lsl.w	ip, r4, ip
 8000c4c:	40fd      	lsrs	r5, r7
 8000c4e:	40fc      	lsrs	r4, r7
 8000c50:	ea4c 0505 	orr.w	r5, ip, r5
 8000c54:	e9c6 5400 	strd	r5, r4, [r6]
 8000c58:	2700      	movs	r7, #0
 8000c5a:	e747      	b.n	8000aec <__udivmoddi4+0xa0>
 8000c5c:	f1c2 0320 	rsb	r3, r2, #32
 8000c60:	fa20 f703 	lsr.w	r7, r0, r3
 8000c64:	4095      	lsls	r5, r2
 8000c66:	fa01 f002 	lsl.w	r0, r1, r2
 8000c6a:	fa21 f303 	lsr.w	r3, r1, r3
 8000c6e:	ea4f 4e15 	mov.w	lr, r5, lsr #16
 8000c72:	4338      	orrs	r0, r7
 8000c74:	0c01      	lsrs	r1, r0, #16
 8000c76:	fbb3 f7fe 	udiv	r7, r3, lr
 8000c7a:	fa1f f885 	uxth.w	r8, r5
 8000c7e:	fb0e 3317 	mls	r3, lr, r7, r3
 8000c82:	ea41 4103 	orr.w	r1, r1, r3, lsl #16
 8000c86:	fb07 f308 	mul.w	r3, r7, r8
 8000c8a:	428b      	cmp	r3, r1
 8000c8c:	fa04 f402 	lsl.w	r4, r4, r2
 8000c90:	d907      	bls.n	8000ca2 <__udivmoddi4+0x256>
 8000c92:	1869      	adds	r1, r5, r1
 8000c94:	f107 3cff 	add.w	ip, r7, #4294967295	; 0xffffffff
 8000c98:	d22f      	bcs.n	8000cfa <__udivmoddi4+0x2ae>
 8000c9a:	428b      	cmp	r3, r1
 8000c9c:	d92d      	bls.n	8000cfa <__udivmoddi4+0x2ae>
 8000c9e:	3f02      	subs	r7, #2
 8000ca0:	4429      	add	r1, r5
 8000ca2:	1acb      	subs	r3, r1, r3
 8000ca4:	b281      	uxth	r1, r0
 8000ca6:	fbb3 f0fe 	udiv	r0, r3, lr
 8000caa:	fb0e 3310 	mls	r3, lr, r0, r3
 8000cae:	ea41 4103 	orr.w	r1, r1, r3, lsl #16
 8000cb2:	fb00 f308 	mul.w	r3, r0, r8
 8000cb6:	428b      	cmp	r3, r1
 8000cb8:	d907      	bls.n	8000cca <__udivmoddi4+0x27e>
 8000cba:	1869      	adds	r1, r5, r1
 8000cbc:	f100 3cff 	add.w	ip, r0, #4294967295	; 0xffffffff
 8000cc0:	d217      	bcs.n	8000cf2 <__udivmoddi4+0x2a6>
 8000cc2:	428b      	cmp	r3, r1
 8000cc4:	d915      	bls.n	8000cf2 <__udivmoddi4+0x2a6>
 8000cc6:	3802      	subs	r0, #2
 8000cc8:	4429      	add	r1, r5
 8000cca:	1ac9      	subs	r1, r1, r3
 8000ccc:	ea40 4707 	orr.w	r7, r0, r7, lsl #16
 8000cd0:	e73b      	b.n	8000b4a <__udivmoddi4+0xfe>
 8000cd2:	4637      	mov	r7, r6
 8000cd4:	4630      	mov	r0, r6
 8000cd6:	e709      	b.n	8000aec <__udivmoddi4+0xa0>
 8000cd8:	4607      	mov	r7, r0
 8000cda:	e6e7      	b.n	8000aac <__udivmoddi4+0x60>
 8000cdc:	4618      	mov	r0, r3
 8000cde:	e6fb      	b.n	8000ad8 <__udivmoddi4+0x8c>
 8000ce0:	4541      	cmp	r1, r8
 8000ce2:	d2ab      	bcs.n	8000c3c <__udivmoddi4+0x1f0>
 8000ce4:	ebb8 0a02 	subs.w	sl, r8, r2
 8000ce8:	eb69 020e 	sbc.w	r2, r9, lr
 8000cec:	3801      	subs	r0, #1
 8000cee:	4613      	mov	r3, r2
 8000cf0:	e7a4      	b.n	8000c3c <__udivmoddi4+0x1f0>
 8000cf2:	4660      	mov	r0, ip
 8000cf4:	e7e9      	b.n	8000cca <__udivmoddi4+0x27e>
 8000cf6:	4618      	mov	r0, r3
 8000cf8:	e795      	b.n	8000c26 <__udivmoddi4+0x1da>
 8000cfa:	4667      	mov	r7, ip
 8000cfc:	e7d1      	b.n	8000ca2 <__udivmoddi4+0x256>
 8000cfe:	4681      	mov	r9, r0
 8000d00:	e77c      	b.n	8000bfc <__udivmoddi4+0x1b0>
 8000d02:	3802      	subs	r0, #2
 8000d04:	442c      	add	r4, r5
 8000d06:	e747      	b.n	8000b98 <__udivmoddi4+0x14c>
 8000d08:	f1ac 0c02 	sub.w	ip, ip, #2
 8000d0c:	442b      	add	r3, r5
 8000d0e:	e72f      	b.n	8000b70 <__udivmoddi4+0x124>
 8000d10:	4638      	mov	r0, r7
 8000d12:	e708      	b.n	8000b26 <__udivmoddi4+0xda>
 8000d14:	4637      	mov	r7, r6
 8000d16:	e6e9      	b.n	8000aec <__udivmoddi4+0xa0>

08000d18 <__aeabi_idiv0>:
 8000d18:	4770      	bx	lr
 8000d1a:	bf00      	nop

08000d1c <strlen>:
 8000d1c:	4603      	mov	r3, r0
 8000d1e:	f813 2b01 	ldrb.w	r2, [r3], #1
 8000d22:	2a00      	cmp	r2, #0
 8000d24:	d1fb      	bne.n	8000d1e <strlen+0x2>
 8000d26:	1a18      	subs	r0, r3, r0
 8000d28:	3801      	subs	r0, #1
 8000d2a:	4770      	bx	lr
 8000d2c:	0000      	movs	r0, r0
	...

08000d30 <memchr>:
 8000d30:	f001 01ff 	and.w	r1, r1, #255	; 0xff
 8000d34:	2a10      	cmp	r2, #16
 8000d36:	db2b      	blt.n	8000d90 <memchr+0x60>
 8000d38:	f010 0f07 	tst.w	r0, #7
 8000d3c:	d008      	beq.n	8000d50 <memchr+0x20>
 8000d3e:	f810 3b01 	ldrb.w	r3, [r0], #1
 8000d42:	3a01      	subs	r2, #1
 8000d44:	428b      	cmp	r3, r1
 8000d46:	d02d      	beq.n	8000da4 <memchr+0x74>
 8000d48:	f010 0f07 	tst.w	r0, #7
 8000d4c:	b342      	cbz	r2, 8000da0 <memchr+0x70>
 8000d4e:	d1f6      	bne.n	8000d3e <memchr+0xe>
 8000d50:	b4f0      	push	{r4, r5, r6, r7}
 8000d52:	ea41 2101 	orr.w	r1, r1, r1, lsl #8
 8000d56:	ea41 4101 	orr.w	r1, r1, r1, lsl #16
 8000d5a:	f022 0407 	bic.w	r4, r2, #7
 8000d5e:	f07f 0700 	mvns.w	r7, #0
 8000d62:	2300      	movs	r3, #0
 8000d64:	e8f0 5602 	ldrd	r5, r6, [r0], #8
 8000d68:	3c08      	subs	r4, #8
 8000d6a:	ea85 0501 	eor.w	r5, r5, r1
 8000d6e:	ea86 0601 	eor.w	r6, r6, r1
 8000d72:	fa85 f547 	uadd8	r5, r5, r7
 8000d76:	faa3 f587 	sel	r5, r3, r7
 8000d7a:	fa86 f647 	uadd8	r6, r6, r7
 8000d7e:	faa5 f687 	sel	r6, r5, r7
 8000d82:	b98e      	cbnz	r6, 8000da8 <memchr+0x78>
 8000d84:	d1ee      	bne.n	8000d64 <memchr+0x34>
 8000d86:	bcf0      	pop	{r4, r5, r6, r7}
 8000d88:	f001 01ff 	and.w	r1, r1, #255	; 0xff
 8000d8c:	f002 0207 	and.w	r2, r2, #7
 8000d90:	b132      	cbz	r2, 8000da0 <memchr+0x70>
 8000d92:	f810 3b01 	ldrb.w	r3, [r0], #1
 8000d96:	3a01      	subs	r2, #1
 8000d98:	ea83 0301 	eor.w	r3, r3, r1
 8000d9c:	b113      	cbz	r3, 8000da4 <memchr+0x74>
 8000d9e:	d1f8      	bne.n	8000d92 <memchr+0x62>
 8000da0:	2000      	movs	r0, #0
 8000da2:	4770      	bx	lr
 8000da4:	3801      	subs	r0, #1
 8000da6:	4770      	bx	lr
 8000da8:	2d00      	cmp	r5, #0
 8000daa:	bf06      	itte	eq
 8000dac:	4635      	moveq	r5, r6
 8000dae:	3803      	subeq	r0, #3
 8000db0:	3807      	subne	r0, #7
 8000db2:	f015 0f01 	tst.w	r5, #1
 8000db6:	d107      	bne.n	8000dc8 <memchr+0x98>
 8000db8:	3001      	adds	r0, #1
 8000dba:	f415 7f80 	tst.w	r5, #256	; 0x100
 8000dbe:	bf02      	ittt	eq
 8000dc0:	3001      	addeq	r0, #1
 8000dc2:	f415 3fc0 	tsteq.w	r5, #98304	; 0x18000
 8000dc6:	3001      	addeq	r0, #1
 8000dc8:	bcf0      	pop	{r4, r5, r6, r7}
 8000dca:	3801      	subs	r0, #1
 8000dcc:	4770      	bx	lr
 8000dce:	bf00      	nop

08000dd0 <__gedf2>:
 8000dd0:	f04f 3cff 	mov.w	ip, #4294967295	; 0xffffffff
 8000dd4:	e006      	b.n	8000de4 <__cmpdf2+0x4>
 8000dd6:	bf00      	nop

08000dd8 <__ledf2>:
 8000dd8:	f04f 0c01 	mov.w	ip, #1
 8000ddc:	e002      	b.n	8000de4 <__cmpdf2+0x4>
 8000dde:	bf00      	nop

08000de0 <__cmpdf2>:
 8000de0:	f04f 0c01 	mov.w	ip, #1
 8000de4:	f84d cd04 	str.w	ip, [sp, #-4]!
 8000de8:	ea4f 0c41 	mov.w	ip, r1, lsl #1
 8000dec:	ea7f 5c6c 	mvns.w	ip, ip, asr #21
 8000df0:	ea4f 0c43 	mov.w	ip, r3, lsl #1
 8000df4:	bf18      	it	ne
 8000df6:	ea7f 5c6c 	mvnsne.w	ip, ip, asr #21
 8000dfa:	d01b      	beq.n	8000e34 <__cmpdf2+0x54>
 8000dfc:	b001      	add	sp, #4
 8000dfe:	ea50 0c41 	orrs.w	ip, r0, r1, lsl #1
 8000e02:	bf0c      	ite	eq
 8000e04:	ea52 0c43 	orrseq.w	ip, r2, r3, lsl #1
 8000e08:	ea91 0f03 	teqne	r1, r3
 8000e0c:	bf02      	ittt	eq
 8000e0e:	ea90 0f02 	teqeq	r0, r2
 8000e12:	2000      	moveq	r0, #0
 8000e14:	4770      	bxeq	lr
 8000e16:	f110 0f00 	cmn.w	r0, #0
 8000e1a:	ea91 0f03 	teq	r1, r3
 8000e1e:	bf58      	it	pl
 8000e20:	4299      	cmppl	r1, r3
 8000e22:	bf08      	it	eq
 8000e24:	4290      	cmpeq	r0, r2
 8000e26:	bf2c      	ite	cs
 8000e28:	17d8      	asrcs	r0, r3, #31
 8000e2a:	ea6f 70e3 	mvncc.w	r0, r3, asr #31
 8000e2e:	f040 0001 	orr.w	r0, r0, #1
 8000e32:	4770      	bx	lr
 8000e34:	ea4f 0c41 	mov.w	ip, r1, lsl #1
 8000e38:	ea7f 5c6c 	mvns.w	ip, ip, asr #21
 8000e3c:	d102      	bne.n	8000e44 <__cmpdf2+0x64>
 8000e3e:	ea50 3c01 	orrs.w	ip, r0, r1, lsl #12
 8000e42:	d107      	bne.n	8000e54 <__cmpdf2+0x74>
 8000e44:	ea4f 0c43 	mov.w	ip, r3, lsl #1
 8000e48:	ea7f 5c6c 	mvns.w	ip, ip, asr #21
 8000e4c:	d1d6      	bne.n	8000dfc <__cmpdf2+0x1c>
 8000e4e:	ea52 3c03 	orrs.w	ip, r2, r3, lsl #12
 8000e52:	d0d3      	beq.n	8000dfc <__cmpdf2+0x1c>
 8000e54:	f85d 0b04 	ldr.w	r0, [sp], #4
 8000e58:	4770      	bx	lr
 8000e5a:	bf00      	nop

08000e5c <__aeabi_cdrcmple>:
 8000e5c:	4684      	mov	ip, r0
 8000e5e:	4610      	mov	r0, r2
 8000e60:	4662      	mov	r2, ip
 8000e62:	468c      	mov	ip, r1
 8000e64:	4619      	mov	r1, r3
 8000e66:	4663      	mov	r3, ip
 8000e68:	e000      	b.n	8000e6c <__aeabi_cdcmpeq>
 8000e6a:	bf00      	nop

08000e6c <__aeabi_cdcmpeq>:
 8000e6c:	b501      	push	{r0, lr}
 8000e6e:	f7ff ffb7 	bl	8000de0 <__cmpdf2>
 8000e72:	2800      	cmp	r0, #0
 8000e74:	bf48      	it	mi
 8000e76:	f110 0f00 	cmnmi.w	r0, #0
 8000e7a:	bd01      	pop	{r0, pc}

08000e7c <__aeabi_dcmpeq>:
 8000e7c:	f84d ed08 	str.w	lr, [sp, #-8]!
 8000e80:	f7ff fff4 	bl	8000e6c <__aeabi_cdcmpeq>
 8000e84:	bf0c      	ite	eq
 8000e86:	2001      	moveq	r0, #1
 8000e88:	2000      	movne	r0, #0
 8000e8a:	f85d fb08 	ldr.w	pc, [sp], #8
 8000e8e:	bf00      	nop

08000e90 <__aeabi_dcmplt>:
 8000e90:	f84d ed08 	str.w	lr, [sp, #-8]!
 8000e94:	f7ff ffea 	bl	8000e6c <__aeabi_cdcmpeq>
 8000e98:	bf34      	ite	cc
 8000e9a:	2001      	movcc	r0, #1
 8000e9c:	2000      	movcs	r0, #0
 8000e9e:	f85d fb08 	ldr.w	pc, [sp], #8
 8000ea2:	bf00      	nop

08000ea4 <__aeabi_dcmple>:
 8000ea4:	f84d ed08 	str.w	lr, [sp, #-8]!
 8000ea8:	f7ff ffe0 	bl	8000e6c <__aeabi_cdcmpeq>
 8000eac:	bf94      	ite	ls
 8000eae:	2001      	movls	r0, #1
 8000eb0:	2000      	movhi	r0, #0
 8000eb2:	f85d fb08 	ldr.w	pc, [sp], #8
 8000eb6:	bf00      	nop

08000eb8 <__aeabi_dcmpge>:
 8000eb8:	f84d ed08 	str.w	lr, [sp, #-8]!
 8000ebc:	f7ff ffce 	bl	8000e5c <__aeabi_cdrcmple>
 8000ec0:	bf94      	ite	ls
 8000ec2:	2001      	movls	r0, #1
 8000ec4:	2000      	movhi	r0, #0
 8000ec6:	f85d fb08 	ldr.w	pc, [sp], #8
 8000eca:	bf00      	nop

08000ecc <__aeabi_dcmpgt>:
 8000ecc:	f84d ed08 	str.w	lr, [sp, #-8]!
 8000ed0:	f7ff ffc4 	bl	8000e5c <__aeabi_cdrcmple>
 8000ed4:	bf34      	ite	cc
 8000ed6:	2001      	movcc	r0, #1
 8000ed8:	2000      	movcs	r0, #0
 8000eda:	f85d fb08 	ldr.w	pc, [sp], #8
 8000ede:	bf00      	nop

08000ee0 <__aeabi_dcmpun>:
 8000ee0:	ea4f 0c41 	mov.w	ip, r1, lsl #1
 8000ee4:	ea7f 5c6c 	mvns.w	ip, ip, asr #21
 8000ee8:	d102      	bne.n	8000ef0 <__aeabi_dcmpun+0x10>
 8000eea:	ea50 3c01 	orrs.w	ip, r0, r1, lsl #12
 8000eee:	d10a      	bne.n	8000f06 <__aeabi_dcmpun+0x26>
 8000ef0:	ea4f 0c43 	mov.w	ip, r3, lsl #1
 8000ef4:	ea7f 5c6c 	mvns.w	ip, ip, asr #21
 8000ef8:	d102      	bne.n	8000f00 <__aeabi_dcmpun+0x20>
 8000efa:	ea52 3c03 	orrs.w	ip, r2, r3, lsl #12
 8000efe:	d102      	bne.n	8000f06 <__aeabi_dcmpun+0x26>
 8000f00:	f04f 0000 	mov.w	r0, #0
 8000f04:	4770      	bx	lr
 8000f06:	f04f 0001 	mov.w	r0, #1
 8000f0a:	4770      	bx	lr

08000f0c <__aeabi_d2iz>:
 8000f0c:	ea4f 0241 	mov.w	r2, r1, lsl #1
 8000f10:	f512 1200 	adds.w	r2, r2, #2097152	; 0x200000
 8000f14:	d215      	bcs.n	8000f42 <__aeabi_d2iz+0x36>
 8000f16:	d511      	bpl.n	8000f3c <__aeabi_d2iz+0x30>
 8000f18:	f46f 7378 	mvn.w	r3, #992	; 0x3e0
 8000f1c:	ebb3 5262 	subs.w	r2, r3, r2, asr #21
 8000f20:	d912      	bls.n	8000f48 <__aeabi_d2iz+0x3c>
 8000f22:	ea4f 23c1 	mov.w	r3, r1, lsl #11
 8000f26:	f043 4300 	orr.w	r3, r3, #2147483648	; 0x80000000
 8000f2a:	ea43 5350 	orr.w	r3, r3, r0, lsr #21
 8000f2e:	f011 4f00 	tst.w	r1, #2147483648	; 0x80000000
 8000f32:	fa23 f002 	lsr.w	r0, r3, r2
 8000f36:	bf18      	it	ne
 8000f38:	4240      	negne	r0, r0
 8000f3a:	4770      	bx	lr
 8000f3c:	f04f 0000 	mov.w	r0, #0
 8000f40:	4770      	bx	lr
 8000f42:	ea50 3001 	orrs.w	r0, r0, r1, lsl #12
 8000f46:	d105      	bne.n	8000f54 <__aeabi_d2iz+0x48>
 8000f48:	f011 4000 	ands.w	r0, r1, #2147483648	; 0x80000000
 8000f4c:	bf08      	it	eq
 8000f4e:	f06f 4000 	mvneq.w	r0, #2147483648	; 0x80000000
 8000f52:	4770      	bx	lr
 8000f54:	f04f 0000 	mov.w	r0, #0
 8000f58:	4770      	bx	lr
 8000f5a:	bf00      	nop

08000f5c <get_roll>:
}

float get_roll(){

	return roll;
}
 8000f5c:	4b01      	ldr	r3, [pc, #4]	; (8000f64 <get_roll+0x8>)
 8000f5e:	ed93 0a00 	vldr	s0, [r3]
 8000f62:	4770      	bx	lr
 8000f64:	20000488 	.word	0x20000488

08000f68 <get_pitch>:

float get_pitch(){

	return pitch;
}
 8000f68:	4b01      	ldr	r3, [pc, #4]	; (8000f70 <get_pitch+0x8>)
 8000f6a:	ed93 0a00 	vldr	s0, [r3]
 8000f6e:	4770      	bx	lr
 8000f70:	20000484 	.word	0x20000484

08000f74 <get_yaw>:

float get_yaw(){

	return yaw;
}
 8000f74:	4b01      	ldr	r3, [pc, #4]	; (8000f7c <get_yaw+0x8>)
 8000f76:	ed93 0a00 	vldr	s0, [r3]
 8000f7a:	4770      	bx	lr
 8000f7c:	20000478 	.word	0x20000478

08000f80 <writeByte>:

//===================================================================================================================
//====== Set of useful function to access acceleration, gyroscope, and temperature data
//===================================================================================================================

void writeByte(uint8_t address_tx, uint8_t subAddress, uint8_t data) {
 8000f80:	b500      	push	{lr}
 8000f82:	b085      	sub	sp, #20
	uint8_t data_write[2];
	data_write[0] = subAddress;
 8000f84:	f88d 100c 	strb.w	r1, [sp, #12]
	data_write[1] = data;
 8000f88:	f88d 200d 	strb.w	r2, [sp, #13]
	//i2c.write(address, data_write, 2, 0);


	HAL_I2C_Master_Transmit(&hi2c2, address_tx, data_write, 2, 10);
 8000f8c:	230a      	movs	r3, #10
 8000f8e:	9300      	str	r3, [sp, #0]
 8000f90:	2302      	movs	r3, #2
 8000f92:	aa03      	add	r2, sp, #12
 8000f94:	4601      	mov	r1, r0
 8000f96:	4803      	ldr	r0, [pc, #12]	; (8000fa4 <writeByte+0x24>)
 8000f98:	f003 fb2c 	bl	80045f4 <HAL_I2C_Master_Transmit>
}
 8000f9c:	b005      	add	sp, #20
 8000f9e:	f85d fb04 	ldr.w	pc, [sp], #4
 8000fa2:	bf00      	nop
 8000fa4:	200003f4 	.word	0x200003f4

08000fa8 <readByte>:

//NICK - I've changed these to accept a tx address & a rx address as STM32 boards include the R/W bit at the end of 7 bit adress
//so HAL function takes in 8 bit address including R/W bit
char readByte(uint8_t address_tx, uint8_t address_rx, uint8_t subAddress) {
 8000fa8:	b570      	push	{r4, r5, r6, lr}
 8000faa:	b084      	sub	sp, #16
	uint8_t data[1]; // `data` will store the register data
	uint8_t data_write[1];
	data_write[0] = subAddress;
 8000fac:	a904      	add	r1, sp, #16
 8000fae:	f801 2d08 	strb.w	r2, [r1, #-8]!
	//i2c.write(address, data_write, 1, 1); // no stop
	//i2c.read(address, data, 1, 0);


	HAL_I2C_Master_Transmit(&hi2c2, address_tx, data_write, 1, 10); //Send adress of register ONLY
 8000fb2:	4605      	mov	r5, r0
 8000fb4:	4c09      	ldr	r4, [pc, #36]	; (8000fdc <readByte+0x34>)
 8000fb6:	260a      	movs	r6, #10
 8000fb8:	9600      	str	r6, [sp, #0]
 8000fba:	2301      	movs	r3, #1
 8000fbc:	460a      	mov	r2, r1
 8000fbe:	4601      	mov	r1, r0
 8000fc0:	4620      	mov	r0, r4
 8000fc2:	f003 fb17 	bl	80045f4 <HAL_I2C_Master_Transmit>
	HAL_I2C_Master_Receive(&hi2c2, address_tx, data, 1, 10);
 8000fc6:	9600      	str	r6, [sp, #0]
 8000fc8:	2301      	movs	r3, #1
 8000fca:	aa03      	add	r2, sp, #12
 8000fcc:	4629      	mov	r1, r5
 8000fce:	4620      	mov	r0, r4
 8000fd0:	f003 fbca 	bl	8004768 <HAL_I2C_Master_Receive>

	return data[0];
}
 8000fd4:	f89d 000c 	ldrb.w	r0, [sp, #12]
 8000fd8:	b004      	add	sp, #16
 8000fda:	bd70      	pop	{r4, r5, r6, pc}
 8000fdc:	200003f4 	.word	0x200003f4

08000fe0 <imu_init>:
IMU_StatusTypeDef imu_init(I2C_HandleTypeDef* handle) {
 8000fe0:	b510      	push	{r4, lr}
 8000fe2:	4604      	mov	r4, r0
	printf("STM32 Online..\r\n");
 8000fe4:	480f      	ldr	r0, [pc, #60]	; (8001024 <imu_init+0x44>)
 8000fe6:	f006 ffef 	bl	8007fc8 <puts>
	if (HAL_I2C_IsDeviceReady(handle, 0xD0, 2, 100) == HAL_OK) {
 8000fea:	2364      	movs	r3, #100	; 0x64
 8000fec:	2202      	movs	r2, #2
 8000fee:	21d0      	movs	r1, #208	; 0xd0
 8000ff0:	4620      	mov	r0, r4
 8000ff2:	f003 fd21 	bl	8004a38 <HAL_I2C_IsDeviceReady>
 8000ff6:	b100      	cbz	r0, 8000ffa <imu_init+0x1a>
 8000ff8:	e7fe      	b.n	8000ff8 <imu_init+0x18>
		HAL_GPIO_TogglePin(GPIOA, GPIO_PIN_5); //Toggle LED on if so
 8000ffa:	2120      	movs	r1, #32
 8000ffc:	480a      	ldr	r0, [pc, #40]	; (8001028 <imu_init+0x48>)
 8000ffe:	f003 f80d 	bl	800401c <HAL_GPIO_TogglePin>
	uint8_t whoami = readByte(MPU9250_ADDRESS_TX, MPU9250_ADDRESS_RX,
 8001002:	2275      	movs	r2, #117	; 0x75
 8001004:	21d1      	movs	r1, #209	; 0xd1
 8001006:	20d0      	movs	r0, #208	; 0xd0
 8001008:	f7ff ffce 	bl	8000fa8 <readByte>
 800100c:	4604      	mov	r4, r0
	if (whoami == 0x71) {
 800100e:	2871      	cmp	r0, #113	; 0x71
 8001010:	d106      	bne.n	8001020 <imu_init+0x40>
		printf("MPU9250 online..\r\n");
 8001012:	4806      	ldr	r0, [pc, #24]	; (800102c <imu_init+0x4c>)
 8001014:	f006 ffd8 	bl	8007fc8 <puts>
		printf("whoami reg = %d ..\r\n", whoami);
 8001018:	4621      	mov	r1, r4
 800101a:	4805      	ldr	r0, [pc, #20]	; (8001030 <imu_init+0x50>)
 800101c:	f006 ff60 	bl	8007ee0 <iprintf>
}
 8001020:	2000      	movs	r0, #0
 8001022:	bd10      	pop	{r4, pc}
 8001024:	0800be4c 	.word	0x0800be4c
 8001028:	40020000 	.word	0x40020000
 800102c:	0800be5c 	.word	0x0800be5c
 8001030:	0800be70 	.word	0x0800be70

08001034 <readBytes>:

void readBytes(uint8_t address_tx, uint8_t address_rx, uint8_t subAddress,
	uint8_t count, uint8_t * dest) {
 8001034:	e92d 41f0 	stmdb	sp!, {r4, r5, r6, r7, r8, lr}
 8001038:	b088      	sub	sp, #32
 800103a:	4688      	mov	r8, r1
 800103c:	461c      	mov	r4, r3
 800103e:	9d0e      	ldr	r5, [sp, #56]	; 0x38
	uint8_t data[14];
	uint8_t data_write[1];
	data_write[0] = subAddress;
 8001040:	a908      	add	r1, sp, #32
 8001042:	f801 2d14 	strb.w	r2, [r1, #-20]!
	//i2c.write(address, data_write, 1, 1); // no stop
	//i2c.read(address, data, count, 0);


	HAL_I2C_Master_Transmit(&hi2c2, address_tx, data_write, 1, 10);
 8001046:	4e0e      	ldr	r6, [pc, #56]	; (8001080 <readBytes+0x4c>)
 8001048:	270a      	movs	r7, #10
 800104a:	9700      	str	r7, [sp, #0]
 800104c:	2301      	movs	r3, #1
 800104e:	460a      	mov	r2, r1
 8001050:	4601      	mov	r1, r0
 8001052:	4630      	mov	r0, r6
 8001054:	f003 face 	bl	80045f4 <HAL_I2C_Master_Transmit>
	HAL_I2C_Master_Receive(&hi2c2, address_rx, data, count, 10);
 8001058:	9700      	str	r7, [sp, #0]
 800105a:	4623      	mov	r3, r4
 800105c:	aa04      	add	r2, sp, #16
 800105e:	4641      	mov	r1, r8
 8001060:	4630      	mov	r0, r6
 8001062:	f003 fb81 	bl	8004768 <HAL_I2C_Master_Receive>

	for (int ii = 0; ii < count; ii++) {
 8001066:	2300      	movs	r3, #0
 8001068:	e005      	b.n	8001076 <readBytes+0x42>
		dest[ii] = data[ii];
 800106a:	aa08      	add	r2, sp, #32
 800106c:	441a      	add	r2, r3
 800106e:	f812 2c10 	ldrb.w	r2, [r2, #-16]
 8001072:	54ea      	strb	r2, [r5, r3]
	for (int ii = 0; ii < count; ii++) {
 8001074:	3301      	adds	r3, #1
 8001076:	429c      	cmp	r4, r3
 8001078:	dcf7      	bgt.n	800106a <readBytes+0x36>
	}
}
 800107a:	b008      	add	sp, #32
 800107c:	e8bd 81f0 	ldmia.w	sp!, {r4, r5, r6, r7, r8, pc}
 8001080:	200003f4 	.word	0x200003f4

08001084 <getMres>:

void getMres() {

	switch (Mscale) {
 8001084:	4b06      	ldr	r3, [pc, #24]	; (80010a0 <getMres+0x1c>)
 8001086:	781b      	ldrb	r3, [r3, #0]
 8001088:	b113      	cbz	r3, 8001090 <getMres+0xc>
 800108a:	2b01      	cmp	r3, #1
 800108c:	d004      	beq.n	8001098 <getMres+0x14>
 800108e:	4770      	bx	lr
	// Possible magnetometer scales (and their register bit settings) are:
	// 14 bit resolution (0) and 16 bit resolution (1)
	case MFS_14BITS:
		mRes = 10.0 * 4219.0 / 8190.0; // Proper scale to return milliGauss
 8001090:	4b04      	ldr	r3, [pc, #16]	; (80010a4 <getMres+0x20>)
 8001092:	4a05      	ldr	r2, [pc, #20]	; (80010a8 <getMres+0x24>)
 8001094:	601a      	str	r2, [r3, #0]
		break;
 8001096:	4770      	bx	lr
	case MFS_16BITS:
		mRes = 10.0 * 4219.0 / 32760.0; // Proper scale to return milliGauss
 8001098:	4b02      	ldr	r3, [pc, #8]	; (80010a4 <getMres+0x20>)
 800109a:	4a04      	ldr	r2, [pc, #16]	; (80010ac <getMres+0x28>)
 800109c:	601a      	str	r2, [r3, #0]
		break;
	}
}
 800109e:	4770      	bx	lr
 80010a0:	20000001 	.word	0x20000001
 80010a4:	2000048c 	.word	0x2000048c
 80010a8:	40a4d84e 	.word	0x40a4d84e
 80010ac:	3fa4d84e 	.word	0x3fa4d84e

080010b0 <getGres>:

void getGres() {
	switch (Gscale) {
 80010b0:	4b0b      	ldr	r3, [pc, #44]	; (80010e0 <getGres+0x30>)
 80010b2:	781b      	ldrb	r3, [r3, #0]
 80010b4:	2b03      	cmp	r3, #3
 80010b6:	d812      	bhi.n	80010de <getGres+0x2e>
 80010b8:	e8df f003 	tbb	[pc, r3]
 80010bc:	0e0a0602 	.word	0x0e0a0602
	// Possible gyro scales (and their register bit settings) are:
	// 250 DPS (00), 500 DPS (01), 1000 DPS (10), and 2000 DPS  (11).
	// Here's a bit of an algorith to calculate DPS/(ADC tick) based on that 2-bit value:
	case GFS_250DPS:
		gRes = 250.0 / 32768.0;
 80010c0:	4b08      	ldr	r3, [pc, #32]	; (80010e4 <getGres+0x34>)
 80010c2:	4a09      	ldr	r2, [pc, #36]	; (80010e8 <getGres+0x38>)
 80010c4:	601a      	str	r2, [r3, #0]
		break;
 80010c6:	4770      	bx	lr
	case GFS_500DPS:
		gRes = 500.0 / 32768.0;
 80010c8:	4b06      	ldr	r3, [pc, #24]	; (80010e4 <getGres+0x34>)
 80010ca:	4a08      	ldr	r2, [pc, #32]	; (80010ec <getGres+0x3c>)
 80010cc:	601a      	str	r2, [r3, #0]
		break;
 80010ce:	4770      	bx	lr
	case GFS_1000DPS:
		gRes = 1000.0 / 32768.0;
 80010d0:	4b04      	ldr	r3, [pc, #16]	; (80010e4 <getGres+0x34>)
 80010d2:	4a07      	ldr	r2, [pc, #28]	; (80010f0 <getGres+0x40>)
 80010d4:	601a      	str	r2, [r3, #0]
		break;
 80010d6:	4770      	bx	lr
	case GFS_2000DPS:
		gRes = 2000.0 / 32768.0;
 80010d8:	4b02      	ldr	r3, [pc, #8]	; (80010e4 <getGres+0x34>)
 80010da:	4a06      	ldr	r2, [pc, #24]	; (80010f4 <getGres+0x44>)
 80010dc:	601a      	str	r2, [r3, #0]
		break;
	}
}
 80010de:	4770      	bx	lr
 80010e0:	20000285 	.word	0x20000285
 80010e4:	20000470 	.word	0x20000470
 80010e8:	3bfa0000 	.word	0x3bfa0000
 80010ec:	3c7a0000 	.word	0x3c7a0000
 80010f0:	3cfa0000 	.word	0x3cfa0000
 80010f4:	3d7a0000 	.word	0x3d7a0000

080010f8 <getAres>:

void getAres() {
	switch (Ascale) {
 80010f8:	4b0d      	ldr	r3, [pc, #52]	; (8001130 <getAres+0x38>)
 80010fa:	781b      	ldrb	r3, [r3, #0]
 80010fc:	2b03      	cmp	r3, #3
 80010fe:	d816      	bhi.n	800112e <getAres+0x36>
 8001100:	e8df f003 	tbb	[pc, r3]
 8001104:	110c0702 	.word	0x110c0702
	// Possible accelerometer scales (and their register bit settings) are:
	// 2 Gs (00), 4 Gs (01), 8 Gs (10), and 16 Gs  (11).
	// Here's a bit of an algorith to calculate DPS/(ADC tick) based on that 2-bit value:
	case AFS_2G:
		aRes = 2.0 / 32768.0;
 8001108:	4b0a      	ldr	r3, [pc, #40]	; (8001134 <getAres+0x3c>)
 800110a:	f04f 5262 	mov.w	r2, #947912704	; 0x38800000
 800110e:	601a      	str	r2, [r3, #0]
		break;
 8001110:	4770      	bx	lr
	case AFS_4G:
		aRes = 4.0 / 32768.0;
 8001112:	4b08      	ldr	r3, [pc, #32]	; (8001134 <getAres+0x3c>)
 8001114:	f04f 5264 	mov.w	r2, #956301312	; 0x39000000
 8001118:	601a      	str	r2, [r3, #0]
		break;
 800111a:	4770      	bx	lr
	case AFS_8G:
		aRes = 8.0 / 32768.0;
 800111c:	4b05      	ldr	r3, [pc, #20]	; (8001134 <getAres+0x3c>)
 800111e:	f04f 5266 	mov.w	r2, #964689920	; 0x39800000
 8001122:	601a      	str	r2, [r3, #0]
		break;
 8001124:	4770      	bx	lr
	case AFS_16G:
		aRes = 16.0 / 32768.0;
 8001126:	4b03      	ldr	r3, [pc, #12]	; (8001134 <getAres+0x3c>)
 8001128:	f04f 5268 	mov.w	r2, #973078528	; 0x3a000000
 800112c:	601a      	str	r2, [r3, #0]
		break;
	}
}
 800112e:	4770      	bx	lr
 8001130:	20000284 	.word	0x20000284
 8001134:	20000464 	.word	0x20000464

08001138 <readAccelData>:

void readAccelData(int16_t * destination) {
 8001138:	b510      	push	{r4, lr}
 800113a:	b084      	sub	sp, #16
 800113c:	4604      	mov	r4, r0
	uint8_t rawData[6];  // x/y/z accel register data stored here
	readBytes(MPU9250_ADDRESS_TX, MPU9250_ADDRESS_RX, ACCEL_XOUT_H, 6,
 800113e:	ab02      	add	r3, sp, #8
 8001140:	9300      	str	r3, [sp, #0]
 8001142:	2306      	movs	r3, #6
 8001144:	223b      	movs	r2, #59	; 0x3b
 8001146:	21d1      	movs	r1, #209	; 0xd1
 8001148:	20d0      	movs	r0, #208	; 0xd0
 800114a:	f7ff ff73 	bl	8001034 <readBytes>
			&rawData[0]); // Read the six raw data registers into data array
	destination[0] = (int16_t) (((int16_t) rawData[0] << 8) | rawData[1]); // Turn the MSB and LSB into a signed 16-bit value
 800114e:	f89d 2008 	ldrb.w	r2, [sp, #8]
 8001152:	f89d 3009 	ldrb.w	r3, [sp, #9]
 8001156:	ea43 2302 	orr.w	r3, r3, r2, lsl #8
 800115a:	8023      	strh	r3, [r4, #0]
	destination[1] = (int16_t) (((int16_t) rawData[2] << 8) | rawData[3]);
 800115c:	f89d 200a 	ldrb.w	r2, [sp, #10]
 8001160:	f89d 300b 	ldrb.w	r3, [sp, #11]
 8001164:	ea43 2302 	orr.w	r3, r3, r2, lsl #8
 8001168:	8063      	strh	r3, [r4, #2]
	destination[2] = (int16_t) (((int16_t) rawData[4] << 8) | rawData[5]);
 800116a:	f89d 200c 	ldrb.w	r2, [sp, #12]
 800116e:	f89d 300d 	ldrb.w	r3, [sp, #13]
 8001172:	ea43 2302 	orr.w	r3, r3, r2, lsl #8
 8001176:	80a3      	strh	r3, [r4, #4]
}
 8001178:	b004      	add	sp, #16
 800117a:	bd10      	pop	{r4, pc}

0800117c <readGyroData>:

void readGyroData(int16_t * destination) {
 800117c:	b510      	push	{r4, lr}
 800117e:	b084      	sub	sp, #16
 8001180:	4604      	mov	r4, r0
	uint8_t rawData[6];  // x/y/z gyro register data stored here
	readBytes(MPU9250_ADDRESS_TX, MPU9250_ADDRESS_RX, GYRO_XOUT_H, 6,
 8001182:	ab02      	add	r3, sp, #8
 8001184:	9300      	str	r3, [sp, #0]
 8001186:	2306      	movs	r3, #6
 8001188:	2243      	movs	r2, #67	; 0x43
 800118a:	21d1      	movs	r1, #209	; 0xd1
 800118c:	20d0      	movs	r0, #208	; 0xd0
 800118e:	f7ff ff51 	bl	8001034 <readBytes>
			&rawData[0]); // Read the six raw data registers sequentially into data array
	destination[0] = (int16_t) (((int16_t) rawData[0] << 8) | rawData[1]); // Turn the MSB and LSB into a signed 16-bit value
 8001192:	f89d 2008 	ldrb.w	r2, [sp, #8]
 8001196:	f89d 3009 	ldrb.w	r3, [sp, #9]
 800119a:	ea43 2302 	orr.w	r3, r3, r2, lsl #8
 800119e:	8023      	strh	r3, [r4, #0]
	destination[1] = (int16_t) (((int16_t) rawData[2] << 8) | rawData[3]);
 80011a0:	f89d 200a 	ldrb.w	r2, [sp, #10]
 80011a4:	f89d 300b 	ldrb.w	r3, [sp, #11]
 80011a8:	ea43 2302 	orr.w	r3, r3, r2, lsl #8
 80011ac:	8063      	strh	r3, [r4, #2]
	destination[2] = (int16_t) (((int16_t) rawData[4] << 8) | rawData[5]);
 80011ae:	f89d 200c 	ldrb.w	r2, [sp, #12]
 80011b2:	f89d 300d 	ldrb.w	r3, [sp, #13]
 80011b6:	ea43 2302 	orr.w	r3, r3, r2, lsl #8
 80011ba:	80a3      	strh	r3, [r4, #4]
}
 80011bc:	b004      	add	sp, #16
 80011be:	bd10      	pop	{r4, pc}

080011c0 <readMagData>:

void readMagData(int16_t * destination) {
 80011c0:	b510      	push	{r4, lr}
 80011c2:	b084      	sub	sp, #16
 80011c4:	4604      	mov	r4, r0
	uint8_t rawData[7]; // x/y/z gyro register data, ST2 register stored here, must read ST2 at end of data acquisition
	//if (readByte(AK8963_ADDRESS_TX, AK8963_ADDRESS_RX, AK8963_ST1) & 0x01) { // wait for magnetometer data ready bit to be set

		readBytes(AK8963_ADDRESS_TX, AK8963_ADDRESS_RX, AK8963_XOUT_L, 7, &rawData[0]); // Read the six raw data and ST2 registers sequentially into data array
 80011c6:	ab02      	add	r3, sp, #8
 80011c8:	9300      	str	r3, [sp, #0]
 80011ca:	2307      	movs	r3, #7
 80011cc:	2203      	movs	r2, #3
 80011ce:	2119      	movs	r1, #25
 80011d0:	2018      	movs	r0, #24
 80011d2:	f7ff ff2f 	bl	8001034 <readBytes>
		uint8_t c = rawData[6]; // End data read by reading ST2 register
 80011d6:	f89d 300e 	ldrb.w	r3, [sp, #14]
		if (!(c & 0x08)) { // Check if magnetic sensor overflow set, if not then report data
 80011da:	f013 0f08 	tst.w	r3, #8
 80011de:	d114      	bne.n	800120a <readMagData+0x4a>
			destination[0] =
					(int16_t) (((int16_t) rawData[1] << 8) | rawData[0]); // Turn the MSB and LSB into a signed 16-bit value
 80011e0:	f89d 2009 	ldrb.w	r2, [sp, #9]
 80011e4:	f89d 3008 	ldrb.w	r3, [sp, #8]
 80011e8:	ea43 2302 	orr.w	r3, r3, r2, lsl #8
			destination[0] =
 80011ec:	8023      	strh	r3, [r4, #0]
			destination[1] =
					(int16_t) (((int16_t) rawData[3] << 8) | rawData[2]); // Data stored as little Endian
 80011ee:	f89d 200b 	ldrb.w	r2, [sp, #11]
 80011f2:	f89d 300a 	ldrb.w	r3, [sp, #10]
 80011f6:	ea43 2302 	orr.w	r3, r3, r2, lsl #8
			destination[1] =
 80011fa:	8063      	strh	r3, [r4, #2]
			destination[2] =
					(int16_t) (((int16_t) rawData[5] << 8) | rawData[4]);
 80011fc:	f89d 200d 	ldrb.w	r2, [sp, #13]
 8001200:	f89d 300c 	ldrb.w	r3, [sp, #12]
 8001204:	ea43 2302 	orr.w	r3, r3, r2, lsl #8
			destination[2] =
 8001208:	80a3      	strh	r3, [r4, #4]
		}
	//}
}
 800120a:	b004      	add	sp, #16
 800120c:	bd10      	pop	{r4, pc}

0800120e <resetMPU9250>:
	readBytes(MPU9250_ADDRESS_TX, MPU9250_ADDRESS_RX, TEMP_OUT_H, 2,
			&rawData[0]); // Read the two raw data registers sequentially into data array
	return (int16_t) (((int16_t) rawData[0]) << 8 | rawData[1]); // Turn the MSB and LSB into a 16-bit value
}

void resetMPU9250() {
 800120e:	b508      	push	{r3, lr}
	// reset device
	writeByte(MPU9250_ADDRESS_TX, PWR_MGMT_1, 0x80); // Write a one to bit 7 reset bit; toggle reset device
 8001210:	2280      	movs	r2, #128	; 0x80
 8001212:	216b      	movs	r1, #107	; 0x6b
 8001214:	20d0      	movs	r0, #208	; 0xd0
 8001216:	f7ff feb3 	bl	8000f80 <writeByte>
	HAL_Delay(100);
 800121a:	2064      	movs	r0, #100	; 0x64
 800121c:	f002 fa42 	bl	80036a4 <HAL_Delay>
}
 8001220:	bd08      	pop	{r3, pc}
	...

08001224 <initAK8963>:

void initAK8963(float * destination) {
 8001224:	b510      	push	{r4, lr}
 8001226:	b084      	sub	sp, #16
 8001228:	4604      	mov	r4, r0
	// First extract the factory calibration for each magnetometer axis
	uint8_t rawData[3];  // x/y/z gyro calibration data stored here
	writeByte(AK8963_ADDRESS_TX, AK8963_CNTL, 0x00); // Power down magnetometer
 800122a:	2200      	movs	r2, #0
 800122c:	210a      	movs	r1, #10
 800122e:	2018      	movs	r0, #24
 8001230:	f7ff fea6 	bl	8000f80 <writeByte>
	HAL_Delay(10);
 8001234:	200a      	movs	r0, #10
 8001236:	f002 fa35 	bl	80036a4 <HAL_Delay>
	writeByte(AK8963_ADDRESS_TX, AK8963_CNTL, 0x0F); // Enter Fuse ROM access mode
 800123a:	220f      	movs	r2, #15
 800123c:	210a      	movs	r1, #10
 800123e:	2018      	movs	r0, #24
 8001240:	f7ff fe9e 	bl	8000f80 <writeByte>
	HAL_Delay(10);
 8001244:	200a      	movs	r0, #10
 8001246:	f002 fa2d 	bl	80036a4 <HAL_Delay>
	readBytes(AK8963_ADDRESS_TX, AK8963_ADDRESS_RX, AK8963_ASAX, 3,
 800124a:	ab03      	add	r3, sp, #12
 800124c:	9300      	str	r3, [sp, #0]
 800124e:	2303      	movs	r3, #3
 8001250:	2210      	movs	r2, #16
 8001252:	2119      	movs	r1, #25
 8001254:	2018      	movs	r0, #24
 8001256:	f7ff feed 	bl	8001034 <readBytes>
			&rawData[0]);  // Read the x-, y-, and z-axis calibration values
	destination[0] = (float) (rawData[0] - 128) / 256.0f + 1.0f; // Return x-axis sensitivity adjustment values, etc.
 800125a:	f89d 300c 	ldrb.w	r3, [sp, #12]
 800125e:	3b80      	subs	r3, #128	; 0x80
 8001260:	ee07 3a10 	vmov	s14, r3
 8001264:	eeb8 7ac7 	vcvt.f32.s32	s14, s14
 8001268:	ed9f 6a1d 	vldr	s12, [pc, #116]	; 80012e0 <initAK8963+0xbc>
 800126c:	ee27 7a06 	vmul.f32	s14, s14, s12
 8001270:	eef7 6a00 	vmov.f32	s13, #112	; 0x3f800000  1.0
 8001274:	ee37 7a26 	vadd.f32	s14, s14, s13
 8001278:	ed84 7a00 	vstr	s14, [r4]
	destination[1] = (float) (rawData[1] - 128) / 256.0f + 1.0f;
 800127c:	f89d 300d 	ldrb.w	r3, [sp, #13]
 8001280:	3b80      	subs	r3, #128	; 0x80
 8001282:	ee07 3a10 	vmov	s14, r3
 8001286:	eeb8 7ac7 	vcvt.f32.s32	s14, s14
 800128a:	ee27 7a06 	vmul.f32	s14, s14, s12
 800128e:	ee37 7a26 	vadd.f32	s14, s14, s13
 8001292:	ed84 7a01 	vstr	s14, [r4, #4]
	destination[2] = (float) (rawData[2] - 128) / 256.0f + 1.0f;
 8001296:	f89d 300e 	ldrb.w	r3, [sp, #14]
 800129a:	3b80      	subs	r3, #128	; 0x80
 800129c:	ee07 3a90 	vmov	s15, r3
 80012a0:	eef8 7ae7 	vcvt.f32.s32	s15, s15
 80012a4:	ee67 7a86 	vmul.f32	s15, s15, s12
 80012a8:	ee77 7aa6 	vadd.f32	s15, s15, s13
 80012ac:	edc4 7a02 	vstr	s15, [r4, #8]
	writeByte(AK8963_ADDRESS_TX, AK8963_CNTL, 0x00); // Power down magnetometer
 80012b0:	2200      	movs	r2, #0
 80012b2:	210a      	movs	r1, #10
 80012b4:	2018      	movs	r0, #24
 80012b6:	f7ff fe63 	bl	8000f80 <writeByte>
	HAL_Delay(10);
 80012ba:	200a      	movs	r0, #10
 80012bc:	f002 f9f2 	bl	80036a4 <HAL_Delay>
	// Configure the magnetometer for continuous read and highest resolution
	// set Mscale bit 4 to 1 (0) to enable 16 (14) bit resolution in CNTL register,
	// and enable continuous mode data acquisition Mmode (bits [3:0]), 0010 for 8 Hz and 0110 for 100 Hz sample rates
	writeByte(AK8963_ADDRESS_TX, AK8963_CNTL, Mscale << 4 | Mmode); // Set magnetometer data resolution and sample ODR
 80012c0:	4b08      	ldr	r3, [pc, #32]	; (80012e4 <initAK8963+0xc0>)
 80012c2:	781b      	ldrb	r3, [r3, #0]
 80012c4:	4a08      	ldr	r2, [pc, #32]	; (80012e8 <initAK8963+0xc4>)
 80012c6:	7812      	ldrb	r2, [r2, #0]
 80012c8:	ea42 1203 	orr.w	r2, r2, r3, lsl #4
 80012cc:	b2d2      	uxtb	r2, r2
 80012ce:	210a      	movs	r1, #10
 80012d0:	2018      	movs	r0, #24
 80012d2:	f7ff fe55 	bl	8000f80 <writeByte>
	HAL_Delay(10);
 80012d6:	200a      	movs	r0, #10
 80012d8:	f002 f9e4 	bl	80036a4 <HAL_Delay>
}
 80012dc:	b004      	add	sp, #16
 80012de:	bd10      	pop	{r4, pc}
 80012e0:	3b800000 	.word	0x3b800000
 80012e4:	20000001 	.word	0x20000001
 80012e8:	20000000 	.word	0x20000000

080012ec <initMPU9250>:

void initMPU9250() {
 80012ec:	b510      	push	{r4, lr}
	// Initialize MPU9250 device
	// wake up device
	writeByte(MPU9250_ADDRESS_TX, PWR_MGMT_1, 0x00); // Clear sleep mode bit (6), enable all sensors
 80012ee:	2200      	movs	r2, #0
 80012f0:	216b      	movs	r1, #107	; 0x6b
 80012f2:	20d0      	movs	r0, #208	; 0xd0
 80012f4:	f7ff fe44 	bl	8000f80 <writeByte>
	HAL_Delay(100); // Delay 100 ms for PLL to get established on x-axis gyro; should check for PLL ready interrupt
 80012f8:	2064      	movs	r0, #100	; 0x64
 80012fa:	f002 f9d3 	bl	80036a4 <HAL_Delay>

	// get stable time source
	writeByte(MPU9250_ADDRESS_TX, PWR_MGMT_1, 0x01); // Set clock source to be PLL with x-axis gyroscope reference, bits 2:0 = 001
 80012fe:	2201      	movs	r2, #1
 8001300:	216b      	movs	r1, #107	; 0x6b
 8001302:	20d0      	movs	r0, #208	; 0xd0
 8001304:	f7ff fe3c 	bl	8000f80 <writeByte>

	// Configure Gyro and Accelerometer
	// Disable FSYNC and set accelerometer and gyro bandwidth to 44 and 42 Hz, respectively;
	// DLPF_CFG = bits 2:0 = 010 = 0x03; this sets the sample rate at 1 kHz for both
	// Maximum delay is 4.9 ms which is just over a 200 Hz maximum rate
	writeByte(MPU9250_ADDRESS_TX, CONFIG, 0x00);
 8001308:	2200      	movs	r2, #0
 800130a:	211a      	movs	r1, #26
 800130c:	20d0      	movs	r0, #208	; 0xd0
 800130e:	f7ff fe37 	bl	8000f80 <writeByte>

	// Set sample rate = gyroscope output rate/(1 + SMPLRT_DIV)
	writeByte(MPU9250_ADDRESS_TX, SMPLRT_DIV, 0x00); // Use a 200 Hz rate; the same rate set in CONFIG above
 8001312:	2200      	movs	r2, #0
 8001314:	2119      	movs	r1, #25
 8001316:	20d0      	movs	r0, #208	; 0xd0
 8001318:	f7ff fe32 	bl	8000f80 <writeByte>

	// Set gyroscope full scale range
	// Range selects FS_SEL and AFS_SEL are 0 - 3, so 2-bit values are left-shifted into positions 4:3
	uint8_t c = readByte(MPU9250_ADDRESS_RX, MPU9250_ADDRESS_RX,
 800131c:	221b      	movs	r2, #27
 800131e:	21d1      	movs	r1, #209	; 0xd1
 8001320:	4608      	mov	r0, r1
 8001322:	f7ff fe41 	bl	8000fa8 <readByte>
 8001326:	4604      	mov	r4, r0
	GYRO_CONFIG);
	writeByte(MPU9250_ADDRESS_TX, GYRO_CONFIG, c & ~0xE0); // Clear self-test bits [7:5]
 8001328:	f000 021f 	and.w	r2, r0, #31
 800132c:	211b      	movs	r1, #27
 800132e:	20d0      	movs	r0, #208	; 0xd0
 8001330:	f7ff fe26 	bl	8000f80 <writeByte>
	writeByte(MPU9250_ADDRESS_TX, GYRO_CONFIG, c & ~0x18); // Clear AFS bits [4:3]
 8001334:	f004 02e7 	and.w	r2, r4, #231	; 0xe7
 8001338:	211b      	movs	r1, #27
 800133a:	20d0      	movs	r0, #208	; 0xd0
 800133c:	f7ff fe20 	bl	8000f80 <writeByte>
	writeByte(MPU9250_ADDRESS_TX, GYRO_CONFIG, c | Gscale << 3); // Set full scale range for the gyro
 8001340:	4b20      	ldr	r3, [pc, #128]	; (80013c4 <initMPU9250+0xd8>)
 8001342:	781a      	ldrb	r2, [r3, #0]
 8001344:	ea44 02c2 	orr.w	r2, r4, r2, lsl #3
 8001348:	b2d2      	uxtb	r2, r2
 800134a:	211b      	movs	r1, #27
 800134c:	20d0      	movs	r0, #208	; 0xd0
 800134e:	f7ff fe17 	bl	8000f80 <writeByte>

	// Set accelerometer configuration
	c = readByte(MPU9250_ADDRESS_RX, MPU9250_ADDRESS_RX, ACCEL_CONFIG);
 8001352:	221c      	movs	r2, #28
 8001354:	21d1      	movs	r1, #209	; 0xd1
 8001356:	4608      	mov	r0, r1
 8001358:	f7ff fe26 	bl	8000fa8 <readByte>
 800135c:	4604      	mov	r4, r0
	writeByte(MPU9250_ADDRESS_TX, ACCEL_CONFIG, c & ~0xE0); // Clear self-test bits [7:5]
 800135e:	f000 021f 	and.w	r2, r0, #31
 8001362:	211c      	movs	r1, #28
 8001364:	20d0      	movs	r0, #208	; 0xd0
 8001366:	f7ff fe0b 	bl	8000f80 <writeByte>
	writeByte(MPU9250_ADDRESS_TX, ACCEL_CONFIG, c & ~0x18); // Clear AFS bits [4:3]
 800136a:	f004 02e7 	and.w	r2, r4, #231	; 0xe7
 800136e:	211c      	movs	r1, #28
 8001370:	20d0      	movs	r0, #208	; 0xd0
 8001372:	f7ff fe05 	bl	8000f80 <writeByte>
	writeByte(MPU9250_ADDRESS_TX, ACCEL_CONFIG, c | Ascale << 3); // Set full scale range for the accelerometer
 8001376:	4b14      	ldr	r3, [pc, #80]	; (80013c8 <initMPU9250+0xdc>)
 8001378:	781a      	ldrb	r2, [r3, #0]
 800137a:	ea44 02c2 	orr.w	r2, r4, r2, lsl #3
 800137e:	b2d2      	uxtb	r2, r2
 8001380:	211c      	movs	r1, #28
 8001382:	20d0      	movs	r0, #208	; 0xd0
 8001384:	f7ff fdfc 	bl	8000f80 <writeByte>

	// Set accelerometer sample rate configuration
	// It is possible to get a 4 kHz sample rate from the accelerometer by choosing 1 for
	// accel_fchoice_b bit [3]; in this case the bandwidth is 1.13 kHz
	c = readByte(MPU9250_ADDRESS_RX, MPU9250_ADDRESS_RX, ACCEL_CONFIG2);
 8001388:	221d      	movs	r2, #29
 800138a:	21d1      	movs	r1, #209	; 0xd1
 800138c:	4608      	mov	r0, r1
 800138e:	f7ff fe0b 	bl	8000fa8 <readByte>
 8001392:	4604      	mov	r4, r0
	writeByte(MPU9250_ADDRESS_TX, ACCEL_CONFIG2, c & ~0x0F); // Clear accel_fchoice_b (bit 3) and A_DLPFG (bits [2:0])
 8001394:	f000 02f0 	and.w	r2, r0, #240	; 0xf0
 8001398:	211d      	movs	r1, #29
 800139a:	20d0      	movs	r0, #208	; 0xd0
 800139c:	f7ff fdf0 	bl	8000f80 <writeByte>
	writeByte(MPU9250_ADDRESS_TX, ACCEL_CONFIG2, c | 0x03); // Set accelerometer rate to 1 kHz and bandwidth to 41 Hz
 80013a0:	f044 0203 	orr.w	r2, r4, #3
 80013a4:	b2d2      	uxtb	r2, r2
 80013a6:	211d      	movs	r1, #29
 80013a8:	20d0      	movs	r0, #208	; 0xd0
 80013aa:	f7ff fde9 	bl	8000f80 <writeByte>
	// but all these rates are further reduced by a factor of 5 to 200 Hz because of the SMPLRT_DIV setting

	// Configure Interrupts and Bypass Enable
	// Set interrupt pin active high, push-pull, and clear on read of INT_STATUS, enable I2C_BYPASS_EN so additional chips
	// can join the I2C bus and all can be controlled by the Arduino as master
	writeByte(MPU9250_ADDRESS_TX, INT_PIN_CFG, 0x22);
 80013ae:	2222      	movs	r2, #34	; 0x22
 80013b0:	2137      	movs	r1, #55	; 0x37
 80013b2:	20d0      	movs	r0, #208	; 0xd0
 80013b4:	f7ff fde4 	bl	8000f80 <writeByte>
	writeByte(MPU9250_ADDRESS_TX, INT_ENABLE, 0x01); // Enable data ready (bit 0) interrupt
 80013b8:	2201      	movs	r2, #1
 80013ba:	2138      	movs	r1, #56	; 0x38
 80013bc:	20d0      	movs	r0, #208	; 0xd0
 80013be:	f7ff fddf 	bl	8000f80 <writeByte>
}
 80013c2:	bd10      	pop	{r4, pc}
 80013c4:	20000285 	.word	0x20000285
 80013c8:	20000284 	.word	0x20000284

080013cc <calibrateMPU9250>:

// Function which accumulates gyro and accelerometer data after device initialization. It calculates the average
// of the at-rest readings and then loads the resulting offsets into accelerometer and gyro bias registers.
void calibrateMPU9250(float * dest1, float * dest2) {
 80013cc:	e92d 41f0 	stmdb	sp!, {r4, r5, r6, r7, r8, lr}
 80013d0:	b08c      	sub	sp, #48	; 0x30
 80013d2:	4607      	mov	r7, r0
 80013d4:	460e      	mov	r6, r1
	uint8_t data[12]; // data array to hold accelerometer and gyro x, y, z, data
	uint16_t ii, packet_count, fifo_count;
	int32_t gyro_bias[3] = { 0, 0, 0 }, accel_bias[3] = { 0, 0, 0 };
 80013d6:	2400      	movs	r4, #0
 80013d8:	9406      	str	r4, [sp, #24]
 80013da:	9407      	str	r4, [sp, #28]
 80013dc:	9408      	str	r4, [sp, #32]
 80013de:	9403      	str	r4, [sp, #12]
 80013e0:	9404      	str	r4, [sp, #16]
 80013e2:	9405      	str	r4, [sp, #20]

	// reset device, reset all registers, clear gyro and accelerometer bias registers
	writeByte(MPU9250_ADDRESS_TX, PWR_MGMT_1, 0x80); // Write a one to bit 7 reset bit; toggle reset device
 80013e4:	2280      	movs	r2, #128	; 0x80
 80013e6:	216b      	movs	r1, #107	; 0x6b
 80013e8:	20d0      	movs	r0, #208	; 0xd0
 80013ea:	f7ff fdc9 	bl	8000f80 <writeByte>
	HAL_Delay(100);
 80013ee:	2064      	movs	r0, #100	; 0x64
 80013f0:	f002 f958 	bl	80036a4 <HAL_Delay>

	// get stable time source
	// Set clock source to be PLL with x-axis gyroscope reference, bits 2:0 = 001
	writeByte(MPU9250_ADDRESS_TX, PWR_MGMT_1, 0x01);
 80013f4:	2201      	movs	r2, #1
 80013f6:	216b      	movs	r1, #107	; 0x6b
 80013f8:	20d0      	movs	r0, #208	; 0xd0
 80013fa:	f7ff fdc1 	bl	8000f80 <writeByte>
	writeByte(MPU9250_ADDRESS_TX, PWR_MGMT_2, 0x00);
 80013fe:	4622      	mov	r2, r4
 8001400:	216c      	movs	r1, #108	; 0x6c
 8001402:	20d0      	movs	r0, #208	; 0xd0
 8001404:	f7ff fdbc 	bl	8000f80 <writeByte>
	HAL_Delay(200);
 8001408:	20c8      	movs	r0, #200	; 0xc8
 800140a:	f002 f94b 	bl	80036a4 <HAL_Delay>

	// Configure device for bias calculation
	writeByte(MPU9250_ADDRESS_TX, INT_ENABLE, 0x00); // Disable all interrupts
 800140e:	4622      	mov	r2, r4
 8001410:	2138      	movs	r1, #56	; 0x38
 8001412:	20d0      	movs	r0, #208	; 0xd0
 8001414:	f7ff fdb4 	bl	8000f80 <writeByte>
	writeByte(MPU9250_ADDRESS_TX, FIFO_EN, 0x00);      // Disable FIFO
 8001418:	4622      	mov	r2, r4
 800141a:	2123      	movs	r1, #35	; 0x23
 800141c:	20d0      	movs	r0, #208	; 0xd0
 800141e:	f7ff fdaf 	bl	8000f80 <writeByte>
	writeByte(MPU9250_ADDRESS_TX, PWR_MGMT_1, 0x00); // Turn on internal clock source
 8001422:	4622      	mov	r2, r4
 8001424:	216b      	movs	r1, #107	; 0x6b
 8001426:	20d0      	movs	r0, #208	; 0xd0
 8001428:	f7ff fdaa 	bl	8000f80 <writeByte>
	writeByte(MPU9250_ADDRESS_TX, I2C_MST_CTRL, 0x00); // Disable I2C master
 800142c:	4622      	mov	r2, r4
 800142e:	2124      	movs	r1, #36	; 0x24
 8001430:	20d0      	movs	r0, #208	; 0xd0
 8001432:	f7ff fda5 	bl	8000f80 <writeByte>
	writeByte(MPU9250_ADDRESS_TX, USER_CTRL, 0x00); // Disable FIFO and I2C master modes
 8001436:	4622      	mov	r2, r4
 8001438:	216a      	movs	r1, #106	; 0x6a
 800143a:	20d0      	movs	r0, #208	; 0xd0
 800143c:	f7ff fda0 	bl	8000f80 <writeByte>
	writeByte(MPU9250_ADDRESS_TX, USER_CTRL, 0x0C);    // Reset FIFO and DMP
 8001440:	220c      	movs	r2, #12
 8001442:	216a      	movs	r1, #106	; 0x6a
 8001444:	20d0      	movs	r0, #208	; 0xd0
 8001446:	f7ff fd9b 	bl	8000f80 <writeByte>
	HAL_Delay(15);
 800144a:	200f      	movs	r0, #15
 800144c:	f002 f92a 	bl	80036a4 <HAL_Delay>

	// Configure MPU9250 gyro and accelerometer for bias calculation
	writeByte(MPU9250_ADDRESS_TX, CONFIG, 0x01); // Set low-pass filter to 188 Hz
 8001450:	2201      	movs	r2, #1
 8001452:	211a      	movs	r1, #26
 8001454:	20d0      	movs	r0, #208	; 0xd0
 8001456:	f7ff fd93 	bl	8000f80 <writeByte>
	writeByte(MPU9250_ADDRESS_TX, SMPLRT_DIV, 0x00); // Set sample rate to 1 kHz
 800145a:	4622      	mov	r2, r4
 800145c:	2119      	movs	r1, #25
 800145e:	20d0      	movs	r0, #208	; 0xd0
 8001460:	f7ff fd8e 	bl	8000f80 <writeByte>
	writeByte(MPU9250_ADDRESS_TX, GYRO_CONFIG, 0x00); // Set gyro full-scale to 250 degrees per second, maximum sensitivity
 8001464:	4622      	mov	r2, r4
 8001466:	211b      	movs	r1, #27
 8001468:	20d0      	movs	r0, #208	; 0xd0
 800146a:	f7ff fd89 	bl	8000f80 <writeByte>
	writeByte(MPU9250_ADDRESS_TX, ACCEL_CONFIG, 0x00); // Set accelerometer full-scale to 2 g, maximum sensitivity
 800146e:	4622      	mov	r2, r4
 8001470:	211c      	movs	r1, #28
 8001472:	20d0      	movs	r0, #208	; 0xd0
 8001474:	f7ff fd84 	bl	8000f80 <writeByte>

	uint16_t gyrosensitivity = 131;   // = 131 LSB/degrees/sec
	uint16_t accelsensitivity = 16384;  // = 16384 LSB/g

	// Configure FIFO to capture accelerometer and gyro data for bias calculation
	writeByte(MPU9250_ADDRESS_TX, USER_CTRL, 0x40);   // Enable FIFO
 8001478:	2240      	movs	r2, #64	; 0x40
 800147a:	216a      	movs	r1, #106	; 0x6a
 800147c:	20d0      	movs	r0, #208	; 0xd0
 800147e:	f7ff fd7f 	bl	8000f80 <writeByte>
	writeByte(MPU9250_ADDRESS_TX, FIFO_EN, 0x78); // Enable gyro and accelerometer sensors for FIFO (max size 512 bytes in MPU-9250)
 8001482:	2278      	movs	r2, #120	; 0x78
 8001484:	2123      	movs	r1, #35	; 0x23
 8001486:	20d0      	movs	r0, #208	; 0xd0
 8001488:	f7ff fd7a 	bl	8000f80 <writeByte>
	HAL_Delay(40); // accumulate 40 samples in 80 milliseconds = 480 bytes
 800148c:	2028      	movs	r0, #40	; 0x28
 800148e:	f002 f909 	bl	80036a4 <HAL_Delay>

	// At end of sample accumulation, turn off FIFO sensor read
	writeByte(MPU9250_ADDRESS_TX, FIFO_EN, 0x00); // Disable gyro and accelerometer sensors for FIFO
 8001492:	4622      	mov	r2, r4
 8001494:	2123      	movs	r1, #35	; 0x23
 8001496:	20d0      	movs	r0, #208	; 0xd0
 8001498:	f7ff fd72 	bl	8000f80 <writeByte>
	readBytes(MPU9250_ADDRESS_TX, MPU9250_ADDRESS_RX, FIFO_COUNTH, 2, &data[0]); // read FIFO sample count
 800149c:	ab09      	add	r3, sp, #36	; 0x24
 800149e:	9300      	str	r3, [sp, #0]
 80014a0:	2302      	movs	r3, #2
 80014a2:	2272      	movs	r2, #114	; 0x72
 80014a4:	21d1      	movs	r1, #209	; 0xd1
 80014a6:	20d0      	movs	r0, #208	; 0xd0
 80014a8:	f7ff fdc4 	bl	8001034 <readBytes>
	fifo_count = ((uint16_t) data[0] << 8) | data[1];
 80014ac:	f89d 3024 	ldrb.w	r3, [sp, #36]	; 0x24
 80014b0:	f89d 5025 	ldrb.w	r5, [sp, #37]	; 0x25
 80014b4:	ea45 2503 	orr.w	r5, r5, r3, lsl #8
	packet_count = fifo_count / 12; // How many sets of full gyro and accelerometer data for averaging
 80014b8:	4b6d      	ldr	r3, [pc, #436]	; (8001670 <calibrateMPU9250+0x2a4>)
 80014ba:	fba3 3505 	umull	r3, r5, r3, r5
 80014be:	08ed      	lsrs	r5, r5, #3

	for (ii = 0; ii < packet_count; ii++) {
 80014c0:	e045      	b.n	800154e <calibrateMPU9250+0x182>
		int16_t accel_temp[3] = { 0, 0, 0 }, gyro_temp[3] = { 0, 0, 0 };
		readBytes(MPU9250_ADDRESS_TX, MPU9250_ADDRESS_RX, FIFO_R_W, 12,
 80014c2:	ab09      	add	r3, sp, #36	; 0x24
 80014c4:	9300      	str	r3, [sp, #0]
 80014c6:	230c      	movs	r3, #12
 80014c8:	2274      	movs	r2, #116	; 0x74
 80014ca:	21d1      	movs	r1, #209	; 0xd1
 80014cc:	20d0      	movs	r0, #208	; 0xd0
 80014ce:	f7ff fdb1 	bl	8001034 <readBytes>
				&data[0]); // read data for averaging
		accel_temp[0] = (int16_t) (((int16_t) data[0] << 8) | data[1]); // Form signed 16-bit integer for each sample in FIFO
 80014d2:	f89d 8024 	ldrb.w	r8, [sp, #36]	; 0x24
 80014d6:	f89d 0025 	ldrb.w	r0, [sp, #37]	; 0x25
 80014da:	ea40 2808 	orr.w	r8, r0, r8, lsl #8
		accel_temp[1] = (int16_t) (((int16_t) data[2] << 8) | data[3]);
 80014de:	f89d e026 	ldrb.w	lr, [sp, #38]	; 0x26
 80014e2:	f89d 0027 	ldrb.w	r0, [sp, #39]	; 0x27
 80014e6:	ea40 2e0e 	orr.w	lr, r0, lr, lsl #8
		accel_temp[2] = (int16_t) (((int16_t) data[4] << 8) | data[5]);
 80014ea:	f89d c028 	ldrb.w	ip, [sp, #40]	; 0x28
 80014ee:	f89d 0029 	ldrb.w	r0, [sp, #41]	; 0x29
 80014f2:	ea40 2c0c 	orr.w	ip, r0, ip, lsl #8
		gyro_temp[0] = (int16_t) (((int16_t) data[6] << 8) | data[7]);
 80014f6:	f89d 302a 	ldrb.w	r3, [sp, #42]	; 0x2a
 80014fa:	f89d 102b 	ldrb.w	r1, [sp, #43]	; 0x2b
 80014fe:	ea41 2103 	orr.w	r1, r1, r3, lsl #8
		gyro_temp[1] = (int16_t) (((int16_t) data[8] << 8) | data[9]);
 8001502:	f89d 302c 	ldrb.w	r3, [sp, #44]	; 0x2c
 8001506:	f89d 202d 	ldrb.w	r2, [sp, #45]	; 0x2d
 800150a:	ea42 2203 	orr.w	r2, r2, r3, lsl #8
		gyro_temp[2] = (int16_t) (((int16_t) data[10] << 8) | data[11]);
 800150e:	f89d 002e 	ldrb.w	r0, [sp, #46]	; 0x2e
 8001512:	f89d 302f 	ldrb.w	r3, [sp, #47]	; 0x2f
 8001516:	ea43 2300 	orr.w	r3, r3, r0, lsl #8

		accel_bias[0] += (int32_t) accel_temp[0]; // Sum individual signed 16-bit biases to get accumulated signed 32-bit biases
 800151a:	9803      	ldr	r0, [sp, #12]
 800151c:	fa00 f088 	sxtah	r0, r0, r8
 8001520:	9003      	str	r0, [sp, #12]
		accel_bias[1] += (int32_t) accel_temp[1];
 8001522:	9804      	ldr	r0, [sp, #16]
 8001524:	fa00 f08e 	sxtah	r0, r0, lr
 8001528:	9004      	str	r0, [sp, #16]
		accel_bias[2] += (int32_t) accel_temp[2];
 800152a:	9805      	ldr	r0, [sp, #20]
 800152c:	fa00 f08c 	sxtah	r0, r0, ip
 8001530:	9005      	str	r0, [sp, #20]
		gyro_bias[0] += (int32_t) gyro_temp[0];
 8001532:	9806      	ldr	r0, [sp, #24]
 8001534:	fa00 f181 	sxtah	r1, r0, r1
 8001538:	9106      	str	r1, [sp, #24]
		gyro_bias[1] += (int32_t) gyro_temp[1];
 800153a:	9907      	ldr	r1, [sp, #28]
 800153c:	fa01 f282 	sxtah	r2, r1, r2
 8001540:	9207      	str	r2, [sp, #28]
		gyro_bias[2] += (int32_t) gyro_temp[2];
 8001542:	9a08      	ldr	r2, [sp, #32]
 8001544:	fa02 f383 	sxtah	r3, r2, r3
 8001548:	9308      	str	r3, [sp, #32]
	for (ii = 0; ii < packet_count; ii++) {
 800154a:	3401      	adds	r4, #1
 800154c:	b2a4      	uxth	r4, r4
 800154e:	42ac      	cmp	r4, r5
 8001550:	d3b7      	bcc.n	80014c2 <calibrateMPU9250+0xf6>

	}
	accel_bias[0] /= (int32_t) packet_count; // Normalize sums to get average count biases
 8001552:	9b03      	ldr	r3, [sp, #12]
 8001554:	fb93 f8f5 	sdiv	r8, r3, r5
	accel_bias[1] /= (int32_t) packet_count;
 8001558:	9b04      	ldr	r3, [sp, #16]
 800155a:	fb93 f4f5 	sdiv	r4, r3, r5
	accel_bias[2] /= (int32_t) packet_count;
 800155e:	9805      	ldr	r0, [sp, #20]
 8001560:	fb90 f0f5 	sdiv	r0, r0, r5
	gyro_bias[0] /= (int32_t) packet_count;
 8001564:	9906      	ldr	r1, [sp, #24]
 8001566:	fb91 f1f5 	sdiv	r1, r1, r5
	gyro_bias[1] /= (int32_t) packet_count;
 800156a:	9a07      	ldr	r2, [sp, #28]
 800156c:	fb92 f2f5 	sdiv	r2, r2, r5
	gyro_bias[2] /= (int32_t) packet_count;
 8001570:	9b08      	ldr	r3, [sp, #32]
 8001572:	fb93 f5f5 	sdiv	r5, r3, r5

	if (accel_bias[2] > 0L) {
 8001576:	2800      	cmp	r0, #0
 8001578:	dd4f      	ble.n	800161a <calibrateMPU9250+0x24e>
		accel_bias[2] -= (int32_t) accelsensitivity;
 800157a:	f5a0 4080 	sub.w	r0, r0, #16384	; 0x4000
 800157e:	9005      	str	r0, [sp, #20]
	else {
		accel_bias[2] += (int32_t) accelsensitivity;
	}

	// Construct the gyro biases for push to the hardware gyro bias registers, which are reset to zero upon device startup
	data[0] = (-gyro_bias[0] / 4 >> 8) & 0xFF; // Divide by 4 to get 32.9 LSB per deg/s to conform to expected bias input format
 8001580:	424b      	negs	r3, r1
 8001582:	2b00      	cmp	r3, #0
 8001584:	db4d      	blt.n	8001622 <calibrateMPU9250+0x256>
 8001586:	1098      	asrs	r0, r3, #2
 8001588:	129b      	asrs	r3, r3, #10
 800158a:	f88d 3024 	strb.w	r3, [sp, #36]	; 0x24
	data[1] = (-gyro_bias[0] / 4) & 0xFF; // Biases are additive, so change sign on calculated average gyro biases
 800158e:	f88d 0025 	strb.w	r0, [sp, #37]	; 0x25
	data[2] = (-gyro_bias[1] / 4 >> 8) & 0xFF;
 8001592:	4253      	negs	r3, r2
 8001594:	2b00      	cmp	r3, #0
 8001596:	db46      	blt.n	8001626 <calibrateMPU9250+0x25a>
 8001598:	1098      	asrs	r0, r3, #2
 800159a:	129b      	asrs	r3, r3, #10
 800159c:	f88d 3026 	strb.w	r3, [sp, #38]	; 0x26
	data[3] = (-gyro_bias[1] / 4) & 0xFF;
 80015a0:	f88d 0027 	strb.w	r0, [sp, #39]	; 0x27
	data[4] = (-gyro_bias[2] / 4 >> 8) & 0xFF;
 80015a4:	426b      	negs	r3, r5
 80015a6:	2b00      	cmp	r3, #0
 80015a8:	db3f      	blt.n	800162a <calibrateMPU9250+0x25e>
 80015aa:	1098      	asrs	r0, r3, #2
 80015ac:	129b      	asrs	r3, r3, #10
 80015ae:	f88d 3028 	strb.w	r3, [sp, #40]	; 0x28
	data[5] = (-gyro_bias[2] / 4) & 0xFF;
 80015b2:	f88d 0029 	strb.w	r0, [sp, #41]	; 0x29
	 writeByte(MPU9250_ADDRESS_TX, YG_OFFSET_H, data[2]);
	 writeByte(MPU9250_ADDRESS_TX, YG_OFFSET_L, data[3]);
	 writeByte(MPU9250_ADDRESS_TX, ZG_OFFSET_H, data[4]);
	 writeByte(MPU9250_ADDRESS_TX, ZG_OFFSET_L, data[5]);
	 */
	dest1[0] = (float) gyro_bias[0] / (float) gyrosensitivity; // construct gyro bias in deg/s for later manual subtraction
 80015b6:	ee07 1a90 	vmov	s15, r1
 80015ba:	eef8 7ae7 	vcvt.f32.s32	s15, s15
 80015be:	ed9f 7a2d 	vldr	s14, [pc, #180]	; 8001674 <calibrateMPU9250+0x2a8>
 80015c2:	eec7 6a87 	vdiv.f32	s13, s15, s14
 80015c6:	edc7 6a00 	vstr	s13, [r7]
	dest1[1] = (float) gyro_bias[1] / (float) gyrosensitivity;
 80015ca:	ee07 2a90 	vmov	s15, r2
 80015ce:	eef8 7ae7 	vcvt.f32.s32	s15, s15
 80015d2:	eec7 6a87 	vdiv.f32	s13, s15, s14
 80015d6:	edc7 6a01 	vstr	s13, [r7, #4]
	dest1[2] = (float) gyro_bias[2] / (float) gyrosensitivity;
 80015da:	ee07 5a90 	vmov	s15, r5
 80015de:	eef8 7ae7 	vcvt.f32.s32	s15, s15
 80015e2:	eec7 6a87 	vdiv.f32	s13, s15, s14
 80015e6:	edc7 6a02 	vstr	s13, [r7, #8]
	// non-zero values. In addition, bit 0 of the lower byte must be preserved since it is used for temperature
	// compensation calculations. Accelerometer bias registers expect bias input as 2048 LSB per g, so that
	// the accelerometer biases calculated above must be divided by 8.

	int32_t accel_bias_reg[3] = { 0, 0, 0 }; // A place to hold the factory accelerometer trim biases
	readBytes(MPU9250_ADDRESS_TX, MPU9250_ADDRESS_RX, XA_OFFSET_H, 2, &data[0]); // Read factory accelerometer trim values
 80015ea:	ad09      	add	r5, sp, #36	; 0x24
 80015ec:	9500      	str	r5, [sp, #0]
 80015ee:	2302      	movs	r3, #2
 80015f0:	2277      	movs	r2, #119	; 0x77
 80015f2:	21d1      	movs	r1, #209	; 0xd1
 80015f4:	20d0      	movs	r0, #208	; 0xd0
 80015f6:	f7ff fd1d 	bl	8001034 <readBytes>
	accel_bias_reg[0] = (int16_t) ((int16_t) data[0] << 8) | data[1];
	readBytes(MPU9250_ADDRESS_TX, MPU9250_ADDRESS_RX, YA_OFFSET_H, 2, &data[0]);
 80015fa:	9500      	str	r5, [sp, #0]
 80015fc:	2302      	movs	r3, #2
 80015fe:	227a      	movs	r2, #122	; 0x7a
 8001600:	21d1      	movs	r1, #209	; 0xd1
 8001602:	20d0      	movs	r0, #208	; 0xd0
 8001604:	f7ff fd16 	bl	8001034 <readBytes>
	accel_bias_reg[1] = (int16_t) ((int16_t) data[0] << 8) | data[1];
	readBytes(MPU9250_ADDRESS_TX, MPU9250_ADDRESS_RX, ZA_OFFSET_H, 2, &data[0]);
 8001608:	9500      	str	r5, [sp, #0]
 800160a:	2302      	movs	r3, #2
 800160c:	227d      	movs	r2, #125	; 0x7d
 800160e:	21d1      	movs	r1, #209	; 0xd1
 8001610:	20d0      	movs	r0, #208	; 0xd0
 8001612:	f7ff fd0f 	bl	8001034 <readBytes>
	accel_bias_reg[2] = (int16_t) ((int16_t) data[0] << 8) | data[1];

	uint32_t mask = 1uL; // Define mask for temperature compensation bit 0 of lower byte of accelerometer bias registers
	uint8_t mask_bit[3] = { 0, 0, 0 }; // Define array to hold mask bit for each accelerometer bias axis

	for (ii = 0; ii < 3; ii++) {
 8001616:	2300      	movs	r3, #0
 8001618:	e00b      	b.n	8001632 <calibrateMPU9250+0x266>
		accel_bias[2] += (int32_t) accelsensitivity;
 800161a:	f500 4080 	add.w	r0, r0, #16384	; 0x4000
 800161e:	9005      	str	r0, [sp, #20]
 8001620:	e7ae      	b.n	8001580 <calibrateMPU9250+0x1b4>
	data[0] = (-gyro_bias[0] / 4 >> 8) & 0xFF; // Divide by 4 to get 32.9 LSB per deg/s to conform to expected bias input format
 8001622:	3303      	adds	r3, #3
 8001624:	e7af      	b.n	8001586 <calibrateMPU9250+0x1ba>
	data[2] = (-gyro_bias[1] / 4 >> 8) & 0xFF;
 8001626:	3303      	adds	r3, #3
 8001628:	e7b6      	b.n	8001598 <calibrateMPU9250+0x1cc>
	data[4] = (-gyro_bias[2] / 4 >> 8) & 0xFF;
 800162a:	3303      	adds	r3, #3
 800162c:	e7bd      	b.n	80015aa <calibrateMPU9250+0x1de>
	for (ii = 0; ii < 3; ii++) {
 800162e:	3301      	adds	r3, #1
 8001630:	b29b      	uxth	r3, r3
 8001632:	2b02      	cmp	r3, #2
 8001634:	d9fb      	bls.n	800162e <calibrateMPU9250+0x262>
	 writeByte(MPU9250_ADDRESS_TX, YA_OFFSET_L, data[3]);
	 writeByte(MPU9250_ADDRESS_TX, ZA_OFFSET_H, data[4]);
	 writeByte(MPU9250_ADDRESS_TX, ZA_OFFSET_L, data[5]);
	 */
	// Output scaled accelerometer biases for manual subtraction in the main program
	dest2[0] = (float) accel_bias[0] / (float) accelsensitivity;
 8001636:	ee07 8a90 	vmov	s15, r8
 800163a:	eef8 7ae7 	vcvt.f32.s32	s15, s15
 800163e:	ed9f 7a0e 	vldr	s14, [pc, #56]	; 8001678 <calibrateMPU9250+0x2ac>
 8001642:	ee67 7a87 	vmul.f32	s15, s15, s14
 8001646:	edc6 7a00 	vstr	s15, [r6]
	dest2[1] = (float) accel_bias[1] / (float) accelsensitivity;
 800164a:	ee07 4a90 	vmov	s15, r4
 800164e:	eef8 7ae7 	vcvt.f32.s32	s15, s15
 8001652:	ee67 7a87 	vmul.f32	s15, s15, s14
 8001656:	edc6 7a01 	vstr	s15, [r6, #4]
	dest2[2] = (float) accel_bias[2] / (float) accelsensitivity;
 800165a:	eddd 7a05 	vldr	s15, [sp, #20]
 800165e:	eef8 7ae7 	vcvt.f32.s32	s15, s15
 8001662:	ee67 7a87 	vmul.f32	s15, s15, s14
 8001666:	edc6 7a02 	vstr	s15, [r6, #8]
}
 800166a:	b00c      	add	sp, #48	; 0x30
 800166c:	e8bd 81f0 	ldmia.w	sp!, {r4, r5, r6, r7, r8, pc}
 8001670:	aaaaaaab 	.word	0xaaaaaaab
 8001674:	43030000 	.word	0x43030000
 8001678:	38800000 	.word	0x38800000
 800167c:	00000000 	.word	0x00000000

08001680 <MPU9250SelfTest>:

// Accelerometer and gyroscope self test; check calibration wrt factory settings
void MPU9250SelfTest(float * destination) // Should return percent deviation from factory trim values, +/- 14 or less deviation is a pass
		{
 8001680:	e92d 43f0 	stmdb	sp!, {r4, r5, r6, r7, r8, r9, lr}
 8001684:	ed2d 8b08 	vpush	{d8-d11}
 8001688:	b093      	sub	sp, #76	; 0x4c
 800168a:	4605      	mov	r5, r0
	uint8_t rawData[6] = { 0, 0, 0, 0, 0, 0 };
 800168c:	2400      	movs	r4, #0
 800168e:	9410      	str	r4, [sp, #64]	; 0x40
 8001690:	f8ad 4044 	strh.w	r4, [sp, #68]	; 0x44
	uint8_t selfTest[6];
	int16_t gAvg[3], aAvg[3], aSTAvg[3], gSTAvg[3];
	float factoryTrim[6];
	uint8_t FS = 0;

	writeByte(MPU9250_ADDRESS_TX, SMPLRT_DIV, 0x00); // Set gyro sample rate to 1 kHz
 8001694:	4622      	mov	r2, r4
 8001696:	2119      	movs	r1, #25
 8001698:	20d0      	movs	r0, #208	; 0xd0
 800169a:	f7ff fc71 	bl	8000f80 <writeByte>
	writeByte(MPU9250_ADDRESS_TX, CONFIG, 0x02); // Set gyro sample rate to 1 kHz and DLPF to 92 Hz
 800169e:	2202      	movs	r2, #2
 80016a0:	211a      	movs	r1, #26
 80016a2:	20d0      	movs	r0, #208	; 0xd0
 80016a4:	f7ff fc6c 	bl	8000f80 <writeByte>
	writeByte(MPU9250_ADDRESS_TX, GYRO_CONFIG, 1 << FS); // Set full scale range for the gyro to 250 dps
 80016a8:	2201      	movs	r2, #1
 80016aa:	211b      	movs	r1, #27
 80016ac:	20d0      	movs	r0, #208	; 0xd0
 80016ae:	f7ff fc67 	bl	8000f80 <writeByte>
	writeByte(MPU9250_ADDRESS_TX, ACCEL_CONFIG2, 0x02); // Set accelerometer rate to 1 kHz and bandwidth to 92 Hz
 80016b2:	2202      	movs	r2, #2
 80016b4:	211d      	movs	r1, #29
 80016b6:	20d0      	movs	r0, #208	; 0xd0
 80016b8:	f7ff fc62 	bl	8000f80 <writeByte>
	writeByte(MPU9250_ADDRESS_TX, ACCEL_CONFIG, 1 << FS); // Set full scale range for the accelerometer to 2 g
 80016bc:	2201      	movs	r2, #1
 80016be:	211c      	movs	r1, #28
 80016c0:	20d0      	movs	r0, #208	; 0xd0
 80016c2:	f7ff fc5d 	bl	8000f80 <writeByte>

	for (int ii = 0; ii < 200; ii++) { // get average current values of gyro and acclerometer
 80016c6:	e051      	b.n	800176c <MPU9250SelfTest+0xec>

		readBytes(MPU9250_ADDRESS_TX, MPU9250_ADDRESS_RX, ACCEL_XOUT_H, 6,
 80016c8:	ae10      	add	r6, sp, #64	; 0x40
 80016ca:	9600      	str	r6, [sp, #0]
 80016cc:	2306      	movs	r3, #6
 80016ce:	223b      	movs	r2, #59	; 0x3b
 80016d0:	21d1      	movs	r1, #209	; 0xd1
 80016d2:	20d0      	movs	r0, #208	; 0xd0
 80016d4:	f7ff fcae 	bl	8001034 <readBytes>
				&rawData[0]); // Read the six raw data registers into data array
		aAvg[0] += (int16_t) (((int16_t) rawData[0] << 8) | rawData[1]); // Turn the MSB and LSB into a signed 16-bit value
 80016d8:	f89d 2040 	ldrb.w	r2, [sp, #64]	; 0x40
 80016dc:	f89d 3041 	ldrb.w	r3, [sp, #65]	; 0x41
 80016e0:	ea43 2302 	orr.w	r3, r3, r2, lsl #8
 80016e4:	f8bd 2030 	ldrh.w	r2, [sp, #48]	; 0x30
 80016e8:	4413      	add	r3, r2
 80016ea:	f8ad 3030 	strh.w	r3, [sp, #48]	; 0x30
		aAvg[1] += (int16_t) (((int16_t) rawData[2] << 8) | rawData[3]);
 80016ee:	f89d 2042 	ldrb.w	r2, [sp, #66]	; 0x42
 80016f2:	f89d 3043 	ldrb.w	r3, [sp, #67]	; 0x43
 80016f6:	ea43 2302 	orr.w	r3, r3, r2, lsl #8
 80016fa:	f8bd 2032 	ldrh.w	r2, [sp, #50]	; 0x32
 80016fe:	4413      	add	r3, r2
 8001700:	f8ad 3032 	strh.w	r3, [sp, #50]	; 0x32
		aAvg[2] += (int16_t) (((int16_t) rawData[4] << 8) | rawData[5]);
 8001704:	f89d 2044 	ldrb.w	r2, [sp, #68]	; 0x44
 8001708:	f89d 3045 	ldrb.w	r3, [sp, #69]	; 0x45
 800170c:	ea43 2302 	orr.w	r3, r3, r2, lsl #8
 8001710:	f8bd 2034 	ldrh.w	r2, [sp, #52]	; 0x34
 8001714:	4413      	add	r3, r2
 8001716:	f8ad 3034 	strh.w	r3, [sp, #52]	; 0x34

		readBytes(MPU9250_ADDRESS_TX, MPU9250_ADDRESS_RX, GYRO_XOUT_H, 6,
 800171a:	9600      	str	r6, [sp, #0]
 800171c:	2306      	movs	r3, #6
 800171e:	2243      	movs	r2, #67	; 0x43
 8001720:	21d1      	movs	r1, #209	; 0xd1
 8001722:	20d0      	movs	r0, #208	; 0xd0
 8001724:	f7ff fc86 	bl	8001034 <readBytes>
				&rawData[0]); // Read the six raw data registers sequentially into data array
		gAvg[0] += (int16_t) (((int16_t) rawData[0] << 8) | rawData[1]); // Turn the MSB and LSB into a signed 16-bit value
 8001728:	f89d 2040 	ldrb.w	r2, [sp, #64]	; 0x40
 800172c:	f89d 3041 	ldrb.w	r3, [sp, #65]	; 0x41
 8001730:	ea43 2302 	orr.w	r3, r3, r2, lsl #8
 8001734:	f8bd 2038 	ldrh.w	r2, [sp, #56]	; 0x38
 8001738:	4413      	add	r3, r2
 800173a:	f8ad 3038 	strh.w	r3, [sp, #56]	; 0x38
		gAvg[1] += (int16_t) (((int16_t) rawData[2] << 8) | rawData[3]);
 800173e:	f89d 2042 	ldrb.w	r2, [sp, #66]	; 0x42
 8001742:	f89d 3043 	ldrb.w	r3, [sp, #67]	; 0x43
 8001746:	ea43 2302 	orr.w	r3, r3, r2, lsl #8
 800174a:	f8bd 203a 	ldrh.w	r2, [sp, #58]	; 0x3a
 800174e:	4413      	add	r3, r2
 8001750:	f8ad 303a 	strh.w	r3, [sp, #58]	; 0x3a
		gAvg[2] += (int16_t) (((int16_t) rawData[4] << 8) | rawData[5]);
 8001754:	f89d 2044 	ldrb.w	r2, [sp, #68]	; 0x44
 8001758:	f89d 3045 	ldrb.w	r3, [sp, #69]	; 0x45
 800175c:	ea43 2302 	orr.w	r3, r3, r2, lsl #8
 8001760:	f8bd 203c 	ldrh.w	r2, [sp, #60]	; 0x3c
 8001764:	4413      	add	r3, r2
 8001766:	f8ad 303c 	strh.w	r3, [sp, #60]	; 0x3c
	for (int ii = 0; ii < 200; ii++) { // get average current values of gyro and acclerometer
 800176a:	3401      	adds	r4, #1
 800176c:	2cc7      	cmp	r4, #199	; 0xc7
 800176e:	ddab      	ble.n	80016c8 <MPU9250SelfTest+0x48>
	}

	for (int ii = 0; ii < 3; ii++) { // Get average of 200 values and store as average current readings
 8001770:	2400      	movs	r4, #0
 8001772:	e016      	b.n	80017a2 <MPU9250SelfTest+0x122>
		aAvg[ii] /= 200;
 8001774:	ab12      	add	r3, sp, #72	; 0x48
 8001776:	eb03 0144 	add.w	r1, r3, r4, lsl #1
 800177a:	f931 2c18 	ldrsh.w	r2, [r1, #-24]
 800177e:	48c0      	ldr	r0, [pc, #768]	; (8001a80 <MPU9250SelfTest+0x400>)
 8001780:	fb80 6302 	smull	r6, r3, r0, r2
 8001784:	17d2      	asrs	r2, r2, #31
 8001786:	ebc2 12a3 	rsb	r2, r2, r3, asr #6
 800178a:	f821 2c18 	strh.w	r2, [r1, #-24]
		gAvg[ii] /= 200;
 800178e:	f931 3c10 	ldrsh.w	r3, [r1, #-16]
 8001792:	fb80 2003 	smull	r2, r0, r0, r3
 8001796:	17db      	asrs	r3, r3, #31
 8001798:	ebc3 13a0 	rsb	r3, r3, r0, asr #6
 800179c:	f821 3c10 	strh.w	r3, [r1, #-16]
	for (int ii = 0; ii < 3; ii++) { // Get average of 200 values and store as average current readings
 80017a0:	3401      	adds	r4, #1
 80017a2:	2c02      	cmp	r4, #2
 80017a4:	dde6      	ble.n	8001774 <MPU9250SelfTest+0xf4>
	}

	// Configure the accelerometer for self-test
	writeByte(MPU9250_ADDRESS_TX, ACCEL_CONFIG, 0xE0); // Enable self test on all three axes and set accelerometer range to +/- 2 g
 80017a6:	22e0      	movs	r2, #224	; 0xe0
 80017a8:	211c      	movs	r1, #28
 80017aa:	20d0      	movs	r0, #208	; 0xd0
 80017ac:	f7ff fbe8 	bl	8000f80 <writeByte>
	writeByte(MPU9250_ADDRESS_TX, GYRO_CONFIG, 0xE0); // Enable self test on all three axes and set gyro range to +/- 250 degrees/s
 80017b0:	22e0      	movs	r2, #224	; 0xe0
 80017b2:	211b      	movs	r1, #27
 80017b4:	20d0      	movs	r0, #208	; 0xd0
 80017b6:	f7ff fbe3 	bl	8000f80 <writeByte>
	HAL_Delay(25); // Delay a while to let the device stabilize
 80017ba:	2019      	movs	r0, #25
 80017bc:	f001 ff72 	bl	80036a4 <HAL_Delay>

	for (int ii = 0; ii < 200; ii++) { // get average self-test values of gyro and acclerometer
 80017c0:	2400      	movs	r4, #0
 80017c2:	e051      	b.n	8001868 <MPU9250SelfTest+0x1e8>

		readBytes(MPU9250_ADDRESS_TX, MPU9250_ADDRESS_RX, ACCEL_XOUT_H, 6,
 80017c4:	ae10      	add	r6, sp, #64	; 0x40
 80017c6:	9600      	str	r6, [sp, #0]
 80017c8:	2306      	movs	r3, #6
 80017ca:	223b      	movs	r2, #59	; 0x3b
 80017cc:	21d1      	movs	r1, #209	; 0xd1
 80017ce:	20d0      	movs	r0, #208	; 0xd0
 80017d0:	f7ff fc30 	bl	8001034 <readBytes>
				&rawData[0]); // Read the six raw data registers into data array
		aSTAvg[0] += (int16_t) (((int16_t) rawData[0] << 8) | rawData[1]); // Turn the MSB and LSB into a signed 16-bit value
 80017d4:	f89d 2040 	ldrb.w	r2, [sp, #64]	; 0x40
 80017d8:	f89d 3041 	ldrb.w	r3, [sp, #65]	; 0x41
 80017dc:	ea43 2302 	orr.w	r3, r3, r2, lsl #8
 80017e0:	f8bd 2028 	ldrh.w	r2, [sp, #40]	; 0x28
 80017e4:	4413      	add	r3, r2
 80017e6:	f8ad 3028 	strh.w	r3, [sp, #40]	; 0x28
		aSTAvg[1] += (int16_t) (((int16_t) rawData[2] << 8) | rawData[3]);
 80017ea:	f89d 2042 	ldrb.w	r2, [sp, #66]	; 0x42
 80017ee:	f89d 3043 	ldrb.w	r3, [sp, #67]	; 0x43
 80017f2:	ea43 2302 	orr.w	r3, r3, r2, lsl #8
 80017f6:	f8bd 202a 	ldrh.w	r2, [sp, #42]	; 0x2a
 80017fa:	4413      	add	r3, r2
 80017fc:	f8ad 302a 	strh.w	r3, [sp, #42]	; 0x2a
		aSTAvg[2] += (int16_t) (((int16_t) rawData[4] << 8) | rawData[5]);
 8001800:	f89d 2044 	ldrb.w	r2, [sp, #68]	; 0x44
 8001804:	f89d 3045 	ldrb.w	r3, [sp, #69]	; 0x45
 8001808:	ea43 2302 	orr.w	r3, r3, r2, lsl #8
 800180c:	f8bd 202c 	ldrh.w	r2, [sp, #44]	; 0x2c
 8001810:	4413      	add	r3, r2
 8001812:	f8ad 302c 	strh.w	r3, [sp, #44]	; 0x2c

		readBytes(MPU9250_ADDRESS_TX, MPU9250_ADDRESS_RX, GYRO_XOUT_H, 6,
 8001816:	9600      	str	r6, [sp, #0]
 8001818:	2306      	movs	r3, #6
 800181a:	2243      	movs	r2, #67	; 0x43
 800181c:	21d1      	movs	r1, #209	; 0xd1
 800181e:	20d0      	movs	r0, #208	; 0xd0
 8001820:	f7ff fc08 	bl	8001034 <readBytes>
				&rawData[0]); // Read the six raw data registers sequentially into data array
		gSTAvg[0] += (int16_t) (((int16_t) rawData[0] << 8) | rawData[1]); // Turn the MSB and LSB into a signed 16-bit value
 8001824:	f89d 2040 	ldrb.w	r2, [sp, #64]	; 0x40
 8001828:	f89d 3041 	ldrb.w	r3, [sp, #65]	; 0x41
 800182c:	ea43 2302 	orr.w	r3, r3, r2, lsl #8
 8001830:	f8bd 2020 	ldrh.w	r2, [sp, #32]
 8001834:	4413      	add	r3, r2
 8001836:	f8ad 3020 	strh.w	r3, [sp, #32]
		gSTAvg[1] += (int16_t) (((int16_t) rawData[2] << 8) | rawData[3]);
 800183a:	f89d 2042 	ldrb.w	r2, [sp, #66]	; 0x42
 800183e:	f89d 3043 	ldrb.w	r3, [sp, #67]	; 0x43
 8001842:	ea43 2302 	orr.w	r3, r3, r2, lsl #8
 8001846:	f8bd 2022 	ldrh.w	r2, [sp, #34]	; 0x22
 800184a:	4413      	add	r3, r2
 800184c:	f8ad 3022 	strh.w	r3, [sp, #34]	; 0x22
		gSTAvg[2] += (int16_t) (((int16_t) rawData[4] << 8) | rawData[5]);
 8001850:	f89d 2044 	ldrb.w	r2, [sp, #68]	; 0x44
 8001854:	f89d 3045 	ldrb.w	r3, [sp, #69]	; 0x45
 8001858:	ea43 2302 	orr.w	r3, r3, r2, lsl #8
 800185c:	f8bd 2024 	ldrh.w	r2, [sp, #36]	; 0x24
 8001860:	4413      	add	r3, r2
 8001862:	f8ad 3024 	strh.w	r3, [sp, #36]	; 0x24
	for (int ii = 0; ii < 200; ii++) { // get average self-test values of gyro and acclerometer
 8001866:	3401      	adds	r4, #1
 8001868:	2cc7      	cmp	r4, #199	; 0xc7
 800186a:	ddab      	ble.n	80017c4 <MPU9250SelfTest+0x144>
	}

	for (int ii = 0; ii < 3; ii++) { // Get average of 200 values and store as average self-test readings
 800186c:	2400      	movs	r4, #0
 800186e:	e016      	b.n	800189e <MPU9250SelfTest+0x21e>
		aSTAvg[ii] /= 200;
 8001870:	ab12      	add	r3, sp, #72	; 0x48
 8001872:	eb03 0144 	add.w	r1, r3, r4, lsl #1
 8001876:	f931 2c20 	ldrsh.w	r2, [r1, #-32]
 800187a:	4881      	ldr	r0, [pc, #516]	; (8001a80 <MPU9250SelfTest+0x400>)
 800187c:	fb80 6302 	smull	r6, r3, r0, r2
 8001880:	17d2      	asrs	r2, r2, #31
 8001882:	ebc2 12a3 	rsb	r2, r2, r3, asr #6
 8001886:	f821 2c20 	strh.w	r2, [r1, #-32]
		gSTAvg[ii] /= 200;
 800188a:	f931 3c28 	ldrsh.w	r3, [r1, #-40]
 800188e:	fb80 2003 	smull	r2, r0, r0, r3
 8001892:	17db      	asrs	r3, r3, #31
 8001894:	ebc3 13a0 	rsb	r3, r3, r0, asr #6
 8001898:	f821 3c28 	strh.w	r3, [r1, #-40]
	for (int ii = 0; ii < 3; ii++) { // Get average of 200 values and store as average self-test readings
 800189c:	3401      	adds	r4, #1
 800189e:	2c02      	cmp	r4, #2
 80018a0:	dde6      	ble.n	8001870 <MPU9250SelfTest+0x1f0>
	}

	// Configure the gyro and accelerometer for normal operation
	writeByte(MPU9250_ADDRESS_TX, ACCEL_CONFIG, 0x00);
 80018a2:	2200      	movs	r2, #0
 80018a4:	211c      	movs	r1, #28
 80018a6:	20d0      	movs	r0, #208	; 0xd0
 80018a8:	f7ff fb6a 	bl	8000f80 <writeByte>
	writeByte(MPU9250_ADDRESS_TX, GYRO_CONFIG, 0x00);
 80018ac:	2200      	movs	r2, #0
 80018ae:	211b      	movs	r1, #27
 80018b0:	20d0      	movs	r0, #208	; 0xd0
 80018b2:	f7ff fb65 	bl	8000f80 <writeByte>
	HAL_Delay(25); // Delay a while to let the device stabilize
 80018b6:	2019      	movs	r0, #25
 80018b8:	f001 fef4 	bl	80036a4 <HAL_Delay>

	// Retrieve accelerometer and gyro factory Self-Test Code from USR_Reg
	selfTest[0] = readByte(MPU9250_ADDRESS_TX, MPU9250_ADDRESS_RX,
 80018bc:	220d      	movs	r2, #13
 80018be:	21d1      	movs	r1, #209	; 0xd1
 80018c0:	20d0      	movs	r0, #208	; 0xd0
 80018c2:	f7ff fb71 	bl	8000fa8 <readByte>
 80018c6:	ee08 0a10 	vmov	s16, r0
	SELF_TEST_X_ACCEL); // X-axis accel self-test results
	selfTest[1] = readByte(MPU9250_ADDRESS_TX, MPU9250_ADDRESS_RX,
 80018ca:	220e      	movs	r2, #14
 80018cc:	21d1      	movs	r1, #209	; 0xd1
 80018ce:	20d0      	movs	r0, #208	; 0xd0
 80018d0:	f7ff fb6a 	bl	8000fa8 <readByte>
 80018d4:	ee0b 0a10 	vmov	s22, r0
	SELF_TEST_Y_ACCEL); // Y-axis accel self-test results
	selfTest[2] = readByte(MPU9250_ADDRESS_TX, MPU9250_ADDRESS_RX,
 80018d8:	220f      	movs	r2, #15
 80018da:	21d1      	movs	r1, #209	; 0xd1
 80018dc:	20d0      	movs	r0, #208	; 0xd0
 80018de:	f7ff fb63 	bl	8000fa8 <readByte>
 80018e2:	ee0a 0a90 	vmov	s21, r0
	SELF_TEST_Z_ACCEL); // Z-axis accel self-test results
	selfTest[3] = readByte(MPU9250_ADDRESS_TX, MPU9250_ADDRESS_RX,
 80018e6:	2200      	movs	r2, #0
 80018e8:	21d1      	movs	r1, #209	; 0xd1
 80018ea:	20d0      	movs	r0, #208	; 0xd0
 80018ec:	f7ff fb5c 	bl	8000fa8 <readByte>
 80018f0:	ee0a 0a10 	vmov	s20, r0
	SELF_TEST_X_GYRO); // X-axis gyro self-test results
	selfTest[4] = readByte(MPU9250_ADDRESS_TX, MPU9250_ADDRESS_RX,
 80018f4:	2201      	movs	r2, #1
 80018f6:	21d1      	movs	r1, #209	; 0xd1
 80018f8:	20d0      	movs	r0, #208	; 0xd0
 80018fa:	f7ff fb55 	bl	8000fa8 <readByte>
 80018fe:	ee09 0a90 	vmov	s19, r0
	SELF_TEST_Y_GYRO); // Y-axis gyro self-test results
	selfTest[5] = readByte(MPU9250_ADDRESS_TX, MPU9250_ADDRESS_RX,
 8001902:	2202      	movs	r2, #2
 8001904:	21d1      	movs	r1, #209	; 0xd1
 8001906:	20d0      	movs	r0, #208	; 0xd0
 8001908:	f7ff fb4e 	bl	8000fa8 <readByte>
 800190c:	ee09 0a10 	vmov	s18, r0
	SELF_TEST_Z_GYRO); // Z-axis gyro self-test results

	// Retrieve factory self-test value from self-test code reads
	factoryTrim[0] = (float) (2620 / 1 << FS)
			* (pow(1.01, ((float) selfTest[0] - 1.0))); // FT[Xa] factory trim calculation
 8001910:	eef8 7a48 	vcvt.f32.u32	s15, s16
 8001914:	ee17 0a90 	vmov	r0, s15
 8001918:	f7fe fdc6 	bl	80004a8 <__aeabi_f2d>
 800191c:	2200      	movs	r2, #0
 800191e:	4b59      	ldr	r3, [pc, #356]	; (8001a84 <MPU9250SelfTest+0x404>)
 8001920:	f7fe fc62 	bl	80001e8 <__aeabi_dsub>
 8001924:	ed9f 8b52 	vldr	d8, [pc, #328]	; 8001a70 <MPU9250SelfTest+0x3f0>
 8001928:	ec41 0b11 	vmov	d1, r0, r1
 800192c:	eeb0 0a48 	vmov.f32	s0, s16
 8001930:	eef0 0a68 	vmov.f32	s1, s17
 8001934:	f008 fc0c 	bl	800a150 <pow>
 8001938:	a34f      	add	r3, pc, #316	; (adr r3, 8001a78 <MPU9250SelfTest+0x3f8>)
 800193a:	e9d3 2300 	ldrd	r2, r3, [r3]
 800193e:	ec51 0b10 	vmov	r0, r1, d0
 8001942:	f7fe fe09 	bl	8000558 <__aeabi_dmul>
 8001946:	f7ff f819 	bl	800097c <__aeabi_d2f>
	factoryTrim[0] = (float) (2620 / 1 << FS)
 800194a:	9002      	str	r0, [sp, #8]
	factoryTrim[1] = (float) (2620 / 1 << FS)
			* (pow(1.01, ((float) selfTest[1] - 1.0))); // FT[Ya] factory trim calculation
 800194c:	eef8 7a4b 	vcvt.f32.u32	s15, s22
 8001950:	ee17 0a90 	vmov	r0, s15
 8001954:	f7fe fda8 	bl	80004a8 <__aeabi_f2d>
 8001958:	2200      	movs	r2, #0
 800195a:	4b4a      	ldr	r3, [pc, #296]	; (8001a84 <MPU9250SelfTest+0x404>)
 800195c:	f7fe fc44 	bl	80001e8 <__aeabi_dsub>
 8001960:	ec41 0b11 	vmov	d1, r0, r1
 8001964:	eeb0 0a48 	vmov.f32	s0, s16
 8001968:	eef0 0a68 	vmov.f32	s1, s17
 800196c:	f008 fbf0 	bl	800a150 <pow>
 8001970:	a341      	add	r3, pc, #260	; (adr r3, 8001a78 <MPU9250SelfTest+0x3f8>)
 8001972:	e9d3 2300 	ldrd	r2, r3, [r3]
 8001976:	ec51 0b10 	vmov	r0, r1, d0
 800197a:	f7fe fded 	bl	8000558 <__aeabi_dmul>
 800197e:	f7fe fffd 	bl	800097c <__aeabi_d2f>
	factoryTrim[1] = (float) (2620 / 1 << FS)
 8001982:	9003      	str	r0, [sp, #12]
	factoryTrim[2] = (float) (2620 / 1 << FS)
			* (pow(1.01, ((float) selfTest[2] - 1.0))); // FT[Za] factory trim calculation
 8001984:	eef8 7a6a 	vcvt.f32.u32	s15, s21
 8001988:	ee17 0a90 	vmov	r0, s15
 800198c:	f7fe fd8c 	bl	80004a8 <__aeabi_f2d>
 8001990:	2200      	movs	r2, #0
 8001992:	4b3c      	ldr	r3, [pc, #240]	; (8001a84 <MPU9250SelfTest+0x404>)
 8001994:	f7fe fc28 	bl	80001e8 <__aeabi_dsub>
 8001998:	ec41 0b11 	vmov	d1, r0, r1
 800199c:	eeb0 0a48 	vmov.f32	s0, s16
 80019a0:	eef0 0a68 	vmov.f32	s1, s17
 80019a4:	f008 fbd4 	bl	800a150 <pow>
 80019a8:	a333      	add	r3, pc, #204	; (adr r3, 8001a78 <MPU9250SelfTest+0x3f8>)
 80019aa:	e9d3 2300 	ldrd	r2, r3, [r3]
 80019ae:	ec51 0b10 	vmov	r0, r1, d0
 80019b2:	f7fe fdd1 	bl	8000558 <__aeabi_dmul>
 80019b6:	f7fe ffe1 	bl	800097c <__aeabi_d2f>
	factoryTrim[2] = (float) (2620 / 1 << FS)
 80019ba:	9004      	str	r0, [sp, #16]
	factoryTrim[3] = (float) (2620 / 1 << FS)
			* (pow(1.01, ((float) selfTest[3] - 1.0))); // FT[Xg] factory trim calculation
 80019bc:	eef8 7a4a 	vcvt.f32.u32	s15, s20
 80019c0:	ee17 0a90 	vmov	r0, s15
 80019c4:	f7fe fd70 	bl	80004a8 <__aeabi_f2d>
 80019c8:	2200      	movs	r2, #0
 80019ca:	4b2e      	ldr	r3, [pc, #184]	; (8001a84 <MPU9250SelfTest+0x404>)
 80019cc:	f7fe fc0c 	bl	80001e8 <__aeabi_dsub>
 80019d0:	ec41 0b11 	vmov	d1, r0, r1
 80019d4:	eeb0 0a48 	vmov.f32	s0, s16
 80019d8:	eef0 0a68 	vmov.f32	s1, s17
 80019dc:	f008 fbb8 	bl	800a150 <pow>
 80019e0:	a325      	add	r3, pc, #148	; (adr r3, 8001a78 <MPU9250SelfTest+0x3f8>)
 80019e2:	e9d3 2300 	ldrd	r2, r3, [r3]
 80019e6:	ec51 0b10 	vmov	r0, r1, d0
 80019ea:	f7fe fdb5 	bl	8000558 <__aeabi_dmul>
 80019ee:	f7fe ffc5 	bl	800097c <__aeabi_d2f>
	factoryTrim[3] = (float) (2620 / 1 << FS)
 80019f2:	9005      	str	r0, [sp, #20]
	factoryTrim[4] = (float) (2620 / 1 << FS)
			* (pow(1.01, ((float) selfTest[4] - 1.0))); // FT[Yg] factory trim calculation
 80019f4:	eef8 7a69 	vcvt.f32.u32	s15, s19
 80019f8:	ee17 0a90 	vmov	r0, s15
 80019fc:	f7fe fd54 	bl	80004a8 <__aeabi_f2d>
 8001a00:	2200      	movs	r2, #0
 8001a02:	4b20      	ldr	r3, [pc, #128]	; (8001a84 <MPU9250SelfTest+0x404>)
 8001a04:	f7fe fbf0 	bl	80001e8 <__aeabi_dsub>
 8001a08:	ec41 0b11 	vmov	d1, r0, r1
 8001a0c:	eeb0 0a48 	vmov.f32	s0, s16
 8001a10:	eef0 0a68 	vmov.f32	s1, s17
 8001a14:	f008 fb9c 	bl	800a150 <pow>
 8001a18:	a317      	add	r3, pc, #92	; (adr r3, 8001a78 <MPU9250SelfTest+0x3f8>)
 8001a1a:	e9d3 2300 	ldrd	r2, r3, [r3]
 8001a1e:	ec51 0b10 	vmov	r0, r1, d0
 8001a22:	f7fe fd99 	bl	8000558 <__aeabi_dmul>
 8001a26:	f7fe ffa9 	bl	800097c <__aeabi_d2f>
	factoryTrim[4] = (float) (2620 / 1 << FS)
 8001a2a:	9006      	str	r0, [sp, #24]
	factoryTrim[5] = (float) (2620 / 1 << FS)
			* (pow(1.01, ((float) selfTest[5] - 1.0))); // FT[Zg] factory trim calculation
 8001a2c:	eef8 7a49 	vcvt.f32.u32	s15, s18
 8001a30:	ee17 0a90 	vmov	r0, s15
 8001a34:	f7fe fd38 	bl	80004a8 <__aeabi_f2d>
 8001a38:	2200      	movs	r2, #0
 8001a3a:	4b12      	ldr	r3, [pc, #72]	; (8001a84 <MPU9250SelfTest+0x404>)
 8001a3c:	f7fe fbd4 	bl	80001e8 <__aeabi_dsub>
 8001a40:	ec41 0b11 	vmov	d1, r0, r1
 8001a44:	eeb0 0a48 	vmov.f32	s0, s16
 8001a48:	eef0 0a68 	vmov.f32	s1, s17
 8001a4c:	f008 fb80 	bl	800a150 <pow>
 8001a50:	a309      	add	r3, pc, #36	; (adr r3, 8001a78 <MPU9250SelfTest+0x3f8>)
 8001a52:	e9d3 2300 	ldrd	r2, r3, [r3]
 8001a56:	ec51 0b10 	vmov	r0, r1, d0
 8001a5a:	f7fe fd7d 	bl	8000558 <__aeabi_dmul>
 8001a5e:	f7fe ff8d 	bl	800097c <__aeabi_d2f>
	factoryTrim[5] = (float) (2620 / 1 << FS)
 8001a62:	9007      	str	r0, [sp, #28]

	// Report results as a ratio of (STR - FT)/FT; the change from Factory Trim of the Self-Test Response
	// To get percent, must multiply by 100
	for (int i = 0; i < 3; i++) {
 8001a64:	f04f 0800 	mov.w	r8, #0
 8001a68:	e05f      	b.n	8001b2a <MPU9250SelfTest+0x4aa>
 8001a6a:	bf00      	nop
 8001a6c:	f3af 8000 	nop.w
 8001a70:	c28f5c29 	.word	0xc28f5c29
 8001a74:	3ff028f5 	.word	0x3ff028f5
 8001a78:	00000000 	.word	0x00000000
 8001a7c:	40a47800 	.word	0x40a47800
 8001a80:	51eb851f 	.word	0x51eb851f
 8001a84:	3ff00000 	.word	0x3ff00000
		destination[i] = 100.0 * ((float) (aSTAvg[i] - aAvg[i]))
 8001a88:	ab12      	add	r3, sp, #72	; 0x48
 8001a8a:	eb03 0448 	add.w	r4, r3, r8, lsl #1
 8001a8e:	f934 0c20 	ldrsh.w	r0, [r4, #-32]
 8001a92:	f934 3c18 	ldrsh.w	r3, [r4, #-24]
 8001a96:	1ac0      	subs	r0, r0, r3
 8001a98:	ee07 0a90 	vmov	s15, r0
 8001a9c:	eef8 7ae7 	vcvt.f32.s32	s15, s15
 8001aa0:	ee17 0a90 	vmov	r0, s15
 8001aa4:	f7fe fd00 	bl	80004a8 <__aeabi_f2d>
 8001aa8:	2200      	movs	r2, #0
 8001aaa:	4b24      	ldr	r3, [pc, #144]	; (8001b3c <MPU9250SelfTest+0x4bc>)
 8001aac:	f7fe fd54 	bl	8000558 <__aeabi_dmul>
 8001ab0:	4606      	mov	r6, r0
 8001ab2:	460f      	mov	r7, r1
				/ factoryTrim[i]; // Report percent differences
 8001ab4:	ea4f 0988 	mov.w	r9, r8, lsl #2
 8001ab8:	ab12      	add	r3, sp, #72	; 0x48
 8001aba:	444b      	add	r3, r9
 8001abc:	f853 0c40 	ldr.w	r0, [r3, #-64]
 8001ac0:	f7fe fcf2 	bl	80004a8 <__aeabi_f2d>
		destination[i] = 100.0 * ((float) (aSTAvg[i] - aAvg[i]))
 8001ac4:	44a9      	add	r9, r5
				/ factoryTrim[i]; // Report percent differences
 8001ac6:	4602      	mov	r2, r0
 8001ac8:	460b      	mov	r3, r1
 8001aca:	4630      	mov	r0, r6
 8001acc:	4639      	mov	r1, r7
 8001ace:	f7fe fe6d 	bl	80007ac <__aeabi_ddiv>
 8001ad2:	f7fe ff53 	bl	800097c <__aeabi_d2f>
		destination[i] = 100.0 * ((float) (aSTAvg[i] - aAvg[i]))
 8001ad6:	f8c9 0000 	str.w	r0, [r9]
		destination[i + 3] = 100.0 * ((float) (gSTAvg[i] - gAvg[i]))
 8001ada:	f934 0c28 	ldrsh.w	r0, [r4, #-40]
 8001ade:	f934 3c10 	ldrsh.w	r3, [r4, #-16]
 8001ae2:	1ac0      	subs	r0, r0, r3
 8001ae4:	ee07 0a90 	vmov	s15, r0
 8001ae8:	eef8 7ae7 	vcvt.f32.s32	s15, s15
 8001aec:	ee17 0a90 	vmov	r0, s15
 8001af0:	f7fe fcda 	bl	80004a8 <__aeabi_f2d>
 8001af4:	2200      	movs	r2, #0
 8001af6:	4b11      	ldr	r3, [pc, #68]	; (8001b3c <MPU9250SelfTest+0x4bc>)
 8001af8:	f7fe fd2e 	bl	8000558 <__aeabi_dmul>
 8001afc:	4606      	mov	r6, r0
 8001afe:	460f      	mov	r7, r1
				/ factoryTrim[i + 3]; // Report percent differences
 8001b00:	f108 0403 	add.w	r4, r8, #3
 8001b04:	00a4      	lsls	r4, r4, #2
 8001b06:	ab12      	add	r3, sp, #72	; 0x48
 8001b08:	4423      	add	r3, r4
 8001b0a:	f853 0c40 	ldr.w	r0, [r3, #-64]
 8001b0e:	f7fe fccb 	bl	80004a8 <__aeabi_f2d>
		destination[i + 3] = 100.0 * ((float) (gSTAvg[i] - gAvg[i]))
 8001b12:	442c      	add	r4, r5
				/ factoryTrim[i + 3]; // Report percent differences
 8001b14:	4602      	mov	r2, r0
 8001b16:	460b      	mov	r3, r1
 8001b18:	4630      	mov	r0, r6
 8001b1a:	4639      	mov	r1, r7
 8001b1c:	f7fe fe46 	bl	80007ac <__aeabi_ddiv>
 8001b20:	f7fe ff2c 	bl	800097c <__aeabi_d2f>
		destination[i + 3] = 100.0 * ((float) (gSTAvg[i] - gAvg[i]))
 8001b24:	6020      	str	r0, [r4, #0]
	for (int i = 0; i < 3; i++) {
 8001b26:	f108 0801 	add.w	r8, r8, #1
 8001b2a:	f1b8 0f02 	cmp.w	r8, #2
 8001b2e:	ddab      	ble.n	8001a88 <MPU9250SelfTest+0x408>
	}

}
 8001b30:	b013      	add	sp, #76	; 0x4c
 8001b32:	ecbd 8b08 	vpop	{d8-d11}
 8001b36:	e8bd 83f0 	ldmia.w	sp!, {r4, r5, r6, r7, r8, r9, pc}
 8001b3a:	bf00      	nop
 8001b3c:	40590000 	.word	0x40590000

08001b40 <imu_calibrate>:
IMU_StatusTypeDef imu_calibrate() {
 8001b40:	b538      	push	{r3, r4, r5, lr}
	resetMPU9250();
 8001b42:	f7ff fb64 	bl	800120e <resetMPU9250>
	MPU9250SelfTest(SelfTest); // Start by performing self test and reporting values
 8001b46:	4c53      	ldr	r4, [pc, #332]	; (8001c94 <imu_calibrate+0x154>)
 8001b48:	4620      	mov	r0, r4
 8001b4a:	f7ff fd99 	bl	8001680 <MPU9250SelfTest>
	printf(	"x-axis self test: acceleration trim within : %f of factory value\n\r", SelfTest[0]);
 8001b4e:	6820      	ldr	r0, [r4, #0]
 8001b50:	f7fe fcaa 	bl	80004a8 <__aeabi_f2d>
 8001b54:	4602      	mov	r2, r0
 8001b56:	460b      	mov	r3, r1
 8001b58:	484f      	ldr	r0, [pc, #316]	; (8001c98 <imu_calibrate+0x158>)
 8001b5a:	f006 f9c1 	bl	8007ee0 <iprintf>
	printf(
 8001b5e:	6860      	ldr	r0, [r4, #4]
 8001b60:	f7fe fca2 	bl	80004a8 <__aeabi_f2d>
 8001b64:	4602      	mov	r2, r0
 8001b66:	460b      	mov	r3, r1
 8001b68:	484c      	ldr	r0, [pc, #304]	; (8001c9c <imu_calibrate+0x15c>)
 8001b6a:	f006 f9b9 	bl	8007ee0 <iprintf>
	printf(
 8001b6e:	68a0      	ldr	r0, [r4, #8]
 8001b70:	f7fe fc9a 	bl	80004a8 <__aeabi_f2d>
 8001b74:	4602      	mov	r2, r0
 8001b76:	460b      	mov	r3, r1
 8001b78:	4849      	ldr	r0, [pc, #292]	; (8001ca0 <imu_calibrate+0x160>)
 8001b7a:	f006 f9b1 	bl	8007ee0 <iprintf>
	printf("x-axis self test: gyration trim within : %f  of factory value\n\r",
 8001b7e:	68e0      	ldr	r0, [r4, #12]
 8001b80:	f7fe fc92 	bl	80004a8 <__aeabi_f2d>
 8001b84:	4602      	mov	r2, r0
 8001b86:	460b      	mov	r3, r1
 8001b88:	4846      	ldr	r0, [pc, #280]	; (8001ca4 <imu_calibrate+0x164>)
 8001b8a:	f006 f9a9 	bl	8007ee0 <iprintf>
	printf("y-axis self test: gyration trim within : %f  of factory value\n\r",
 8001b8e:	6920      	ldr	r0, [r4, #16]
 8001b90:	f7fe fc8a 	bl	80004a8 <__aeabi_f2d>
 8001b94:	4602      	mov	r2, r0
 8001b96:	460b      	mov	r3, r1
 8001b98:	4843      	ldr	r0, [pc, #268]	; (8001ca8 <imu_calibrate+0x168>)
 8001b9a:	f006 f9a1 	bl	8007ee0 <iprintf>
	printf("z-axis self test: gyration trim within : %f  of factory value\n\r",
 8001b9e:	6960      	ldr	r0, [r4, #20]
 8001ba0:	f7fe fc82 	bl	80004a8 <__aeabi_f2d>
 8001ba4:	4602      	mov	r2, r0
 8001ba6:	460b      	mov	r3, r1
 8001ba8:	4840      	ldr	r0, [pc, #256]	; (8001cac <imu_calibrate+0x16c>)
 8001baa:	f006 f999 	bl	8007ee0 <iprintf>
	calibrateMPU9250(gyroBias, accelBias); // Calibrate gyro and accelerometers, load biases in bias registers
 8001bae:	4c40      	ldr	r4, [pc, #256]	; (8001cb0 <imu_calibrate+0x170>)
 8001bb0:	4d40      	ldr	r5, [pc, #256]	; (8001cb4 <imu_calibrate+0x174>)
 8001bb2:	4621      	mov	r1, r4
 8001bb4:	4628      	mov	r0, r5
 8001bb6:	f7ff fc09 	bl	80013cc <calibrateMPU9250>
	printf("x gyro bias = %f\n\r", gyroBias[0]);
 8001bba:	6828      	ldr	r0, [r5, #0]
 8001bbc:	f7fe fc74 	bl	80004a8 <__aeabi_f2d>
 8001bc0:	4602      	mov	r2, r0
 8001bc2:	460b      	mov	r3, r1
 8001bc4:	483c      	ldr	r0, [pc, #240]	; (8001cb8 <imu_calibrate+0x178>)
 8001bc6:	f006 f98b 	bl	8007ee0 <iprintf>
	printf("y gyro bias = %f\n\r", gyroBias[1]);
 8001bca:	6868      	ldr	r0, [r5, #4]
 8001bcc:	f7fe fc6c 	bl	80004a8 <__aeabi_f2d>
 8001bd0:	4602      	mov	r2, r0
 8001bd2:	460b      	mov	r3, r1
 8001bd4:	4839      	ldr	r0, [pc, #228]	; (8001cbc <imu_calibrate+0x17c>)
 8001bd6:	f006 f983 	bl	8007ee0 <iprintf>
	printf("z gyro bias = %f\n\r", gyroBias[2]);
 8001bda:	68a8      	ldr	r0, [r5, #8]
 8001bdc:	f7fe fc64 	bl	80004a8 <__aeabi_f2d>
 8001be0:	4602      	mov	r2, r0
 8001be2:	460b      	mov	r3, r1
 8001be4:	4836      	ldr	r0, [pc, #216]	; (8001cc0 <imu_calibrate+0x180>)
 8001be6:	f006 f97b 	bl	8007ee0 <iprintf>
	printf("x accel bias = %f\n\r", accelBias[0]);
 8001bea:	6820      	ldr	r0, [r4, #0]
 8001bec:	f7fe fc5c 	bl	80004a8 <__aeabi_f2d>
 8001bf0:	4602      	mov	r2, r0
 8001bf2:	460b      	mov	r3, r1
 8001bf4:	4833      	ldr	r0, [pc, #204]	; (8001cc4 <imu_calibrate+0x184>)
 8001bf6:	f006 f973 	bl	8007ee0 <iprintf>
	printf("y accel bias = %f\n\r", accelBias[1]);
 8001bfa:	6860      	ldr	r0, [r4, #4]
 8001bfc:	f7fe fc54 	bl	80004a8 <__aeabi_f2d>
 8001c00:	4602      	mov	r2, r0
 8001c02:	460b      	mov	r3, r1
 8001c04:	4830      	ldr	r0, [pc, #192]	; (8001cc8 <imu_calibrate+0x188>)
 8001c06:	f006 f96b 	bl	8007ee0 <iprintf>
	printf("z accel bias = %f\n\r", accelBias[2]);
 8001c0a:	68a0      	ldr	r0, [r4, #8]
 8001c0c:	f7fe fc4c 	bl	80004a8 <__aeabi_f2d>
 8001c10:	4602      	mov	r2, r0
 8001c12:	460b      	mov	r3, r1
 8001c14:	482d      	ldr	r0, [pc, #180]	; (8001ccc <imu_calibrate+0x18c>)
 8001c16:	f006 f963 	bl	8007ee0 <iprintf>
	initMPU9250();
 8001c1a:	f7ff fb67 	bl	80012ec <initMPU9250>
	initAK8963(magCalibration);
 8001c1e:	482c      	ldr	r0, [pc, #176]	; (8001cd0 <imu_calibrate+0x190>)
 8001c20:	f7ff fb00 	bl	8001224 <initAK8963>
	printf("Accelerometer full-scale range = %f  g\n\r", 2.0f*(float)(1<<Ascale));
 8001c24:	4b2b      	ldr	r3, [pc, #172]	; (8001cd4 <imu_calibrate+0x194>)
 8001c26:	781b      	ldrb	r3, [r3, #0]
 8001c28:	2401      	movs	r4, #1
 8001c2a:	fa04 f303 	lsl.w	r3, r4, r3
 8001c2e:	ee07 3a90 	vmov	s15, r3
 8001c32:	eef8 7ae7 	vcvt.f32.s32	s15, s15
 8001c36:	ee77 7aa7 	vadd.f32	s15, s15, s15
 8001c3a:	ee17 0a90 	vmov	r0, s15
 8001c3e:	f7fe fc33 	bl	80004a8 <__aeabi_f2d>
 8001c42:	4602      	mov	r2, r0
 8001c44:	460b      	mov	r3, r1
 8001c46:	4824      	ldr	r0, [pc, #144]	; (8001cd8 <imu_calibrate+0x198>)
 8001c48:	f006 f94a 	bl	8007ee0 <iprintf>
	printf("Gyroscope full-scale range = %f  deg/s\n\r", 250.0f*(float)(1<<Gscale));
 8001c4c:	4b23      	ldr	r3, [pc, #140]	; (8001cdc <imu_calibrate+0x19c>)
 8001c4e:	781b      	ldrb	r3, [r3, #0]
 8001c50:	409c      	lsls	r4, r3
 8001c52:	ee07 4a90 	vmov	s15, r4
 8001c56:	eef8 7ae7 	vcvt.f32.s32	s15, s15
 8001c5a:	ed9f 7a21 	vldr	s14, [pc, #132]	; 8001ce0 <imu_calibrate+0x1a0>
 8001c5e:	ee67 7a87 	vmul.f32	s15, s15, s14
 8001c62:	ee17 0a90 	vmov	r0, s15
 8001c66:	f7fe fc1f 	bl	80004a8 <__aeabi_f2d>
 8001c6a:	4602      	mov	r2, r0
 8001c6c:	460b      	mov	r3, r1
 8001c6e:	481d      	ldr	r0, [pc, #116]	; (8001ce4 <imu_calibrate+0x1a4>)
 8001c70:	f006 f936 	bl	8007ee0 <iprintf>
	getAres(); // Get accelerometer sensitivity
 8001c74:	f7ff fa40 	bl	80010f8 <getAres>
	getGres(); // Get gyro sensitivity
 8001c78:	f7ff fa1a 	bl	80010b0 <getGres>
	getMres(); // Get magnetometer sensitivity
 8001c7c:	f7ff fa02 	bl	8001084 <getMres>
	magbias[0] = +470.; // User environmental x-axis correction in milliGauss, should be automatically calculated
 8001c80:	4b19      	ldr	r3, [pc, #100]	; (8001ce8 <imu_calibrate+0x1a8>)
 8001c82:	4a1a      	ldr	r2, [pc, #104]	; (8001cec <imu_calibrate+0x1ac>)
 8001c84:	601a      	str	r2, [r3, #0]
	magbias[1] = +120.; // User environmental x-axis correction in milliGauss
 8001c86:	4a1a      	ldr	r2, [pc, #104]	; (8001cf0 <imu_calibrate+0x1b0>)
 8001c88:	605a      	str	r2, [r3, #4]
	magbias[2] = +125.; // User environmental x-axis correction in milliGauss
 8001c8a:	4a1a      	ldr	r2, [pc, #104]	; (8001cf4 <imu_calibrate+0x1b4>)
 8001c8c:	609a      	str	r2, [r3, #8]
}
 8001c8e:	2000      	movs	r0, #0
 8001c90:	bd38      	pop	{r3, r4, r5, pc}
 8001c92:	bf00      	nop
 8001c94:	200003dc 	.word	0x200003dc
 8001c98:	0800bbf0 	.word	0x0800bbf0
 8001c9c:	0800bc34 	.word	0x0800bc34
 8001ca0:	0800bc78 	.word	0x0800bc78
 8001ca4:	0800bcbc 	.word	0x0800bcbc
 8001ca8:	0800bcfc 	.word	0x0800bcfc
 8001cac:	0800bd3c 	.word	0x0800bd3c
 8001cb0:	20000004 	.word	0x20000004
 8001cb4:	20000010 	.word	0x20000010
 8001cb8:	0800bd7c 	.word	0x0800bd7c
 8001cbc:	0800bd90 	.word	0x0800bd90
 8001cc0:	0800bda4 	.word	0x0800bda4
 8001cc4:	0800bdb8 	.word	0x0800bdb8
 8001cc8:	0800bdcc 	.word	0x0800bdcc
 8001ccc:	0800bde0 	.word	0x0800bde0
 8001cd0:	200002a0 	.word	0x200002a0
 8001cd4:	20000284 	.word	0x20000284
 8001cd8:	0800bdf4 	.word	0x0800bdf4
 8001cdc:	20000285 	.word	0x20000285
 8001ce0:	437a0000 	.word	0x437a0000
 8001ce4:	0800be20 	.word	0x0800be20
 8001ce8:	200002ac 	.word	0x200002ac
 8001cec:	43eb0000 	.word	0x43eb0000
 8001cf0:	42f00000 	.word	0x42f00000
 8001cf4:	42fa0000 	.word	0x42fa0000

08001cf8 <MahonyQuaternionUpdate>:
}

// Similar to Madgwick scheme but uses proportional and integral filtering on the error between estimated reference vectors and
// measured ones.
void MahonyQuaternionUpdate(float ax, float ay, float az, float gx, float gy,
		float gz, float mx, float my, float mz) {
 8001cf8:	b500      	push	{lr}
 8001cfa:	ed2d 8b10 	vpush	{d8-d15}
 8001cfe:	b08d      	sub	sp, #52	; 0x34
 8001d00:	eeb0 ba40 	vmov.f32	s22, s0
 8001d04:	eef0 aa60 	vmov.f32	s21, s1
 8001d08:	eeb0 aa41 	vmov.f32	s20, s2
 8001d0c:	edcd 1a04 	vstr	s3, [sp, #16]
 8001d10:	ed8d 2a05 	vstr	s4, [sp, #20]
 8001d14:	edcd 2a06 	vstr	s5, [sp, #24]
 8001d18:	eef0 da43 	vmov.f32	s27, s6
 8001d1c:	eeb0 da63 	vmov.f32	s26, s7
 8001d20:	eef0 ca44 	vmov.f32	s25, s8

	float q1 = q[0], q2 = q[1], q3 = q[2], q4 = q[3]; // short name local variable for readability
 8001d24:	4be4      	ldr	r3, [pc, #912]	; (80020b8 <MahonyQuaternionUpdate+0x3c0>)
 8001d26:	edd3 9a00 	vldr	s19, [r3]
 8001d2a:	ed93 9a01 	vldr	s18, [r3, #4]
 8001d2e:	edd3 8a02 	vldr	s17, [r3, #8]
 8001d32:	ed93 8a03 	vldr	s16, [r3, #12]
	float vx, vy, vz, wx, wy, wz;
	float ex, ey, ez;
	float pa, pb, pc;

	// Auxiliary variables to avoid repeated arithmetic
	float q1q1 = q1 * q1;
 8001d36:	ee69 7aa9 	vmul.f32	s15, s19, s19
 8001d3a:	edcd 7a03 	vstr	s15, [sp, #12]
	float q1q2 = q1 * q2;
 8001d3e:	ee69 7a89 	vmul.f32	s15, s19, s18
 8001d42:	edcd 7a00 	vstr	s15, [sp]
	float q1q3 = q1 * q3;
 8001d46:	ee29 faa8 	vmul.f32	s30, s19, s17
	float q1q4 = q1 * q4;
 8001d4a:	ee69 ba88 	vmul.f32	s23, s19, s16
	float q2q2 = q2 * q2;
 8001d4e:	ee69 7a09 	vmul.f32	s15, s18, s18
 8001d52:	edcd 7a01 	vstr	s15, [sp, #4]
	float q2q3 = q2 * q3;
 8001d56:	ee69 fa28 	vmul.f32	s31, s18, s17
	float q2q4 = q2 * q4;
 8001d5a:	ee29 ca08 	vmul.f32	s24, s18, s16
	float q3q3 = q3 * q3;
 8001d5e:	ee68 eaa8 	vmul.f32	s29, s17, s17
	float q3q4 = q3 * q4;
 8001d62:	ee68 7a88 	vmul.f32	s15, s17, s16
 8001d66:	edcd 7a02 	vstr	s15, [sp, #8]
	float q4q4 = q4 * q4;
 8001d6a:	ee28 ea08 	vmul.f32	s28, s16, s16

	// Normalise accelerometer measurement
	norm = sqrt(ax * ax + ay * ay + az * az);
 8001d6e:	ee60 7a00 	vmul.f32	s15, s0, s0
 8001d72:	ee20 7aa0 	vmul.f32	s14, s1, s1
 8001d76:	ee77 7a87 	vadd.f32	s15, s15, s14
 8001d7a:	ee21 7a01 	vmul.f32	s14, s2, s2
 8001d7e:	ee77 7a87 	vadd.f32	s15, s15, s14
 8001d82:	ee17 0a90 	vmov	r0, s15
 8001d86:	f7fe fb8f 	bl	80004a8 <__aeabi_f2d>
 8001d8a:	ec41 0b10 	vmov	d0, r0, r1
 8001d8e:	f008 fb4f 	bl	800a430 <sqrt>
 8001d92:	ec51 0b10 	vmov	r0, r1, d0
 8001d96:	f7fe fdf1 	bl	800097c <__aeabi_d2f>
 8001d9a:	ee07 0a90 	vmov	s15, r0
	if (norm == 0.0f)
 8001d9e:	eef5 7a40 	vcmp.f32	s15, #0.0
 8001da2:	eef1 fa10 	vmrs	APSR_nzcv, fpscr
 8001da6:	d104      	bne.n	8001db2 <MahonyQuaternionUpdate+0xba>
	q[0] = q1 * norm;
	q[1] = q2 * norm;
	q[2] = q3 * norm;
	q[3] = q4 * norm;

}
 8001da8:	b00d      	add	sp, #52	; 0x34
 8001daa:	ecbd 8b10 	vpop	{d8-d15}
 8001dae:	f85d fb04 	ldr.w	pc, [sp], #4
	norm = 1.0f / norm;        // use reciprocal for division
 8001db2:	eef7 6a00 	vmov.f32	s13, #112	; 0x3f800000  1.0
 8001db6:	ee86 7aa7 	vdiv.f32	s14, s13, s15
	ax *= norm;
 8001dba:	ee2b ba07 	vmul.f32	s22, s22, s14
	ay *= norm;
 8001dbe:	ee6a aa87 	vmul.f32	s21, s21, s14
	az *= norm;
 8001dc2:	ee2a aa07 	vmul.f32	s20, s20, s14
	norm = sqrt(mx * mx + my * my + mz * mz);
 8001dc6:	ee6d 7aad 	vmul.f32	s15, s27, s27
 8001dca:	ee2d 7a0d 	vmul.f32	s14, s26, s26
 8001dce:	ee77 7a87 	vadd.f32	s15, s15, s14
 8001dd2:	ee2c 7aac 	vmul.f32	s14, s25, s25
 8001dd6:	ee77 7a87 	vadd.f32	s15, s15, s14
 8001dda:	ee17 0a90 	vmov	r0, s15
 8001dde:	f7fe fb63 	bl	80004a8 <__aeabi_f2d>
 8001de2:	ec41 0b10 	vmov	d0, r0, r1
 8001de6:	f008 fb23 	bl	800a430 <sqrt>
 8001dea:	ec51 0b10 	vmov	r0, r1, d0
 8001dee:	f7fe fdc5 	bl	800097c <__aeabi_d2f>
 8001df2:	ee07 0a90 	vmov	s15, r0
	if (norm == 0.0f)
 8001df6:	eef5 7a40 	vcmp.f32	s15, #0.0
 8001dfa:	eef1 fa10 	vmrs	APSR_nzcv, fpscr
 8001dfe:	d0d3      	beq.n	8001da8 <MahonyQuaternionUpdate+0xb0>
	norm = 1.0f / norm;        // use reciprocal for division
 8001e00:	eeb7 7a00 	vmov.f32	s14, #112	; 0x3f800000  1.0
 8001e04:	ee87 7a27 	vdiv.f32	s14, s14, s15
	mx *= norm;
 8001e08:	ee6d da87 	vmul.f32	s27, s27, s14
	my *= norm;
 8001e0c:	ee2d da07 	vmul.f32	s26, s26, s14
	mz *= norm;
 8001e10:	ee6c ca87 	vmul.f32	s25, s25, s14
	hx = 2.0f * mx * (0.5f - q3q3 - q4q4) + 2.0f * my * (q2q3 - q1q4)
 8001e14:	ee7d 6aad 	vadd.f32	s13, s27, s27
 8001e18:	eeb6 6a00 	vmov.f32	s12, #96	; 0x3f000000  0.5
 8001e1c:	ee76 7a6e 	vsub.f32	s15, s12, s29
 8001e20:	ee77 7ace 	vsub.f32	s15, s15, s28
 8001e24:	edcd 7a08 	vstr	s15, [sp, #32]
 8001e28:	ee26 7aa7 	vmul.f32	s14, s13, s15
 8001e2c:	ee7d 5a0d 	vadd.f32	s11, s26, s26
 8001e30:	ee3f 5aeb 	vsub.f32	s10, s31, s23
 8001e34:	ed8d 5a0a 	vstr	s10, [sp, #40]	; 0x28
 8001e38:	ee65 7a85 	vmul.f32	s15, s11, s10
 8001e3c:	ee37 7a27 	vadd.f32	s14, s14, s15
			+ 2.0f * mz * (q2q4 + q1q3);
 8001e40:	ee7c 4aac 	vadd.f32	s9, s25, s25
 8001e44:	ee3f 4a0c 	vadd.f32	s8, s30, s24
 8001e48:	ed8d 4a0b 	vstr	s8, [sp, #44]	; 0x2c
 8001e4c:	ee64 7a84 	vmul.f32	s15, s9, s8
	hx = 2.0f * mx * (0.5f - q3q3 - q4q4) + 2.0f * my * (q2q3 - q1q4)
 8001e50:	ee37 7a27 	vadd.f32	s14, s14, s15
	hy = 2.0f * mx * (q2q3 + q1q4) + 2.0f * my * (0.5f - q2q2 - q4q4)
 8001e54:	ee7b 7aaf 	vadd.f32	s15, s23, s31
 8001e58:	edcd 6a07 	vstr	s13, [sp, #28]
 8001e5c:	ee66 7aa7 	vmul.f32	s15, s13, s15
 8001e60:	eddd 3a01 	vldr	s7, [sp, #4]
 8001e64:	ee76 fa63 	vsub.f32	s31, s12, s7
 8001e68:	ee7f bace 	vsub.f32	s23, s31, s28
 8001e6c:	edcd 5a09 	vstr	s11, [sp, #36]	; 0x24
 8001e70:	ee65 baab 	vmul.f32	s23, s11, s23
 8001e74:	ee77 7aab 	vadd.f32	s15, s15, s23
			+ 2.0f * mz * (q3q4 - q1q2);
 8001e78:	ed9d 3a02 	vldr	s6, [sp, #8]
 8001e7c:	eddd 2a00 	vldr	s5, [sp]
 8001e80:	ee73 6a62 	vsub.f32	s13, s6, s5
 8001e84:	eef0 ba64 	vmov.f32	s23, s9
 8001e88:	ee64 6aa6 	vmul.f32	s13, s9, s13
	hy = 2.0f * mx * (q2q3 + q1q4) + 2.0f * my * (0.5f - q2q2 - q4q4)
 8001e8c:	ee77 7aa6 	vadd.f32	s15, s15, s13
	bx = sqrt((hx * hx) + (hy * hy));
 8001e90:	ee27 7a07 	vmul.f32	s14, s14, s14
 8001e94:	ee67 7aa7 	vmul.f32	s15, s15, s15
 8001e98:	ee37 2a27 	vadd.f32	s4, s14, s15
 8001e9c:	ee12 0a10 	vmov	r0, s4
 8001ea0:	f7fe fb02 	bl	80004a8 <__aeabi_f2d>
 8001ea4:	ec41 0b10 	vmov	d0, r0, r1
 8001ea8:	f008 fac2 	bl	800a430 <sqrt>
 8001eac:	ec51 0b10 	vmov	r0, r1, d0
 8001eb0:	f7fe fd64 	bl	800097c <__aeabi_d2f>
	bz = 2.0f * mx * (q2q4 - q1q3) + 2.0f * my * (q3q4 + q1q2)
 8001eb4:	ee3c ca4f 	vsub.f32	s24, s24, s30
 8001eb8:	eddd 6a07 	vldr	s13, [sp, #28]
 8001ebc:	ee26 7a8c 	vmul.f32	s14, s13, s24
 8001ec0:	eddd 4a00 	vldr	s9, [sp]
 8001ec4:	ed9d 3a02 	vldr	s6, [sp, #8]
 8001ec8:	ee34 5a83 	vadd.f32	s10, s9, s6
 8001ecc:	eddd 5a09 	vldr	s11, [sp, #36]	; 0x24
 8001ed0:	ee65 7a85 	vmul.f32	s15, s11, s10
 8001ed4:	ee37 7a27 	vadd.f32	s14, s14, s15
			+ 2.0f * mz * (0.5f - q2q2 - q3q3);
 8001ed8:	ee7f 4aee 	vsub.f32	s9, s31, s29
 8001edc:	ee6b 7aa4 	vmul.f32	s15, s23, s9
	bz = 2.0f * mx * (q2q4 - q1q3) + 2.0f * my * (q3q4 + q1q2)
 8001ee0:	ee37 7a27 	vadd.f32	s14, s14, s15
	vx = 2.0f * (q2q4 - q1q3);
 8001ee4:	ee7c 7a0c 	vadd.f32	s15, s24, s24
	vy = 2.0f * (q1q2 + q3q4);
 8001ee8:	ee35 6a05 	vadd.f32	s12, s10, s10
	vz = q1q1 - q2q2 - q3q3 + q4q4;
 8001eec:	eddd 5a03 	vldr	s11, [sp, #12]
 8001ef0:	eddd 3a01 	vldr	s7, [sp, #4]
 8001ef4:	ee75 6ae3 	vsub.f32	s13, s11, s7
 8001ef8:	ee76 eaee 	vsub.f32	s29, s13, s29
 8001efc:	ee3e ea8e 	vadd.f32	s28, s29, s28
	wx = 2.0f * bx * (0.5f - q3q3 - q4q4) + 2.0f * bz * (q2q4 - q1q3);
 8001f00:	ee05 0a90 	vmov	s11, r0
 8001f04:	ee75 faa5 	vadd.f32	s31, s11, s11
 8001f08:	eddd 6a08 	vldr	s13, [sp, #32]
 8001f0c:	ee26 faaf 	vmul.f32	s30, s13, s31
 8001f10:	ee37 7a07 	vadd.f32	s14, s14, s14
 8001f14:	ee2c ca07 	vmul.f32	s24, s24, s14
 8001f18:	ee3f ca0c 	vadd.f32	s24, s30, s24
	wy = 2.0f * bx * (q2q3 - q1q4) + 2.0f * bz * (q1q2 + q3q4);
 8001f1c:	eddd 6a0a 	vldr	s13, [sp, #40]	; 0x28
 8001f20:	ee66 5aaf 	vmul.f32	s11, s13, s31
 8001f24:	ee25 5a07 	vmul.f32	s10, s10, s14
 8001f28:	ee75 5a85 	vadd.f32	s11, s11, s10
	wz = 2.0f * bx * (q1q3 + q2q4) + 2.0f * bz * (0.5f - q2q2 - q3q3);
 8001f2c:	ed9d 4a0b 	vldr	s8, [sp, #44]	; 0x2c
 8001f30:	ee64 fa2f 	vmul.f32	s31, s8, s31
 8001f34:	ee24 7a87 	vmul.f32	s14, s9, s14
 8001f38:	ee7f fa87 	vadd.f32	s31, s31, s14
	ex = (ay * vz - az * vy) + (my * wz - mz * wy);
 8001f3c:	ee6a 6a8e 	vmul.f32	s13, s21, s28
 8001f40:	ee2a 7a06 	vmul.f32	s14, s20, s12
 8001f44:	ee76 6ac7 	vsub.f32	s13, s13, s14
 8001f48:	ee2d 7a2f 	vmul.f32	s14, s26, s31
 8001f4c:	ee2c 5aa5 	vmul.f32	s10, s25, s11
 8001f50:	ee37 7a45 	vsub.f32	s14, s14, s10
 8001f54:	ee76 6a87 	vadd.f32	s13, s13, s14
	ey = (az * vx - ax * vz) + (mz * wx - mx * wz);
 8001f58:	ee2a aa27 	vmul.f32	s20, s20, s15
 8001f5c:	ee2b 7a0e 	vmul.f32	s14, s22, s28
 8001f60:	ee3a 7a47 	vsub.f32	s14, s20, s14
 8001f64:	ee6c ca8c 	vmul.f32	s25, s25, s24
 8001f68:	ee6d faaf 	vmul.f32	s31, s27, s31
 8001f6c:	ee7c faef 	vsub.f32	s31, s25, s31
 8001f70:	ee37 7a2f 	vadd.f32	s14, s14, s31
	ez = (ax * vy - ay * vx) + (mx * wy - my * wx);
 8001f74:	ee2b ba06 	vmul.f32	s22, s22, s12
 8001f78:	ee6a 7aa7 	vmul.f32	s15, s21, s15
 8001f7c:	ee7b 7a67 	vsub.f32	s15, s22, s15
 8001f80:	ee6d daa5 	vmul.f32	s27, s27, s11
 8001f84:	ee2d da0c 	vmul.f32	s26, s26, s24
 8001f88:	ee3d dacd 	vsub.f32	s26, s27, s26
 8001f8c:	ee77 7a8d 	vadd.f32	s15, s15, s26
		eInt[0] = 0.0f;     // prevent integral wind up
 8001f90:	4b4a      	ldr	r3, [pc, #296]	; (80020bc <MahonyQuaternionUpdate+0x3c4>)
 8001f92:	ed9f 6a4b 	vldr	s12, [pc, #300]	; 80020c0 <MahonyQuaternionUpdate+0x3c8>
 8001f96:	ed83 6a00 	vstr	s12, [r3]
		eInt[1] = 0.0f;
 8001f9a:	ed83 6a01 	vstr	s12, [r3, #4]
		eInt[2] = 0.0f;
 8001f9e:	ed83 6a02 	vstr	s12, [r3, #8]
	gx = gx + Kp * ex + Ki * eInt[0];
 8001fa2:	eef2 5a04 	vmov.f32	s11, #36	; 0x41200000  10.0
 8001fa6:	ee66 6aa5 	vmul.f32	s13, s13, s11
 8001faa:	eddd 4a04 	vldr	s9, [sp, #16]
 8001fae:	ee76 6aa4 	vadd.f32	s13, s13, s9
 8001fb2:	ee76 6a86 	vadd.f32	s13, s13, s12
	gy = gy + Kp * ey + Ki * eInt[1];
 8001fb6:	ee27 7a25 	vmul.f32	s14, s14, s11
 8001fba:	eddd 4a05 	vldr	s9, [sp, #20]
 8001fbe:	ee37 7a24 	vadd.f32	s14, s14, s9
 8001fc2:	ee37 7a06 	vadd.f32	s14, s14, s12
	gz = gz + Kp * ez + Ki * eInt[2];
 8001fc6:	ee67 7aa5 	vmul.f32	s15, s15, s11
 8001fca:	eddd 5a06 	vldr	s11, [sp, #24]
 8001fce:	ee77 7aa5 	vadd.f32	s15, s15, s11
 8001fd2:	ee77 7a86 	vadd.f32	s15, s15, s12
	q1 = q1 + (-q2 * gx - q3 * gy - q4 * gz) * (0.5f * deltat);
 8001fd6:	ee69 5a66 	vnmul.f32	s11, s18, s13
 8001fda:	ee28 6a87 	vmul.f32	s12, s17, s14
 8001fde:	ee75 5ac6 	vsub.f32	s11, s11, s12
 8001fe2:	ee28 6a27 	vmul.f32	s12, s16, s15
 8001fe6:	ee75 5ac6 	vsub.f32	s11, s11, s12
 8001fea:	4b36      	ldr	r3, [pc, #216]	; (80020c4 <MahonyQuaternionUpdate+0x3cc>)
 8001fec:	ed93 6a00 	vldr	s12, [r3]
 8001ff0:	eeb6 5a00 	vmov.f32	s10, #96	; 0x3f000000  0.5
 8001ff4:	ee26 6a05 	vmul.f32	s12, s12, s10
 8001ff8:	ee65 5a86 	vmul.f32	s11, s11, s12
 8001ffc:	ee79 9aa5 	vadd.f32	s19, s19, s11
	q2 = pa + (q1 * gx + pb * gz - pc * gy) * (0.5f * deltat);
 8002000:	ee66 aaa9 	vmul.f32	s21, s13, s19
 8002004:	ee68 5aa7 	vmul.f32	s11, s17, s15
 8002008:	ee7a aaa5 	vadd.f32	s21, s21, s11
 800200c:	ee68 5a07 	vmul.f32	s11, s16, s14
 8002010:	ee7a aae5 	vsub.f32	s21, s21, s11
 8002014:	ee66 aa2a 	vmul.f32	s21, s12, s21
 8002018:	ee79 aa2a 	vadd.f32	s21, s18, s21
	q3 = pb + (q1 * gy - pa * gz + pc * gx) * (0.5f * deltat);
 800201c:	ee27 aa29 	vmul.f32	s20, s14, s19
 8002020:	ee69 5a27 	vmul.f32	s11, s18, s15
 8002024:	ee3a aa65 	vsub.f32	s20, s20, s11
 8002028:	ee68 5a26 	vmul.f32	s11, s16, s13
 800202c:	ee3a aa25 	vadd.f32	s20, s20, s11
 8002030:	ee26 aa0a 	vmul.f32	s20, s12, s20
 8002034:	ee38 aa8a 	vadd.f32	s20, s17, s20
	q4 = pc + (q1 * gz + pa * gy - pb * gx) * (0.5f * deltat);
 8002038:	ee67 7aa9 	vmul.f32	s15, s15, s19
 800203c:	ee29 9a07 	vmul.f32	s18, s18, s14
 8002040:	ee37 9a89 	vadd.f32	s18, s15, s18
 8002044:	ee68 8aa6 	vmul.f32	s17, s17, s13
 8002048:	ee79 8a68 	vsub.f32	s17, s18, s17
 800204c:	ee66 8a28 	vmul.f32	s17, s12, s17
 8002050:	ee38 8a28 	vadd.f32	s16, s16, s17
	norm = sqrt(q1 * q1 + q2 * q2 + q3 * q3 + q4 * q4);
 8002054:	ee69 7aa9 	vmul.f32	s15, s19, s19
 8002058:	ee2a 7aaa 	vmul.f32	s14, s21, s21
 800205c:	ee77 7a87 	vadd.f32	s15, s15, s14
 8002060:	ee2a 7a0a 	vmul.f32	s14, s20, s20
 8002064:	ee77 7a87 	vadd.f32	s15, s15, s14
 8002068:	ee28 7a08 	vmul.f32	s14, s16, s16
 800206c:	ee77 7a87 	vadd.f32	s15, s15, s14
 8002070:	ee17 0a90 	vmov	r0, s15
 8002074:	f7fe fa18 	bl	80004a8 <__aeabi_f2d>
 8002078:	ec41 0b10 	vmov	d0, r0, r1
 800207c:	f008 f9d8 	bl	800a430 <sqrt>
 8002080:	ec51 0b10 	vmov	r0, r1, d0
 8002084:	f7fe fc7a 	bl	800097c <__aeabi_d2f>
	norm = 1.0f / norm;
 8002088:	eeb7 7a00 	vmov.f32	s14, #112	; 0x3f800000  1.0
 800208c:	ee07 0a90 	vmov	s15, r0
 8002090:	eec7 7a27 	vdiv.f32	s15, s14, s15
	q[0] = q1 * norm;
 8002094:	ee69 9aa7 	vmul.f32	s19, s19, s15
 8002098:	4b07      	ldr	r3, [pc, #28]	; (80020b8 <MahonyQuaternionUpdate+0x3c0>)
 800209a:	edc3 9a00 	vstr	s19, [r3]
	q[1] = q2 * norm;
 800209e:	ee6a aaa7 	vmul.f32	s21, s21, s15
 80020a2:	edc3 aa01 	vstr	s21, [r3, #4]
	q[2] = q3 * norm;
 80020a6:	ee2a aa27 	vmul.f32	s20, s20, s15
 80020aa:	ed83 aa02 	vstr	s20, [r3, #8]
	q[3] = q4 * norm;
 80020ae:	ee28 8a27 	vmul.f32	s16, s16, s15
 80020b2:	ed83 8a03 	vstr	s16, [r3, #12]
 80020b6:	e677      	b.n	8001da8 <MahonyQuaternionUpdate+0xb0>
 80020b8:	2000001c 	.word	0x2000001c
 80020bc:	20000290 	.word	0x20000290
 80020c0:	00000000 	.word	0x00000000
 80020c4:	2000028c 	.word	0x2000028c

080020c8 <calc_RollPitchYaw>:
void calc_RollPitchYaw(int counter_value) {
 80020c8:	e92d 4ff0 	stmdb	sp!, {r4, r5, r6, r7, r8, r9, sl, fp, lr}
 80020cc:	ed2d 8b04 	vpush	{d8-d9}
 80020d0:	b087      	sub	sp, #28
 80020d2:	ee08 0a10 	vmov	s16, r0
	if (readByte(MPU9250_ADDRESS_TX, MPU9250_ADDRESS_RX, INT_STATUS) & 0x01) { // On interrupt, check if data ready interrupt
 80020d6:	223a      	movs	r2, #58	; 0x3a
 80020d8:	21d1      	movs	r1, #209	; 0xd1
 80020da:	20d0      	movs	r0, #208	; 0xd0
 80020dc:	f7fe ff64 	bl	8000fa8 <readByte>
 80020e0:	f010 0f01 	tst.w	r0, #1
 80020e4:	f040 8170 	bne.w	80023c8 <calc_RollPitchYaw+0x300>
	Now = counter_value;
 80020e8:	eef8 7ac8 	vcvt.f32.s32	s15, s16
 80020ec:	4ba0      	ldr	r3, [pc, #640]	; (8002370 <calc_RollPitchYaw+0x2a8>)
 80020ee:	edc3 7a00 	vstr	s15, [r3]
	if(Now - lastUpdate < 0){
 80020f2:	4ba0      	ldr	r3, [pc, #640]	; (8002374 <calc_RollPitchYaw+0x2ac>)
 80020f4:	ed93 7a00 	vldr	s14, [r3]
 80020f8:	ee77 7ac7 	vsub.f32	s15, s15, s14
 80020fc:	eef5 7ac0 	vcmpe.f32	s15, #0.0
 8002100:	eef1 fa10 	vmrs	APSR_nzcv, fpscr
 8002104:	f100 820d 	bmi.w	8002522 <calc_RollPitchYaw+0x45a>
		float32_t result1 = 0;
 8002108:	2500      	movs	r5, #0
 800210a:	ac06      	add	r4, sp, #24
 800210c:	f844 5d0c 	str.w	r5, [r4, #-12]!
		arm_sub_f32(&Now, &lastUpdate, &result1, 1);
 8002110:	2301      	movs	r3, #1
 8002112:	4622      	mov	r2, r4
 8002114:	4997      	ldr	r1, [pc, #604]	; (8002374 <calc_RollPitchYaw+0x2ac>)
 8002116:	4896      	ldr	r0, [pc, #600]	; (8002370 <calc_RollPitchYaw+0x2a8>)
 8002118:	f004 fb50 	bl	80067bc <arm_sub_f32>
		float32_t result2 = 0;
 800211c:	9504      	str	r5, [sp, #16]
		float32_t prescaler = 2000;
 800211e:	4b96      	ldr	r3, [pc, #600]	; (8002378 <calc_RollPitchYaw+0x2b0>)
 8002120:	9305      	str	r3, [sp, #20]
		arm_mult_f32(&result1, &prescaler,&result2, 1);
 8002122:	2301      	movs	r3, #1
 8002124:	aa04      	add	r2, sp, #16
 8002126:	a905      	add	r1, sp, #20
 8002128:	4620      	mov	r0, r4
 800212a:	f004 fb37 	bl	800679c <arm_mult_f32>
		deltat = result2/TIMER_CLK_FREQ;
 800212e:	eddd 6a04 	vldr	s13, [sp, #16]
 8002132:	ed9f 7a92 	vldr	s14, [pc, #584]	; 800237c <calc_RollPitchYaw+0x2b4>
 8002136:	eec6 7a87 	vdiv.f32	s15, s13, s14
 800213a:	4b91      	ldr	r3, [pc, #580]	; (8002380 <calc_RollPitchYaw+0x2b8>)
 800213c:	edc3 7a00 	vstr	s15, [r3]
	lastUpdate = Now;
 8002140:	4b8b      	ldr	r3, [pc, #556]	; (8002370 <calc_RollPitchYaw+0x2a8>)
 8002142:	681a      	ldr	r2, [r3, #0]
 8002144:	4b8b      	ldr	r3, [pc, #556]	; (8002374 <calc_RollPitchYaw+0x2ac>)
 8002146:	601a      	str	r2, [r3, #0]
	sum += deltat;
 8002148:	4e8e      	ldr	r6, [pc, #568]	; (8002384 <calc_RollPitchYaw+0x2bc>)
 800214a:	edd6 7a00 	vldr	s15, [r6]
 800214e:	4b8c      	ldr	r3, [pc, #560]	; (8002380 <calc_RollPitchYaw+0x2b8>)
 8002150:	ed93 7a00 	vldr	s14, [r3]
 8002154:	ee77 7a87 	vadd.f32	s15, s15, s14
 8002158:	edc6 7a00 	vstr	s15, [r6]
	sumCount++;
 800215c:	4d8a      	ldr	r5, [pc, #552]	; (8002388 <calc_RollPitchYaw+0x2c0>)
 800215e:	682b      	ldr	r3, [r5, #0]
 8002160:	3301      	adds	r3, #1
 8002162:	602b      	str	r3, [r5, #0]
	MahonyQuaternionUpdate(ax, ay, az, gx * PI / 180.0, gy * PI / 180.0, gz * PI / 180.0, my, mx, mz);
 8002164:	4b89      	ldr	r3, [pc, #548]	; (800238c <calc_RollPitchYaw+0x2c4>)
 8002166:	edd3 1a00 	vldr	s3, [r3]
 800216a:	eddf 7a89 	vldr	s15, [pc, #548]	; 8002390 <calc_RollPitchYaw+0x2c8>
 800216e:	ee61 1aa7 	vmul.f32	s3, s3, s15
 8002172:	4b88      	ldr	r3, [pc, #544]	; (8002394 <calc_RollPitchYaw+0x2cc>)
 8002174:	ed93 2a00 	vldr	s4, [r3]
 8002178:	ee22 2a27 	vmul.f32	s4, s4, s15
 800217c:	4b86      	ldr	r3, [pc, #536]	; (8002398 <calc_RollPitchYaw+0x2d0>)
 800217e:	edd3 2a00 	vldr	s5, [r3]
 8002182:	ee62 2aa7 	vmul.f32	s5, s5, s15
 8002186:	eddf 7a85 	vldr	s15, [pc, #532]	; 800239c <calc_RollPitchYaw+0x2d4>
 800218a:	4b85      	ldr	r3, [pc, #532]	; (80023a0 <calc_RollPitchYaw+0x2d8>)
 800218c:	ed93 4a00 	vldr	s8, [r3]
 8002190:	4b84      	ldr	r3, [pc, #528]	; (80023a4 <calc_RollPitchYaw+0x2dc>)
 8002192:	edd3 3a00 	vldr	s7, [r3]
 8002196:	4b84      	ldr	r3, [pc, #528]	; (80023a8 <calc_RollPitchYaw+0x2e0>)
 8002198:	ed93 3a00 	vldr	s6, [r3]
 800219c:	eec2 2aa7 	vdiv.f32	s5, s5, s15
 80021a0:	ee82 2a27 	vdiv.f32	s4, s4, s15
 80021a4:	eec1 1aa7 	vdiv.f32	s3, s3, s15
 80021a8:	4b80      	ldr	r3, [pc, #512]	; (80023ac <calc_RollPitchYaw+0x2e4>)
 80021aa:	ed93 1a00 	vldr	s2, [r3]
 80021ae:	4b80      	ldr	r3, [pc, #512]	; (80023b0 <calc_RollPitchYaw+0x2e8>)
 80021b0:	edd3 0a00 	vldr	s1, [r3]
 80021b4:	4b7f      	ldr	r3, [pc, #508]	; (80023b4 <calc_RollPitchYaw+0x2ec>)
 80021b6:	ed93 0a00 	vldr	s0, [r3]
 80021ba:	f7ff fd9d 	bl	8001cf8 <MahonyQuaternionUpdate>
	yaw = atan2(2.0 * (q[1] * q[2] + q[0] * q[3]), q[0] * q[0] + q[1] * q[1] - q[2] * q[2] - q[3] * q[3]);
 80021be:	4c7e      	ldr	r4, [pc, #504]	; (80023b8 <calc_RollPitchYaw+0x2f0>)
 80021c0:	edd4 9a01 	vldr	s19, [r4, #4]
 80021c4:	ed94 9a02 	vldr	s18, [r4, #8]
 80021c8:	ee29 7a89 	vmul.f32	s14, s19, s18
 80021cc:	ed94 8a00 	vldr	s16, [r4]
 80021d0:	edd4 8a03 	vldr	s17, [r4, #12]
 80021d4:	ee68 7a28 	vmul.f32	s15, s16, s17
 80021d8:	ee77 7a27 	vadd.f32	s15, s14, s15
 80021dc:	ee17 0a90 	vmov	r0, s15
 80021e0:	f7fe f962 	bl	80004a8 <__aeabi_f2d>
 80021e4:	4680      	mov	r8, r0
 80021e6:	4689      	mov	r9, r1
 80021e8:	ee28 8a08 	vmul.f32	s16, s16, s16
 80021ec:	ee69 9aa9 	vmul.f32	s19, s19, s19
 80021f0:	ee38 8a29 	vadd.f32	s16, s16, s19
 80021f4:	ee29 9a09 	vmul.f32	s18, s18, s18
 80021f8:	ee38 8a49 	vsub.f32	s16, s16, s18
 80021fc:	ee68 8aa8 	vmul.f32	s17, s17, s17
 8002200:	ee78 7a68 	vsub.f32	s15, s16, s17
 8002204:	ee17 0a90 	vmov	r0, s15
 8002208:	f7fe f94e 	bl	80004a8 <__aeabi_f2d>
 800220c:	4682      	mov	sl, r0
 800220e:	468b      	mov	fp, r1
 8002210:	4642      	mov	r2, r8
 8002212:	464b      	mov	r3, r9
 8002214:	4640      	mov	r0, r8
 8002216:	4649      	mov	r1, r9
 8002218:	f7fd ffe8 	bl	80001ec <__adddf3>
 800221c:	ec4b ab11 	vmov	d1, sl, fp
 8002220:	ec41 0b10 	vmov	d0, r0, r1
 8002224:	f007 ff92 	bl	800a14c <atan2>
 8002228:	ec51 0b10 	vmov	r0, r1, d0
 800222c:	f7fe fba6 	bl	800097c <__aeabi_d2f>
 8002230:	4f62      	ldr	r7, [pc, #392]	; (80023bc <calc_RollPitchYaw+0x2f4>)
 8002232:	6038      	str	r0, [r7, #0]
	pitch = -asin(2.0 * (q[1] * q[3] - q[0] * q[2]));
 8002234:	ed94 7a01 	vldr	s14, [r4, #4]
 8002238:	edd4 7a03 	vldr	s15, [r4, #12]
 800223c:	ee27 7a27 	vmul.f32	s14, s14, s15
 8002240:	edd4 7a00 	vldr	s15, [r4]
 8002244:	edd4 6a02 	vldr	s13, [r4, #8]
 8002248:	ee67 7aa6 	vmul.f32	s15, s15, s13
 800224c:	ee77 7a67 	vsub.f32	s15, s14, s15
 8002250:	ee17 0a90 	vmov	r0, s15
 8002254:	f7fe f928 	bl	80004a8 <__aeabi_f2d>
 8002258:	4602      	mov	r2, r0
 800225a:	460b      	mov	r3, r1
 800225c:	f7fd ffc6 	bl	80001ec <__adddf3>
 8002260:	ec41 0b10 	vmov	d0, r0, r1
 8002264:	f007 ff1a 	bl	800a09c <asin>
 8002268:	ec51 0b10 	vmov	r0, r1, d0
 800226c:	f7fe fb86 	bl	800097c <__aeabi_d2f>
 8002270:	f8df a150 	ldr.w	sl, [pc, #336]	; 80023c4 <calc_RollPitchYaw+0x2fc>
 8002274:	f080 4000 	eor.w	r0, r0, #2147483648	; 0x80000000
 8002278:	f8ca 0000 	str.w	r0, [sl]
	roll = atan2(2.0 * (q[0] * q[1] + q[2] * q[3]), q[0] * q[0] - q[1] * q[1] - q[2] * q[2] + q[3] * q[3]);
 800227c:	ed94 8a00 	vldr	s16, [r4]
 8002280:	edd4 9a01 	vldr	s19, [r4, #4]
 8002284:	ee28 7a29 	vmul.f32	s14, s16, s19
 8002288:	ed94 9a02 	vldr	s18, [r4, #8]
 800228c:	edd4 8a03 	vldr	s17, [r4, #12]
 8002290:	ee69 7a28 	vmul.f32	s15, s18, s17
 8002294:	ee77 7a27 	vadd.f32	s15, s14, s15
 8002298:	ee17 0a90 	vmov	r0, s15
 800229c:	f7fe f904 	bl	80004a8 <__aeabi_f2d>
 80022a0:	4680      	mov	r8, r0
 80022a2:	4689      	mov	r9, r1
 80022a4:	ee28 8a08 	vmul.f32	s16, s16, s16
 80022a8:	ee69 9aa9 	vmul.f32	s19, s19, s19
 80022ac:	ee38 8a69 	vsub.f32	s16, s16, s19
 80022b0:	ee29 9a09 	vmul.f32	s18, s18, s18
 80022b4:	ee38 8a49 	vsub.f32	s16, s16, s18
 80022b8:	ee68 8aa8 	vmul.f32	s17, s17, s17
 80022bc:	ee78 7a28 	vadd.f32	s15, s16, s17
 80022c0:	ee17 0a90 	vmov	r0, s15
 80022c4:	f7fe f8f0 	bl	80004a8 <__aeabi_f2d>
 80022c8:	ec41 0b18 	vmov	d8, r0, r1
 80022cc:	4642      	mov	r2, r8
 80022ce:	464b      	mov	r3, r9
 80022d0:	4640      	mov	r0, r8
 80022d2:	4649      	mov	r1, r9
 80022d4:	f7fd ff8a 	bl	80001ec <__adddf3>
 80022d8:	eeb0 1a48 	vmov.f32	s2, s16
 80022dc:	eef0 1a68 	vmov.f32	s3, s17
 80022e0:	ec41 0b10 	vmov	d0, r0, r1
 80022e4:	f007 ff32 	bl	800a14c <atan2>
 80022e8:	ec51 0b10 	vmov	r0, r1, d0
 80022ec:	f7fe fb46 	bl	800097c <__aeabi_d2f>
 80022f0:	4604      	mov	r4, r0
	pitch *= 180.0 / PI;
 80022f2:	f8da 0000 	ldr.w	r0, [sl]
 80022f6:	f7fe f8d7 	bl	80004a8 <__aeabi_f2d>
 80022fa:	a319      	add	r3, pc, #100	; (adr r3, 8002360 <calc_RollPitchYaw+0x298>)
 80022fc:	e9d3 2300 	ldrd	r2, r3, [r3]
 8002300:	f7fe f92a 	bl	8000558 <__aeabi_dmul>
 8002304:	f7fe fb3a 	bl	800097c <__aeabi_d2f>
 8002308:	f8ca 0000 	str.w	r0, [sl]
	yaw *= 180.0 / PI;
 800230c:	6838      	ldr	r0, [r7, #0]
 800230e:	f7fe f8cb 	bl	80004a8 <__aeabi_f2d>
 8002312:	a313      	add	r3, pc, #76	; (adr r3, 8002360 <calc_RollPitchYaw+0x298>)
 8002314:	e9d3 2300 	ldrd	r2, r3, [r3]
 8002318:	f7fe f91e 	bl	8000558 <__aeabi_dmul>
 800231c:	f7fe fb2e 	bl	800097c <__aeabi_d2f>
	yaw -=  -1.1; // CHANGE-> (In Leeds, UK declination = -1.1) ... Declination at Danville, California is 13 degrees 48 minutes and 47 seconds on 2014-04-04 (+13.8)
 8002320:	f7fe f8c2 	bl	80004a8 <__aeabi_f2d>
 8002324:	a310      	add	r3, pc, #64	; (adr r3, 8002368 <calc_RollPitchYaw+0x2a0>)
 8002326:	e9d3 2300 	ldrd	r2, r3, [r3]
 800232a:	f7fd ff5f 	bl	80001ec <__adddf3>
 800232e:	f7fe fb25 	bl	800097c <__aeabi_d2f>
 8002332:	6038      	str	r0, [r7, #0]
	roll *= 180.0 / PI;
 8002334:	4620      	mov	r0, r4
 8002336:	f7fe f8b7 	bl	80004a8 <__aeabi_f2d>
 800233a:	a309      	add	r3, pc, #36	; (adr r3, 8002360 <calc_RollPitchYaw+0x298>)
 800233c:	e9d3 2300 	ldrd	r2, r3, [r3]
 8002340:	f7fe f90a 	bl	8000558 <__aeabi_dmul>
 8002344:	f7fe fb1a 	bl	800097c <__aeabi_d2f>
 8002348:	4b1d      	ldr	r3, [pc, #116]	; (80023c0 <calc_RollPitchYaw+0x2f8>)
 800234a:	6018      	str	r0, [r3, #0]
	sum = 0;
 800234c:	2300      	movs	r3, #0
 800234e:	6033      	str	r3, [r6, #0]
	sumCount = 0;
 8002350:	2300      	movs	r3, #0
 8002352:	602b      	str	r3, [r5, #0]
}
 8002354:	b007      	add	sp, #28
 8002356:	ecbd 8b04 	vpop	{d8-d9}
 800235a:	e8bd 8ff0 	ldmia.w	sp!, {r4, r5, r6, r7, r8, r9, sl, fp, pc}
 800235e:	bf00      	nop
 8002360:	0d03cf26 	.word	0x0d03cf26
 8002364:	404ca5dc 	.word	0x404ca5dc
 8002368:	9999999a 	.word	0x9999999a
 800236c:	3ff19999 	.word	0x3ff19999
 8002370:	20000288 	.word	0x20000288
 8002374:	2000029c 	.word	0x2000029c
 8002378:	44fa0000 	.word	0x44fa0000
 800237c:	4cbebc20 	.word	0x4cbebc20
 8002380:	2000028c 	.word	0x2000028c
 8002384:	200002b8 	.word	0x200002b8
 8002388:	200002bc 	.word	0x200002bc
 800238c:	20000490 	.word	0x20000490
 8002390:	40490fdb 	.word	0x40490fdb
 8002394:	20000448 	.word	0x20000448
 8002398:	2000046c 	.word	0x2000046c
 800239c:	43340000 	.word	0x43340000
 80023a0:	20000474 	.word	0x20000474
 80023a4:	20000498 	.word	0x20000498
 80023a8:	2000045c 	.word	0x2000045c
 80023ac:	2000044c 	.word	0x2000044c
 80023b0:	20000494 	.word	0x20000494
 80023b4:	20000460 	.word	0x20000460
 80023b8:	2000001c 	.word	0x2000001c
 80023bc:	20000478 	.word	0x20000478
 80023c0:	20000488 	.word	0x20000488
 80023c4:	20000484 	.word	0x20000484
		readAccelData(accelCount);  // Read the x/y/z adc values
 80023c8:	4c69      	ldr	r4, [pc, #420]	; (8002570 <calc_RollPitchYaw+0x4a8>)
 80023ca:	4620      	mov	r0, r4
 80023cc:	f7fe feb4 	bl	8001138 <readAccelData>
		ax = (float) accelCount[0] * aRes - accelBias[0]; // get actual g value, this depends on scale being set
 80023d0:	f9b4 3000 	ldrsh.w	r3, [r4]
 80023d4:	ee07 3a10 	vmov	s14, r3
 80023d8:	eeb8 7ac7 	vcvt.f32.s32	s14, s14
 80023dc:	4b65      	ldr	r3, [pc, #404]	; (8002574 <calc_RollPitchYaw+0x4ac>)
 80023de:	edd3 7a00 	vldr	s15, [r3]
 80023e2:	ee27 7a27 	vmul.f32	s14, s14, s15
 80023e6:	4b64      	ldr	r3, [pc, #400]	; (8002578 <calc_RollPitchYaw+0x4b0>)
 80023e8:	edd3 6a00 	vldr	s13, [r3]
 80023ec:	ee37 7a66 	vsub.f32	s14, s14, s13
 80023f0:	4a62      	ldr	r2, [pc, #392]	; (800257c <calc_RollPitchYaw+0x4b4>)
 80023f2:	ed82 7a00 	vstr	s14, [r2]
		ay = (float) accelCount[1] * aRes - accelBias[1];
 80023f6:	f9b4 2002 	ldrsh.w	r2, [r4, #2]
 80023fa:	ee07 2a10 	vmov	s14, r2
 80023fe:	eeb8 7ac7 	vcvt.f32.s32	s14, s14
 8002402:	ee27 7a87 	vmul.f32	s14, s15, s14
 8002406:	edd3 6a01 	vldr	s13, [r3, #4]
 800240a:	ee37 7a66 	vsub.f32	s14, s14, s13
 800240e:	4a5c      	ldr	r2, [pc, #368]	; (8002580 <calc_RollPitchYaw+0x4b8>)
 8002410:	ed82 7a00 	vstr	s14, [r2]
		az = (float) accelCount[2] * aRes - accelBias[2];
 8002414:	f9b4 2004 	ldrsh.w	r2, [r4, #4]
 8002418:	ee07 2a10 	vmov	s14, r2
 800241c:	eeb8 7ac7 	vcvt.f32.s32	s14, s14
 8002420:	ee67 7a87 	vmul.f32	s15, s15, s14
 8002424:	ed93 7a02 	vldr	s14, [r3, #8]
 8002428:	ee77 7ac7 	vsub.f32	s15, s15, s14
 800242c:	4b55      	ldr	r3, [pc, #340]	; (8002584 <calc_RollPitchYaw+0x4bc>)
 800242e:	edc3 7a00 	vstr	s15, [r3]
		readGyroData(gyroCount);  // Read the x/y/z adc values
 8002432:	4c55      	ldr	r4, [pc, #340]	; (8002588 <calc_RollPitchYaw+0x4c0>)
 8002434:	4620      	mov	r0, r4
 8002436:	f7fe fea1 	bl	800117c <readGyroData>
		gx = (float) gyroCount[0] * gRes - gyroBias[0]; // get actual gyro value, this depends on scale being set
 800243a:	f9b4 3000 	ldrsh.w	r3, [r4]
 800243e:	ee07 3a10 	vmov	s14, r3
 8002442:	eeb8 7ac7 	vcvt.f32.s32	s14, s14
 8002446:	4b51      	ldr	r3, [pc, #324]	; (800258c <calc_RollPitchYaw+0x4c4>)
 8002448:	edd3 7a00 	vldr	s15, [r3]
 800244c:	ee27 7a27 	vmul.f32	s14, s14, s15
 8002450:	4b4f      	ldr	r3, [pc, #316]	; (8002590 <calc_RollPitchYaw+0x4c8>)
 8002452:	edd3 6a00 	vldr	s13, [r3]
 8002456:	ee37 7a66 	vsub.f32	s14, s14, s13
 800245a:	4a4e      	ldr	r2, [pc, #312]	; (8002594 <calc_RollPitchYaw+0x4cc>)
 800245c:	ed82 7a00 	vstr	s14, [r2]
		gy = (float) gyroCount[1] * gRes - gyroBias[1];
 8002460:	f9b4 2002 	ldrsh.w	r2, [r4, #2]
 8002464:	ee07 2a10 	vmov	s14, r2
 8002468:	eeb8 7ac7 	vcvt.f32.s32	s14, s14
 800246c:	ee27 7a87 	vmul.f32	s14, s15, s14
 8002470:	edd3 6a01 	vldr	s13, [r3, #4]
 8002474:	ee37 7a66 	vsub.f32	s14, s14, s13
 8002478:	4a47      	ldr	r2, [pc, #284]	; (8002598 <calc_RollPitchYaw+0x4d0>)
 800247a:	ed82 7a00 	vstr	s14, [r2]
		gz = (float) gyroCount[2] * gRes - gyroBias[2];
 800247e:	f9b4 2004 	ldrsh.w	r2, [r4, #4]
 8002482:	ee07 2a10 	vmov	s14, r2
 8002486:	eeb8 7ac7 	vcvt.f32.s32	s14, s14
 800248a:	ee67 7a87 	vmul.f32	s15, s15, s14
 800248e:	ed93 7a02 	vldr	s14, [r3, #8]
 8002492:	ee77 7ac7 	vsub.f32	s15, s15, s14
 8002496:	4b41      	ldr	r3, [pc, #260]	; (800259c <calc_RollPitchYaw+0x4d4>)
 8002498:	edc3 7a00 	vstr	s15, [r3]
		readMagData(magCount);  // Read the x/y/z adc values
 800249c:	4c40      	ldr	r4, [pc, #256]	; (80025a0 <calc_RollPitchYaw+0x4d8>)
 800249e:	4620      	mov	r0, r4
 80024a0:	f7fe fe8e 	bl	80011c0 <readMagData>
		mx = (float) magCount[0] * mRes * magCalibration[0] - magbias[0]; // get actual magnetometer value, this depends on scale being set
 80024a4:	f9b4 3000 	ldrsh.w	r3, [r4]
 80024a8:	ee07 3a10 	vmov	s14, r3
 80024ac:	eeb8 7ac7 	vcvt.f32.s32	s14, s14
 80024b0:	4b3c      	ldr	r3, [pc, #240]	; (80025a4 <calc_RollPitchYaw+0x4dc>)
 80024b2:	edd3 7a00 	vldr	s15, [r3]
 80024b6:	ee27 7a27 	vmul.f32	s14, s14, s15
 80024ba:	4a3b      	ldr	r2, [pc, #236]	; (80025a8 <calc_RollPitchYaw+0x4e0>)
 80024bc:	edd2 6a00 	vldr	s13, [r2]
 80024c0:	ee27 7a26 	vmul.f32	s14, s14, s13
 80024c4:	4b39      	ldr	r3, [pc, #228]	; (80025ac <calc_RollPitchYaw+0x4e4>)
 80024c6:	edd3 6a00 	vldr	s13, [r3]
 80024ca:	ee37 7a66 	vsub.f32	s14, s14, s13
 80024ce:	4938      	ldr	r1, [pc, #224]	; (80025b0 <calc_RollPitchYaw+0x4e8>)
 80024d0:	ed81 7a00 	vstr	s14, [r1]
		my = (float) magCount[1] * mRes * magCalibration[1] - magbias[1];
 80024d4:	f9b4 1002 	ldrsh.w	r1, [r4, #2]
 80024d8:	ee07 1a10 	vmov	s14, r1
 80024dc:	eeb8 7ac7 	vcvt.f32.s32	s14, s14
 80024e0:	ee27 7a87 	vmul.f32	s14, s15, s14
 80024e4:	edd2 6a01 	vldr	s13, [r2, #4]
 80024e8:	ee27 7a26 	vmul.f32	s14, s14, s13
 80024ec:	edd3 6a01 	vldr	s13, [r3, #4]
 80024f0:	ee37 7a66 	vsub.f32	s14, s14, s13
 80024f4:	492f      	ldr	r1, [pc, #188]	; (80025b4 <calc_RollPitchYaw+0x4ec>)
 80024f6:	ed81 7a00 	vstr	s14, [r1]
		mz = (float) magCount[2] * mRes * magCalibration[2] - magbias[2];
 80024fa:	f9b4 1004 	ldrsh.w	r1, [r4, #4]
 80024fe:	ee07 1a10 	vmov	s14, r1
 8002502:	eeb8 7ac7 	vcvt.f32.s32	s14, s14
 8002506:	ee67 7a87 	vmul.f32	s15, s15, s14
 800250a:	ed92 7a02 	vldr	s14, [r2, #8]
 800250e:	ee67 7a87 	vmul.f32	s15, s15, s14
 8002512:	ed93 7a02 	vldr	s14, [r3, #8]
 8002516:	ee77 7ac7 	vsub.f32	s15, s15, s14
 800251a:	4b27      	ldr	r3, [pc, #156]	; (80025b8 <calc_RollPitchYaw+0x4f0>)
 800251c:	edc3 7a00 	vstr	s15, [r3]
 8002520:	e5e2      	b.n	80020e8 <calc_RollPitchYaw+0x20>
		float32_t timer_load = 65535;
 8002522:	4b26      	ldr	r3, [pc, #152]	; (80025bc <calc_RollPitchYaw+0x4f4>)
 8002524:	9301      	str	r3, [sp, #4]
		float32_t time_difference = 0;
 8002526:	2600      	movs	r6, #0
 8002528:	ad06      	add	r5, sp, #24
 800252a:	f845 6d10 	str.w	r6, [r5, #-16]!
		arm_sub_f32(&timer_load, &lastUpdate, &time_difference, 1);
 800252e:	2301      	movs	r3, #1
 8002530:	462a      	mov	r2, r5
 8002532:	4923      	ldr	r1, [pc, #140]	; (80025c0 <calc_RollPitchYaw+0x4f8>)
 8002534:	a801      	add	r0, sp, #4
 8002536:	f004 f941 	bl	80067bc <arm_sub_f32>
		float32_t time_diff_plus_now = 0;
 800253a:	ac06      	add	r4, sp, #24
 800253c:	f844 6d0c 	str.w	r6, [r4, #-12]!
		arm_add_f32(&time_difference, &Now, &time_diff_plus_now, 1);
 8002540:	2301      	movs	r3, #1
 8002542:	4622      	mov	r2, r4
 8002544:	491f      	ldr	r1, [pc, #124]	; (80025c4 <calc_RollPitchYaw+0x4fc>)
 8002546:	4628      	mov	r0, r5
 8002548:	f004 f918 	bl	800677c <arm_add_f32>
		float32_t prescaler = 2000;
 800254c:	4b1e      	ldr	r3, [pc, #120]	; (80025c8 <calc_RollPitchYaw+0x500>)
 800254e:	9305      	str	r3, [sp, #20]
		arm_mult_f32(&prescaler, &time_diff_plus_now, &top, 1);
 8002550:	2301      	movs	r3, #1
 8002552:	aa04      	add	r2, sp, #16
 8002554:	4621      	mov	r1, r4
 8002556:	a805      	add	r0, sp, #20
 8002558:	f004 f920 	bl	800679c <arm_mult_f32>
		deltat = top/TIMER_CLK_FREQ;
 800255c:	eddd 6a04 	vldr	s13, [sp, #16]
 8002560:	ed9f 7a1a 	vldr	s14, [pc, #104]	; 80025cc <calc_RollPitchYaw+0x504>
 8002564:	eec6 7a87 	vdiv.f32	s15, s13, s14
 8002568:	4b19      	ldr	r3, [pc, #100]	; (80025d0 <calc_RollPitchYaw+0x508>)
 800256a:	edc3 7a00 	vstr	s15, [r3]
 800256e:	e5e7      	b.n	8002140 <calc_RollPitchYaw+0x78>
 8002570:	200003d4 	.word	0x200003d4
 8002574:	20000464 	.word	0x20000464
 8002578:	20000004 	.word	0x20000004
 800257c:	20000460 	.word	0x20000460
 8002580:	20000494 	.word	0x20000494
 8002584:	2000044c 	.word	0x2000044c
 8002588:	20000454 	.word	0x20000454
 800258c:	20000470 	.word	0x20000470
 8002590:	20000010 	.word	0x20000010
 8002594:	20000490 	.word	0x20000490
 8002598:	20000448 	.word	0x20000448
 800259c:	2000046c 	.word	0x2000046c
 80025a0:	2000047c 	.word	0x2000047c
 80025a4:	2000048c 	.word	0x2000048c
 80025a8:	200002a0 	.word	0x200002a0
 80025ac:	200002ac 	.word	0x200002ac
 80025b0:	20000498 	.word	0x20000498
 80025b4:	2000045c 	.word	0x2000045c
 80025b8:	20000474 	.word	0x20000474
 80025bc:	477fff00 	.word	0x477fff00
 80025c0:	2000029c 	.word	0x2000029c
 80025c4:	20000288 	.word	0x20000288
 80025c8:	44fa0000 	.word	0x44fa0000
 80025cc:	4cbebc20 	.word	0x4cbebc20
 80025d0:	2000028c 	.word	0x2000028c

080025d4 <NRF24_DelayMicroSeconds>:
static UART_HandleTypeDef nrf24_huart;

//**** Functions prototypes ****//
//Microsecond delay function
void NRF24_DelayMicroSeconds(uint32_t uSec)
{
 80025d4:	b508      	push	{r3, lr}
//	uint32_t uSecVar = uSec;
//	uSecVar = uSecVar* ((SystemCoreClock/1000000)/3);
//	while(uSecVar--);
	DWT_Delay(uSec);
 80025d6:	f000 fffd 	bl	80035d4 <DWT_Delay>
}
 80025da:	bd08      	pop	{r3, pc}

080025dc <NRF24_csn>:

//1. Chip Select function
void NRF24_csn(int state)
{
 80025dc:	b508      	push	{r3, lr}
	if(state) HAL_GPIO_WritePin(nrf24_PORT, nrf24_CSN_PIN, GPIO_PIN_SET);
 80025de:	b938      	cbnz	r0, 80025f0 <NRF24_csn+0x14>
	else HAL_GPIO_WritePin(nrf24_PORT, nrf24_CSN_PIN, GPIO_PIN_RESET);
 80025e0:	2200      	movs	r2, #0
 80025e2:	4b07      	ldr	r3, [pc, #28]	; (8002600 <NRF24_csn+0x24>)
 80025e4:	8819      	ldrh	r1, [r3, #0]
 80025e6:	4b07      	ldr	r3, [pc, #28]	; (8002604 <NRF24_csn+0x28>)
 80025e8:	6818      	ldr	r0, [r3, #0]
 80025ea:	f001 fd11 	bl	8004010 <HAL_GPIO_WritePin>
}
 80025ee:	bd08      	pop	{r3, pc}
	if(state) HAL_GPIO_WritePin(nrf24_PORT, nrf24_CSN_PIN, GPIO_PIN_SET);
 80025f0:	2201      	movs	r2, #1
 80025f2:	4b03      	ldr	r3, [pc, #12]	; (8002600 <NRF24_csn+0x24>)
 80025f4:	8819      	ldrh	r1, [r3, #0]
 80025f6:	4b03      	ldr	r3, [pc, #12]	; (8002604 <NRF24_csn+0x28>)
 80025f8:	6818      	ldr	r0, [r3, #0]
 80025fa:	f001 fd09 	bl	8004010 <HAL_GPIO_WritePin>
 80025fe:	e7f6      	b.n	80025ee <NRF24_csn+0x12>
 8002600:	200002c2 	.word	0x200002c2
 8002604:	200002c4 	.word	0x200002c4

08002608 <NRF24_ce>:
//2. Chip Enable
void NRF24_ce(int state)
{
 8002608:	b508      	push	{r3, lr}
	if(state) HAL_GPIO_WritePin(nrf24_PORT, nrf24_CE_PIN, GPIO_PIN_SET);
 800260a:	b938      	cbnz	r0, 800261c <NRF24_ce+0x14>
	else HAL_GPIO_WritePin(nrf24_PORT, nrf24_CE_PIN, GPIO_PIN_RESET);
 800260c:	2200      	movs	r2, #0
 800260e:	4b07      	ldr	r3, [pc, #28]	; (800262c <NRF24_ce+0x24>)
 8002610:	8819      	ldrh	r1, [r3, #0]
 8002612:	4b07      	ldr	r3, [pc, #28]	; (8002630 <NRF24_ce+0x28>)
 8002614:	6818      	ldr	r0, [r3, #0]
 8002616:	f001 fcfb 	bl	8004010 <HAL_GPIO_WritePin>
}
 800261a:	bd08      	pop	{r3, pc}
	if(state) HAL_GPIO_WritePin(nrf24_PORT, nrf24_CE_PIN, GPIO_PIN_SET);
 800261c:	2201      	movs	r2, #1
 800261e:	4b03      	ldr	r3, [pc, #12]	; (800262c <NRF24_ce+0x24>)
 8002620:	8819      	ldrh	r1, [r3, #0]
 8002622:	4b03      	ldr	r3, [pc, #12]	; (8002630 <NRF24_ce+0x28>)
 8002624:	6818      	ldr	r0, [r3, #0]
 8002626:	f001 fcf3 	bl	8004010 <HAL_GPIO_WritePin>
 800262a:	e7f6      	b.n	800261a <NRF24_ce+0x12>
 800262c:	200002c0 	.word	0x200002c0
 8002630:	200002c4 	.word	0x200002c4

08002634 <NRF24_read_register>:
//3. Read single byte from a register
uint8_t NRF24_read_register(uint8_t reg)
{
 8002634:	b510      	push	{r4, lr}
 8002636:	b082      	sub	sp, #8
 8002638:	4604      	mov	r4, r0
	uint8_t spiBuf[3];
	uint8_t retData;
	//Put CSN low
	NRF24_csn(0);
 800263a:	2000      	movs	r0, #0
 800263c:	f7ff ffce 	bl	80025dc <NRF24_csn>
	//Transmit register address
	spiBuf[0] = reg&0x1F;
 8002640:	f004 041f 	and.w	r4, r4, #31
 8002644:	a902      	add	r1, sp, #8
 8002646:	f801 4d04 	strb.w	r4, [r1, #-4]!
	HAL_SPI_Transmit(&nrf24_hspi, spiBuf, 1, 100);
 800264a:	4c0a      	ldr	r4, [pc, #40]	; (8002674 <NRF24_read_register+0x40>)
 800264c:	2364      	movs	r3, #100	; 0x64
 800264e:	2201      	movs	r2, #1
 8002650:	4620      	mov	r0, r4
 8002652:	f002 fec5 	bl	80053e0 <HAL_SPI_Transmit>
	//Receive data
	HAL_SPI_Receive(&nrf24_hspi, &spiBuf[1], 1, 100);
 8002656:	2364      	movs	r3, #100	; 0x64
 8002658:	2201      	movs	r2, #1
 800265a:	f10d 0105 	add.w	r1, sp, #5
 800265e:	4620      	mov	r0, r4
 8002660:	f003 f8a2 	bl	80057a8 <HAL_SPI_Receive>
	retData = spiBuf[1];
 8002664:	f89d 4005 	ldrb.w	r4, [sp, #5]
	//Bring CSN high
	NRF24_csn(1);
 8002668:	2001      	movs	r0, #1
 800266a:	f7ff ffb7 	bl	80025dc <NRF24_csn>
	return retData;
}
 800266e:	4620      	mov	r0, r4
 8002670:	b002      	add	sp, #8
 8002672:	bd10      	pop	{r4, pc}
 8002674:	200002c8 	.word	0x200002c8

08002678 <NRF24_read_registerN>:
//4. Read multiple bytes register
void NRF24_read_registerN(uint8_t reg, uint8_t *buf, uint8_t len)
{
 8002678:	b570      	push	{r4, r5, r6, lr}
 800267a:	b082      	sub	sp, #8
 800267c:	4604      	mov	r4, r0
 800267e:	460d      	mov	r5, r1
 8002680:	4616      	mov	r6, r2
	uint8_t spiBuf[3];
	//Put CSN low
	NRF24_csn(0);
 8002682:	2000      	movs	r0, #0
 8002684:	f7ff ffaa 	bl	80025dc <NRF24_csn>
	//Transmit register address
	spiBuf[0] = reg&0x1F;
 8002688:	f004 041f 	and.w	r4, r4, #31
 800268c:	a902      	add	r1, sp, #8
 800268e:	f801 4d04 	strb.w	r4, [r1, #-4]!
	//spiStatus = NRF24_SPI_Write(spiBuf, 1);
	HAL_SPI_Transmit(&nrf24_hspi, spiBuf, 1, 100);
 8002692:	4c08      	ldr	r4, [pc, #32]	; (80026b4 <NRF24_read_registerN+0x3c>)
 8002694:	2364      	movs	r3, #100	; 0x64
 8002696:	2201      	movs	r2, #1
 8002698:	4620      	mov	r0, r4
 800269a:	f002 fea1 	bl	80053e0 <HAL_SPI_Transmit>
	//Receive data
	HAL_SPI_Receive(&nrf24_hspi, buf, len, 100);
 800269e:	2364      	movs	r3, #100	; 0x64
 80026a0:	4632      	mov	r2, r6
 80026a2:	4629      	mov	r1, r5
 80026a4:	4620      	mov	r0, r4
 80026a6:	f003 f87f 	bl	80057a8 <HAL_SPI_Receive>
	//Bring CSN high
	NRF24_csn(1);
 80026aa:	2001      	movs	r0, #1
 80026ac:	f7ff ff96 	bl	80025dc <NRF24_csn>
}
 80026b0:	b002      	add	sp, #8
 80026b2:	bd70      	pop	{r4, r5, r6, pc}
 80026b4:	200002c8 	.word	0x200002c8

080026b8 <NRF24_write_register>:
//5. Write single byte register
void NRF24_write_register(uint8_t reg, uint8_t value)
{
 80026b8:	b530      	push	{r4, r5, lr}
 80026ba:	b083      	sub	sp, #12
 80026bc:	4604      	mov	r4, r0
 80026be:	460d      	mov	r5, r1
	uint8_t spiBuf[3];
	//Put CSN low
	NRF24_csn(0);
 80026c0:	2000      	movs	r0, #0
 80026c2:	f7ff ff8b 	bl	80025dc <NRF24_csn>
	//Transmit register address and data
	spiBuf[0] = reg|0x20;
 80026c6:	f044 0420 	orr.w	r4, r4, #32
 80026ca:	f88d 4004 	strb.w	r4, [sp, #4]
	spiBuf[1] = value;
 80026ce:	f88d 5005 	strb.w	r5, [sp, #5]
	HAL_SPI_Transmit(&nrf24_hspi, spiBuf, 2, 100);
 80026d2:	2364      	movs	r3, #100	; 0x64
 80026d4:	2202      	movs	r2, #2
 80026d6:	a901      	add	r1, sp, #4
 80026d8:	4803      	ldr	r0, [pc, #12]	; (80026e8 <NRF24_write_register+0x30>)
 80026da:	f002 fe81 	bl	80053e0 <HAL_SPI_Transmit>
	//Bring CSN high
	NRF24_csn(1);
 80026de:	2001      	movs	r0, #1
 80026e0:	f7ff ff7c 	bl	80025dc <NRF24_csn>
}
 80026e4:	b003      	add	sp, #12
 80026e6:	bd30      	pop	{r4, r5, pc}
 80026e8:	200002c8 	.word	0x200002c8

080026ec <NRF24_write_registerN>:
//6. Write multipl bytes register
void NRF24_write_registerN(uint8_t reg, const uint8_t* buf, uint8_t len)
{
 80026ec:	b570      	push	{r4, r5, r6, lr}
 80026ee:	b082      	sub	sp, #8
 80026f0:	4604      	mov	r4, r0
 80026f2:	460d      	mov	r5, r1
 80026f4:	4616      	mov	r6, r2
	uint8_t spiBuf[3];
	//Put CSN low
	NRF24_csn(0);
 80026f6:	2000      	movs	r0, #0
 80026f8:	f7ff ff70 	bl	80025dc <NRF24_csn>
	//Transmit register address and data
	spiBuf[0] = reg|0x20;
 80026fc:	f044 0420 	orr.w	r4, r4, #32
 8002700:	a902      	add	r1, sp, #8
 8002702:	f801 4d04 	strb.w	r4, [r1, #-4]!
	HAL_SPI_Transmit(&nrf24_hspi, spiBuf, 1, 100);
 8002706:	4c08      	ldr	r4, [pc, #32]	; (8002728 <NRF24_write_registerN+0x3c>)
 8002708:	2364      	movs	r3, #100	; 0x64
 800270a:	2201      	movs	r2, #1
 800270c:	4620      	mov	r0, r4
 800270e:	f002 fe67 	bl	80053e0 <HAL_SPI_Transmit>
	HAL_SPI_Transmit(&nrf24_hspi, (uint8_t*)buf, len, 100);
 8002712:	2364      	movs	r3, #100	; 0x64
 8002714:	4632      	mov	r2, r6
 8002716:	4629      	mov	r1, r5
 8002718:	4620      	mov	r0, r4
 800271a:	f002 fe61 	bl	80053e0 <HAL_SPI_Transmit>
	//Bring CSN high
	NRF24_csn(1);
 800271e:	2001      	movs	r0, #1
 8002720:	f7ff ff5c 	bl	80025dc <NRF24_csn>
}
 8002724:	b002      	add	sp, #8
 8002726:	bd70      	pop	{r4, r5, r6, pc}
 8002728:	200002c8 	.word	0x200002c8

0800272c <NRF24_flush_tx>:
	NRF24_csn(1);
}

//9. Flush Tx buffer
void NRF24_flush_tx(void)
{
 800272c:	b508      	push	{r3, lr}
	NRF24_write_register(CMD_FLUSH_TX, 0xFF);
 800272e:	21ff      	movs	r1, #255	; 0xff
 8002730:	20e1      	movs	r0, #225	; 0xe1
 8002732:	f7ff ffc1 	bl	80026b8 <NRF24_write_register>
}
 8002736:	bd08      	pop	{r3, pc}

08002738 <NRF24_flush_rx>:
//10. Flush Rx buffer
void NRF24_flush_rx(void)
{
 8002738:	b508      	push	{r3, lr}
	NRF24_write_register(CMD_FLUSH_RX, 0xFF);
 800273a:	21ff      	movs	r1, #255	; 0xff
 800273c:	20e2      	movs	r0, #226	; 0xe2
 800273e:	f7ff ffbb 	bl	80026b8 <NRF24_write_register>
}
 8002742:	bd08      	pop	{r3, pc}

08002744 <NRF24_get_status>:
//11. Get status register value
uint8_t NRF24_get_status(void)
{
 8002744:	b508      	push	{r3, lr}
	uint8_t statReg;
	statReg = NRF24_read_register(REG_STATUS);
 8002746:	2007      	movs	r0, #7
 8002748:	f7ff ff74 	bl	8002634 <NRF24_read_register>
	return statReg;
}
 800274c:	bd08      	pop	{r3, pc}
	...

08002750 <NRF24_startListening>:
	NRF24_powerDown();
	
}
//13. Listen on open pipes for reading (Must call NRF24_openReadingPipe() first)
void NRF24_startListening(void)
{
 8002750:	b508      	push	{r3, lr}
	//Power up and set to RX mode
	NRF24_write_register(REG_CONFIG, NRF24_read_register(REG_CONFIG) | (1UL<<1) |(1UL <<0));
 8002752:	2000      	movs	r0, #0
 8002754:	f7ff ff6e 	bl	8002634 <NRF24_read_register>
 8002758:	f040 0103 	orr.w	r1, r0, #3
 800275c:	b2c9      	uxtb	r1, r1
 800275e:	2000      	movs	r0, #0
 8002760:	f7ff ffaa 	bl	80026b8 <NRF24_write_register>
	//Restore pipe 0 address if exists
	if(pipe0_reading_address)
 8002764:	4b0a      	ldr	r3, [pc, #40]	; (8002790 <NRF24_startListening+0x40>)
 8002766:	e9d3 2300 	ldrd	r2, r3, [r3]
 800276a:	4313      	orrs	r3, r2
 800276c:	d10a      	bne.n	8002784 <NRF24_startListening+0x34>
		NRF24_write_registerN(REG_RX_ADDR_P0, (uint8_t *)(&pipe0_reading_address), 5);
	
	//Flush buffers
	NRF24_flush_tx();
 800276e:	f7ff ffdd 	bl	800272c <NRF24_flush_tx>
	NRF24_flush_rx();
 8002772:	f7ff ffe1 	bl	8002738 <NRF24_flush_rx>
	//Set CE HIGH to start listenning
	NRF24_ce(1);
 8002776:	2001      	movs	r0, #1
 8002778:	f7ff ff46 	bl	8002608 <NRF24_ce>
	//Wait for 130 uSec for the radio to come on
	NRF24_DelayMicroSeconds(150);
 800277c:	2096      	movs	r0, #150	; 0x96
 800277e:	f7ff ff29 	bl	80025d4 <NRF24_DelayMicroSeconds>
}
 8002782:	bd08      	pop	{r3, pc}
		NRF24_write_registerN(REG_RX_ADDR_P0, (uint8_t *)(&pipe0_reading_address), 5);
 8002784:	2205      	movs	r2, #5
 8002786:	4902      	ldr	r1, [pc, #8]	; (8002790 <NRF24_startListening+0x40>)
 8002788:	200a      	movs	r0, #10
 800278a:	f7ff ffaf 	bl	80026ec <NRF24_write_registerN>
 800278e:	e7ee      	b.n	800276e <NRF24_startListening+0x1e>
 8002790:	20000368 	.word	0x20000368

08002794 <NRF24_openReadingPipe>:
	const uint8_t max_payload_size = 32;
  NRF24_write_register(REG_RX_PW_P0,MIN(payload_size,max_payload_size));
}
//19. Open reading pipe
void NRF24_openReadingPipe(uint8_t number, uint64_t address)
{
 8002794:	b510      	push	{r4, lr}
 8002796:	b082      	sub	sp, #8
 8002798:	e9cd 2300 	strd	r2, r3, [sp]
	if (number == 0)
 800279c:	4604      	mov	r4, r0
 800279e:	b920      	cbnz	r0, 80027aa <NRF24_openReadingPipe+0x16>
    pipe0_reading_address = address;
 80027a0:	4b14      	ldr	r3, [pc, #80]	; (80027f4 <NRF24_openReadingPipe+0x60>)
 80027a2:	e9dd 0100 	ldrd	r0, r1, [sp]
 80027a6:	e9c3 0100 	strd	r0, r1, [r3]
	
	if(number <= 6)
 80027aa:	2c06      	cmp	r4, #6
 80027ac:	d818      	bhi.n	80027e0 <NRF24_openReadingPipe+0x4c>
	{
		if(number < 2)
 80027ae:	2c01      	cmp	r4, #1
 80027b0:	d918      	bls.n	80027e4 <NRF24_openReadingPipe+0x50>
			//Address width is 5 bytes
			NRF24_write_registerN(NRF24_ADDR_REGS[number], (uint8_t *)(&address), 5);
		}
		else
		{
			NRF24_write_registerN(NRF24_ADDR_REGS[number], (uint8_t *)(&address), 1);
 80027b2:	2201      	movs	r2, #1
 80027b4:	4669      	mov	r1, sp
 80027b6:	4b10      	ldr	r3, [pc, #64]	; (80027f8 <NRF24_openReadingPipe+0x64>)
 80027b8:	5d18      	ldrb	r0, [r3, r4]
 80027ba:	f7ff ff97 	bl	80026ec <NRF24_write_registerN>
		}
		//Write payload size
		NRF24_write_register(RF24_RX_PW_PIPE[number],payload_size);
 80027be:	4b0f      	ldr	r3, [pc, #60]	; (80027fc <NRF24_openReadingPipe+0x68>)
 80027c0:	7819      	ldrb	r1, [r3, #0]
 80027c2:	4b0f      	ldr	r3, [pc, #60]	; (8002800 <NRF24_openReadingPipe+0x6c>)
 80027c4:	5d18      	ldrb	r0, [r3, r4]
 80027c6:	f7ff ff77 	bl	80026b8 <NRF24_write_register>
		//Enable pipe
		NRF24_write_register(REG_EN_RXADDR, NRF24_read_register(REG_EN_RXADDR) | _BV(number));
 80027ca:	2002      	movs	r0, #2
 80027cc:	f7ff ff32 	bl	8002634 <NRF24_read_register>
 80027d0:	b240      	sxtb	r0, r0
 80027d2:	2101      	movs	r1, #1
 80027d4:	40a1      	lsls	r1, r4
 80027d6:	4301      	orrs	r1, r0
 80027d8:	b2c9      	uxtb	r1, r1
 80027da:	2002      	movs	r0, #2
 80027dc:	f7ff ff6c 	bl	80026b8 <NRF24_write_register>
	}
	
}
 80027e0:	b002      	add	sp, #8
 80027e2:	bd10      	pop	{r4, pc}
			NRF24_write_registerN(NRF24_ADDR_REGS[number], (uint8_t *)(&address), 5);
 80027e4:	2205      	movs	r2, #5
 80027e6:	4669      	mov	r1, sp
 80027e8:	4b03      	ldr	r3, [pc, #12]	; (80027f8 <NRF24_openReadingPipe+0x64>)
 80027ea:	5d18      	ldrb	r0, [r3, r4]
 80027ec:	f7ff ff7e 	bl	80026ec <NRF24_write_registerN>
 80027f0:	e7e5      	b.n	80027be <NRF24_openReadingPipe+0x2a>
 80027f2:	bf00      	nop
 80027f4:	20000368 	.word	0x20000368
 80027f8:	0800be88 	.word	0x0800be88
 80027fc:	20000360 	.word	0x20000360
 8002800:	0800be90 	.word	0x0800be90

08002804 <NRF24_setRetries>:
//20 set transmit retries (rf24_Retries_e) and delay
void NRF24_setRetries(uint8_t delay, uint8_t count)
{
 8002804:	b508      	push	{r3, lr}
	NRF24_write_register(REG_SETUP_RETR,(delay&0xf)<<BIT_ARD | (count&0xf)<<BIT_ARC);
 8002806:	f001 010f 	and.w	r1, r1, #15
 800280a:	ea41 1100 	orr.w	r1, r1, r0, lsl #4
 800280e:	b2c9      	uxtb	r1, r1
 8002810:	2004      	movs	r0, #4
 8002812:	f7ff ff51 	bl	80026b8 <NRF24_write_register>
}
 8002816:	bd08      	pop	{r3, pc}

08002818 <NRF24_setChannel>:

//21. Set RF channel frequency
void NRF24_setChannel(uint8_t channel)
{
 8002818:	b508      	push	{r3, lr}
	const uint8_t max_channel = 127;
  NRF24_write_register(REG_RF_CH,MIN(channel,max_channel));
 800281a:	4601      	mov	r1, r0
 800281c:	287f      	cmp	r0, #127	; 0x7f
 800281e:	bf28      	it	cs
 8002820:	217f      	movcs	r1, #127	; 0x7f
 8002822:	2005      	movs	r0, #5
 8002824:	f7ff ff48 	bl	80026b8 <NRF24_write_register>
}
 8002828:	bd08      	pop	{r3, pc}
	...

0800282c <NRF24_setPayloadSize>:
//22. Set payload size
void NRF24_setPayloadSize(uint8_t size)
{
	const uint8_t max_payload_size = 32;
  payload_size = MIN(size,max_payload_size);
 800282c:	2820      	cmp	r0, #32
 800282e:	bf28      	it	cs
 8002830:	2020      	movcs	r0, #32
 8002832:	4b01      	ldr	r3, [pc, #4]	; (8002838 <NRF24_setPayloadSize+0xc>)
 8002834:	7018      	strb	r0, [r3, #0]
}
 8002836:	4770      	bx	lr
 8002838:	20000360 	.word	0x20000360

0800283c <NRF24_getPayloadSize>:
//23. Get payload size
uint8_t NRF24_getPayloadSize(void)
{
	return payload_size;
}
 800283c:	4b01      	ldr	r3, [pc, #4]	; (8002844 <NRF24_getPayloadSize+0x8>)
 800283e:	7818      	ldrb	r0, [r3, #0]
 8002840:	4770      	bx	lr
 8002842:	bf00      	nop
 8002844:	20000360 	.word	0x20000360

08002848 <NRF24_read_payload>:
{
 8002848:	b570      	push	{r4, r5, r6, lr}
 800284a:	b082      	sub	sp, #8
 800284c:	4606      	mov	r6, r0
 800284e:	460d      	mov	r5, r1
	uint8_t data_len = MIN(len, NRF24_getPayloadSize());
 8002850:	f7ff fff4 	bl	800283c <NRF24_getPayloadSize>
 8002854:	4604      	mov	r4, r0
 8002856:	42a8      	cmp	r0, r5
 8002858:	d817      	bhi.n	800288a <NRF24_read_payload+0x42>
	NRF24_csn(0);
 800285a:	2000      	movs	r0, #0
 800285c:	f7ff febe 	bl	80025dc <NRF24_csn>
	cmdRxBuf = CMD_R_RX_PAYLOAD;
 8002860:	a902      	add	r1, sp, #8
 8002862:	2361      	movs	r3, #97	; 0x61
 8002864:	f801 3d01 	strb.w	r3, [r1, #-1]!
	HAL_SPI_Transmit(&nrf24_hspi, &cmdRxBuf, 1, 100);
 8002868:	4d09      	ldr	r5, [pc, #36]	; (8002890 <NRF24_read_payload+0x48>)
 800286a:	2364      	movs	r3, #100	; 0x64
 800286c:	2201      	movs	r2, #1
 800286e:	4628      	mov	r0, r5
 8002870:	f002 fdb6 	bl	80053e0 <HAL_SPI_Transmit>
	HAL_SPI_Receive(&nrf24_hspi, buf, data_len, 100);
 8002874:	2364      	movs	r3, #100	; 0x64
 8002876:	b2a2      	uxth	r2, r4
 8002878:	4631      	mov	r1, r6
 800287a:	4628      	mov	r0, r5
 800287c:	f002 ff94 	bl	80057a8 <HAL_SPI_Receive>
	NRF24_csn(1);
 8002880:	2001      	movs	r0, #1
 8002882:	f7ff feab 	bl	80025dc <NRF24_csn>
}
 8002886:	b002      	add	sp, #8
 8002888:	bd70      	pop	{r4, r5, r6, pc}
	uint8_t data_len = MIN(len, NRF24_getPayloadSize());
 800288a:	462c      	mov	r4, r5
 800288c:	e7e5      	b.n	800285a <NRF24_read_payload+0x12>
 800288e:	bf00      	nop
 8002890:	200002c8 	.word	0x200002c8

08002894 <NRF24_getDynamicPayloadSize>:
//24. Get dynamic payload size, of latest packet received
uint8_t NRF24_getDynamicPayloadSize(void)
{
 8002894:	b508      	push	{r3, lr}
	return NRF24_read_register(CMD_R_RX_PL_WID);
 8002896:	2060      	movs	r0, #96	; 0x60
 8002898:	f7ff fecc 	bl	8002634 <NRF24_read_register>
}
 800289c:	bd08      	pop	{r3, pc}

0800289e <NRF24_read>:
{
 800289e:	b510      	push	{r4, lr}
	NRF24_read_payload( buf, len );
 80028a0:	f7ff ffd2 	bl	8002848 <NRF24_read_payload>
	uint8_t rxStatus = NRF24_read_register(REG_FIFO_STATUS) & _BV(BIT_RX_EMPTY);
 80028a4:	2017      	movs	r0, #23
 80028a6:	f7ff fec5 	bl	8002634 <NRF24_read_register>
 80028aa:	f000 0401 	and.w	r4, r0, #1
	NRF24_flush_rx();
 80028ae:	f7ff ff43 	bl	8002738 <NRF24_flush_rx>
	NRF24_getDynamicPayloadSize();
 80028b2:	f7ff ffef 	bl	8002894 <NRF24_getDynamicPayloadSize>
}
 80028b6:	4620      	mov	r0, r4
 80028b8:	bd10      	pop	{r4, pc}

080028ba <NRF24_disableDynamicPayloads>:
	NRF24_write_register(REG_DYNPD,NRF24_read_register(REG_DYNPD) | _BV(BIT_DPL_P5) | _BV(BIT_DPL_P4) | _BV(BIT_DPL_P3) | _BV(BIT_DPL_P2) | _BV(BIT_DPL_P1) | _BV(BIT_DPL_P0));
  dynamic_payloads_enabled = true;
	
}
void NRF24_disableDynamicPayloads(void)
{
 80028ba:	b508      	push	{r3, lr}
	NRF24_write_register(REG_FEATURE,NRF24_read_register(REG_FEATURE) &  ~(_BV(BIT_EN_DPL)) );
 80028bc:	201d      	movs	r0, #29
 80028be:	f7ff feb9 	bl	8002634 <NRF24_read_register>
 80028c2:	f000 01fb 	and.w	r1, r0, #251	; 0xfb
 80028c6:	201d      	movs	r0, #29
 80028c8:	f7ff fef6 	bl	80026b8 <NRF24_write_register>
	//Disable for all pipes 
	NRF24_write_register(REG_DYNPD,0);
 80028cc:	2100      	movs	r1, #0
 80028ce:	201c      	movs	r0, #28
 80028d0:	f7ff fef2 	bl	80026b8 <NRF24_write_register>
	dynamic_payloads_enabled = false;
}
 80028d4:	bd08      	pop	{r3, pc}

080028d6 <NRF24_setAutoAck>:
{
	return p_variant;
}
//28. Set Auto Ack for all
void NRF24_setAutoAck(bool enable)
{
 80028d6:	b508      	push	{r3, lr}
	if ( enable )
 80028d8:	b920      	cbnz	r0, 80028e4 <NRF24_setAutoAck+0xe>
    NRF24_write_register(REG_EN_AA, 0x3F);
  else
    NRF24_write_register(REG_EN_AA, 0x00);
 80028da:	2100      	movs	r1, #0
 80028dc:	2001      	movs	r0, #1
 80028de:	f7ff feeb 	bl	80026b8 <NRF24_write_register>
}
 80028e2:	bd08      	pop	{r3, pc}
    NRF24_write_register(REG_EN_AA, 0x3F);
 80028e4:	213f      	movs	r1, #63	; 0x3f
 80028e6:	2001      	movs	r0, #1
 80028e8:	f7ff fee6 	bl	80026b8 <NRF24_write_register>
 80028ec:	e7f9      	b.n	80028e2 <NRF24_setAutoAck+0xc>

080028ee <NRF24_setPALevel>:
    NRF24_write_register( REG_EN_AA, en_aa ) ;
  }
}
//30. Set transmit power level
void NRF24_setPALevel( rf24_pa_dbm_e level )
{
 80028ee:	b510      	push	{r4, lr}
 80028f0:	4604      	mov	r4, r0
	uint8_t setup = NRF24_read_register(REG_RF_SETUP) ;
 80028f2:	2006      	movs	r0, #6
 80028f4:	f7ff fe9e 	bl	8002634 <NRF24_read_register>
  setup &= ~(_BV(RF_PWR_LOW) | _BV(RF_PWR_HIGH)) ;
 80028f8:	f000 01f9 	and.w	r1, r0, #249	; 0xf9

  // switch uses RAM (evil!)
  if ( level == RF24_PA_0dB)
 80028fc:	2c03      	cmp	r4, #3
 80028fe:	d009      	beq.n	8002914 <NRF24_setPALevel+0x26>
  {
    setup |= (_BV(RF_PWR_LOW) | _BV(RF_PWR_HIGH)) ;
  }
  else if ( level == RF24_PA_m6dB )
 8002900:	2c02      	cmp	r4, #2
 8002902:	d00d      	beq.n	8002920 <NRF24_setPALevel+0x32>
  {
    setup |= _BV(RF_PWR_HIGH) ;
  }
  else if ( level == RF24_PA_m12dB )
 8002904:	2c01      	cmp	r4, #1
 8002906:	d00e      	beq.n	8002926 <NRF24_setPALevel+0x38>
  {
    setup |= _BV(RF_PWR_LOW);
  }
  else if ( level == RF24_PA_m18dB )
 8002908:	b134      	cbz	r4, 8002918 <NRF24_setPALevel+0x2a>
  {
    // nothing
  }
  else if ( level == RF24_PA_ERROR )
 800290a:	2c04      	cmp	r4, #4
 800290c:	d104      	bne.n	8002918 <NRF24_setPALevel+0x2a>
  {
    // On error, go to maximum PA
    setup |= (_BV(RF_PWR_LOW) | _BV(RF_PWR_HIGH)) ;
 800290e:	f041 0106 	orr.w	r1, r1, #6
 8002912:	e001      	b.n	8002918 <NRF24_setPALevel+0x2a>
    setup |= (_BV(RF_PWR_LOW) | _BV(RF_PWR_HIGH)) ;
 8002914:	f041 0106 	orr.w	r1, r1, #6
  }

  NRF24_write_register( REG_RF_SETUP, setup ) ;
 8002918:	2006      	movs	r0, #6
 800291a:	f7ff fecd 	bl	80026b8 <NRF24_write_register>
}
 800291e:	bd10      	pop	{r4, pc}
    setup |= _BV(RF_PWR_HIGH) ;
 8002920:	f041 0104 	orr.w	r1, r1, #4
 8002924:	e7f8      	b.n	8002918 <NRF24_setPALevel+0x2a>
    setup |= _BV(RF_PWR_LOW);
 8002926:	f041 0102 	orr.w	r1, r1, #2
 800292a:	e7f5      	b.n	8002918 <NRF24_setPALevel+0x2a>

0800292c <NRF24_setDataRate>:

  return result ;
}
//32. Set data rate (250 Kbps, 1Mbps, 2Mbps)
bool NRF24_setDataRate(rf24_datarate_e speed)
{
 800292c:	b538      	push	{r3, r4, r5, lr}
 800292e:	4605      	mov	r5, r0
	bool result = false;
  uint8_t setup = NRF24_read_register(REG_RF_SETUP) ;
 8002930:	2006      	movs	r0, #6
 8002932:	f7ff fe7f 	bl	8002634 <NRF24_read_register>

  // HIGH and LOW '00' is 1Mbs - our default
  wide_band = false ;
  setup &= ~(_BV(RF_DR_LOW) | _BV(RF_DR_HIGH)) ;
 8002936:	f000 04d7 	and.w	r4, r0, #215	; 0xd7
  if( speed == RF24_250KBPS )
 800293a:	2d02      	cmp	r5, #2
 800293c:	d00c      	beq.n	8002958 <NRF24_setDataRate+0x2c>
  }
  else
  {
    // Set 2Mbs, RF_DR (RF_DR_HIGH) is set 1
    // Making it '01'
    if ( speed == RF24_2MBPS )
 800293e:	2d01      	cmp	r5, #1
 8002940:	d00d      	beq.n	800295e <NRF24_setDataRate+0x32>
    {
      // 1Mbs
      wide_band = false ;
    }
  }
  NRF24_write_register(REG_RF_SETUP,setup);
 8002942:	4621      	mov	r1, r4
 8002944:	2006      	movs	r0, #6
 8002946:	f7ff feb7 	bl	80026b8 <NRF24_write_register>

  // Verify our result
  if ( NRF24_read_register(REG_RF_SETUP) == setup )
 800294a:	2006      	movs	r0, #6
 800294c:	f7ff fe72 	bl	8002634 <NRF24_read_register>
 8002950:	42a0      	cmp	r0, r4
 8002952:	d007      	beq.n	8002964 <NRF24_setDataRate+0x38>
	bool result = false;
 8002954:	2000      	movs	r0, #0
  {
    wide_band = false;
  }

  return result;
}
 8002956:	bd38      	pop	{r3, r4, r5, pc}
    setup |= _BV( RF_DR_LOW ) ;
 8002958:	f044 0420 	orr.w	r4, r4, #32
 800295c:	e7f1      	b.n	8002942 <NRF24_setDataRate+0x16>
      setup |= _BV(RF_DR_HIGH);
 800295e:	f044 0408 	orr.w	r4, r4, #8
 8002962:	e7ee      	b.n	8002942 <NRF24_setDataRate+0x16>
    result = true;
 8002964:	2001      	movs	r0, #1
 8002966:	e7f6      	b.n	8002956 <NRF24_setDataRate+0x2a>

08002968 <NRF24_setCRCLength>:
  }
  return result ;
}
//34. Set crc length (disable, 8-bits or 16-bits)
void NRF24_setCRCLength(rf24_crclength_e length)
{
 8002968:	b510      	push	{r4, lr}
 800296a:	4604      	mov	r4, r0
	uint8_t config = NRF24_read_register(REG_CONFIG) & ~( _BV(BIT_CRCO) | _BV(BIT_EN_CRC)) ;
 800296c:	2000      	movs	r0, #0
 800296e:	f7ff fe61 	bl	8002634 <NRF24_read_register>
 8002972:	f000 01f3 	and.w	r1, r0, #243	; 0xf3
  
  // switch uses RAM
  if ( length == RF24_CRC_DISABLED )
 8002976:	b11c      	cbz	r4, 8002980 <NRF24_setCRCLength+0x18>
  {
    // Do nothing, we turned it off above. 
  }
  else if ( length == RF24_CRC_8 )
 8002978:	2c01      	cmp	r4, #1
 800297a:	d005      	beq.n	8002988 <NRF24_setCRCLength+0x20>
    config |= _BV(BIT_EN_CRC);
  }
  else
  {
    config |= _BV(BIT_EN_CRC);
    config |= _BV( BIT_CRCO );
 800297c:	f041 010c 	orr.w	r1, r1, #12
  }
  NRF24_write_register( REG_CONFIG, config );
 8002980:	2000      	movs	r0, #0
 8002982:	f7ff fe99 	bl	80026b8 <NRF24_write_register>
}
 8002986:	bd10      	pop	{r4, pc}
    config |= _BV(BIT_EN_CRC);
 8002988:	f041 0108 	orr.w	r1, r1, #8
 800298c:	e7f8      	b.n	8002980 <NRF24_setCRCLength+0x18>

0800298e <NRF24_powerDown>:
{
	NRF24_write_register(REG_CONFIG,NRF24_read_register(REG_CONFIG) | _BV(BIT_PWR_UP));
}
//38. power down
void NRF24_powerDown(void)
{
 800298e:	b508      	push	{r3, lr}
	NRF24_write_register(REG_CONFIG,NRF24_read_register(REG_CONFIG) & ~_BV(BIT_PWR_UP));
 8002990:	2000      	movs	r0, #0
 8002992:	f7ff fe4f 	bl	8002634 <NRF24_read_register>
 8002996:	f000 01fd 	and.w	r1, r0, #253	; 0xfd
 800299a:	2000      	movs	r0, #0
 800299c:	f7ff fe8c 	bl	80026b8 <NRF24_write_register>
}
 80029a0:	bd08      	pop	{r3, pc}

080029a2 <NRF24_availablePipe>:
//39. Check if data are available and on which pipe (Use this for multiple rx pipes)
bool NRF24_availablePipe(uint8_t* pipe_num)
{
 80029a2:	b570      	push	{r4, r5, r6, lr}
 80029a4:	4606      	mov	r6, r0
	uint8_t status = NRF24_get_status();
 80029a6:	f7ff fecd 	bl	8002744 <NRF24_get_status>
 80029aa:	f000 0340 	and.w	r3, r0, #64	; 0x40

  bool result = ( status & _BV(BIT_RX_DR) );
 80029ae:	2b00      	cmp	r3, #0
 80029b0:	bf14      	ite	ne
 80029b2:	2501      	movne	r5, #1
 80029b4:	2500      	moveq	r5, #0

  if (result)
 80029b6:	d00b      	beq.n	80029d0 <NRF24_availablePipe+0x2e>
 80029b8:	4604      	mov	r4, r0
  {
    // If the caller wants the pipe number, include that
    if ( pipe_num )
 80029ba:	b116      	cbz	r6, 80029c2 <NRF24_availablePipe+0x20>
      *pipe_num = ( status >> BIT_RX_P_NO ) & 0x7;
 80029bc:	f3c0 0342 	ubfx	r3, r0, #1, #3
 80029c0:	7033      	strb	r3, [r6, #0]

    // Clear the status bit
    NRF24_write_register(REG_STATUS,_BV(BIT_RX_DR) );
 80029c2:	2140      	movs	r1, #64	; 0x40
 80029c4:	2007      	movs	r0, #7
 80029c6:	f7ff fe77 	bl	80026b8 <NRF24_write_register>

    // Handle ack payload receipt
    if ( status & _BV(BIT_TX_DS) )
 80029ca:	f014 0f20 	tst.w	r4, #32
 80029ce:	d101      	bne.n	80029d4 <NRF24_availablePipe+0x32>
    {
      NRF24_write_register(REG_STATUS,_BV(BIT_TX_DS));
    }
  }
  return result;
}
 80029d0:	4628      	mov	r0, r5
 80029d2:	bd70      	pop	{r4, r5, r6, pc}
      NRF24_write_register(REG_STATUS,_BV(BIT_TX_DS));
 80029d4:	2120      	movs	r1, #32
 80029d6:	2007      	movs	r0, #7
 80029d8:	f7ff fe6e 	bl	80026b8 <NRF24_write_register>
 80029dc:	e7f8      	b.n	80029d0 <NRF24_availablePipe+0x2e>

080029de <NRF24_available>:
{
 80029de:	b508      	push	{r3, lr}
	return NRF24_availablePipe(NULL);
 80029e0:	2000      	movs	r0, #0
 80029e2:	f7ff ffde 	bl	80029a2 <NRF24_availablePipe>
}
 80029e6:	bd08      	pop	{r3, pc}

080029e8 <NRF24_writeAckPayload>:
  NRF24_DelayMicroSeconds(15);
  NRF24_ce(0);
}
//41. Write acknowledge payload
void NRF24_writeAckPayload(uint8_t pipe, const void* buf, uint8_t len)
{
 80029e8:	b570      	push	{r4, r5, r6, lr}
 80029ea:	4604      	mov	r4, r0
 80029ec:	460d      	mov	r5, r1
	const uint8_t* current = (uint8_t *)buf;
	const uint8_t max_payload_size = 32;
  uint8_t data_len = MIN(len,max_payload_size);
 80029ee:	2a20      	cmp	r2, #32
 80029f0:	bf28      	it	cs
 80029f2:	2220      	movcs	r2, #32
 80029f4:	4616      	mov	r6, r2
	
  NRF24_csn(0);
 80029f6:	2000      	movs	r0, #0
 80029f8:	f7ff fdf0 	bl	80025dc <NRF24_csn>
	NRF24_write_registerN(CMD_W_ACK_PAYLOAD | ( pipe & 0x7 ) , current, data_len);
 80029fc:	f004 0007 	and.w	r0, r4, #7
 8002a00:	4632      	mov	r2, r6
 8002a02:	4629      	mov	r1, r5
 8002a04:	f040 00a8 	orr.w	r0, r0, #168	; 0xa8
 8002a08:	f7ff fe70 	bl	80026ec <NRF24_write_registerN>
  NRF24_csn(1);
 8002a0c:	2001      	movs	r0, #1
 8002a0e:	f7ff fde5 	bl	80025dc <NRF24_csn>
}
 8002a12:	bd70      	pop	{r4, r5, r6, pc}

08002a14 <NRF24_resetStatus>:
	return NRF24_read_register(REG_RPD) & 1;
}

//46. Reset Status
void NRF24_resetStatus(void)
{
 8002a14:	b508      	push	{r3, lr}
	NRF24_write_register(REG_STATUS,_BV(BIT_RX_DR) | _BV(BIT_TX_DS) | _BV(BIT_MAX_RT) );
 8002a16:	2170      	movs	r1, #112	; 0x70
 8002a18:	2007      	movs	r0, #7
 8002a1a:	f7ff fe4d 	bl	80026b8 <NRF24_write_register>
}
 8002a1e:	bd08      	pop	{r3, pc}

08002a20 <NRF24_ACTIVATE_cmd>:

//47. ACTIVATE cmd
void NRF24_ACTIVATE_cmd(void)
{
 8002a20:	b500      	push	{lr}
 8002a22:	b083      	sub	sp, #12
	uint8_t cmdRxBuf[2];
	//Read data from Rx payload buffer
	NRF24_csn(0);
 8002a24:	2000      	movs	r0, #0
 8002a26:	f7ff fdd9 	bl	80025dc <NRF24_csn>
	cmdRxBuf[0] = CMD_ACTIVATE;
 8002a2a:	2350      	movs	r3, #80	; 0x50
 8002a2c:	f88d 3004 	strb.w	r3, [sp, #4]
	cmdRxBuf[1] = 0x73;
 8002a30:	2373      	movs	r3, #115	; 0x73
 8002a32:	f88d 3005 	strb.w	r3, [sp, #5]
	HAL_SPI_Transmit(&nrf24_hspi, cmdRxBuf, 2, 100);
 8002a36:	2364      	movs	r3, #100	; 0x64
 8002a38:	2202      	movs	r2, #2
 8002a3a:	a901      	add	r1, sp, #4
 8002a3c:	4804      	ldr	r0, [pc, #16]	; (8002a50 <NRF24_ACTIVATE_cmd+0x30>)
 8002a3e:	f002 fccf 	bl	80053e0 <HAL_SPI_Transmit>
	NRF24_csn(1);
 8002a42:	2001      	movs	r0, #1
 8002a44:	f7ff fdca 	bl	80025dc <NRF24_csn>
}
 8002a48:	b003      	add	sp, #12
 8002a4a:	f85d fb04 	ldr.w	pc, [sp], #4
 8002a4e:	bf00      	nop
 8002a50:	200002c8 	.word	0x200002c8

08002a54 <NRF24_enableAckPayload>:
{
 8002a54:	b508      	push	{r3, lr}
	 NRF24_write_register(REG_FEATURE,NRF24_read_register(REG_FEATURE) | _BV(BIT_EN_ACK_PAY) | _BV(BIT_EN_DPL) );
 8002a56:	201d      	movs	r0, #29
 8002a58:	f7ff fdec 	bl	8002634 <NRF24_read_register>
 8002a5c:	f040 0106 	orr.w	r1, r0, #6
 8002a60:	b2c9      	uxtb	r1, r1
 8002a62:	201d      	movs	r0, #29
 8002a64:	f7ff fe28 	bl	80026b8 <NRF24_write_register>
	if(!NRF24_read_register(REG_FEATURE))
 8002a68:	201d      	movs	r0, #29
 8002a6a:	f7ff fde3 	bl	8002634 <NRF24_read_register>
 8002a6e:	b148      	cbz	r0, 8002a84 <NRF24_enableAckPayload+0x30>
	NRF24_write_register(REG_DYNPD,NRF24_read_register(REG_DYNPD) | _BV(BIT_DPL_P1) | _BV(BIT_DPL_P0));
 8002a70:	201c      	movs	r0, #28
 8002a72:	f7ff fddf 	bl	8002634 <NRF24_read_register>
 8002a76:	f040 0103 	orr.w	r1, r0, #3
 8002a7a:	b2c9      	uxtb	r1, r1
 8002a7c:	201c      	movs	r0, #28
 8002a7e:	f7ff fe1b 	bl	80026b8 <NRF24_write_register>
}
 8002a82:	bd08      	pop	{r3, pc}
		NRF24_ACTIVATE_cmd();
 8002a84:	f7ff ffcc 	bl	8002a20 <NRF24_ACTIVATE_cmd>
		NRF24_write_register(REG_FEATURE,NRF24_read_register(REG_FEATURE) | _BV(BIT_EN_ACK_PAY) | _BV(BIT_EN_DPL) );
 8002a88:	201d      	movs	r0, #29
 8002a8a:	f7ff fdd3 	bl	8002634 <NRF24_read_register>
 8002a8e:	f040 0106 	orr.w	r1, r0, #6
 8002a92:	b2c9      	uxtb	r1, r1
 8002a94:	201d      	movs	r0, #29
 8002a96:	f7ff fe0f 	bl	80026b8 <NRF24_write_register>
 8002a9a:	e7e9      	b.n	8002a70 <NRF24_enableAckPayload+0x1c>

08002a9c <printRadioSettings>:
{
	return ack_payload_length;
}

void printRadioSettings(void)
{
 8002a9c:	b570      	push	{r4, r5, r6, lr}
 8002a9e:	b0a0      	sub	sp, #128	; 0x80
	uint8_t reg8Val;
	char uartTxBuf[100];
	sprintf(uartTxBuf, "\r\n**********************************************\r\n");
 8002aa0:	ac07      	add	r4, sp, #28
 8002aa2:	4dc4      	ldr	r5, [pc, #784]	; (8002db4 <printRadioSettings+0x318>)
 8002aa4:	cd0f      	ldmia	r5!, {r0, r1, r2, r3}
 8002aa6:	c40f      	stmia	r4!, {r0, r1, r2, r3}
 8002aa8:	cd0f      	ldmia	r5!, {r0, r1, r2, r3}
 8002aaa:	c40f      	stmia	r4!, {r0, r1, r2, r3}
 8002aac:	cd0f      	ldmia	r5!, {r0, r1, r2, r3}
 8002aae:	c40f      	stmia	r4!, {r0, r1, r2, r3}
 8002ab0:	682b      	ldr	r3, [r5, #0]
 8002ab2:	f824 3b02 	strh.w	r3, [r4], #2
 8002ab6:	0c1b      	lsrs	r3, r3, #16
 8002ab8:	7023      	strb	r3, [r4, #0]
	HAL_UART_Transmit(&nrf24_huart, (uint8_t *)uartTxBuf, strlen(uartTxBuf), 10);
 8002aba:	a807      	add	r0, sp, #28
 8002abc:	f7fe f92e 	bl	8000d1c <strlen>
 8002ac0:	230a      	movs	r3, #10
 8002ac2:	b282      	uxth	r2, r0
 8002ac4:	a907      	add	r1, sp, #28
 8002ac6:	48bc      	ldr	r0, [pc, #752]	; (8002db8 <printRadioSettings+0x31c>)
 8002ac8:	f003 fcf2 	bl	80064b0 <HAL_UART_Transmit>
	//a) Get CRC settings - Config Register
	reg8Val = NRF24_read_register(0x00);
 8002acc:	2000      	movs	r0, #0
 8002ace:	f7ff fdb1 	bl	8002634 <NRF24_read_register>
	if(reg8Val & (1 << 3))
 8002ad2:	f010 0f08 	tst.w	r0, #8
 8002ad6:	f000 8261 	beq.w	8002f9c <printRadioSettings+0x500>
	{
		if(reg8Val & (1 << 2)) sprintf(uartTxBuf, "CRC:\r\n		Enabled, 2 Bytes \r\n");
 8002ada:	f010 0f04 	tst.w	r0, #4
 8002ade:	f000 8251 	beq.w	8002f84 <printRadioSettings+0x4e8>
 8002ae2:	ac07      	add	r4, sp, #28
 8002ae4:	4db5      	ldr	r5, [pc, #724]	; (8002dbc <printRadioSettings+0x320>)
 8002ae6:	cd0f      	ldmia	r5!, {r0, r1, r2, r3}
 8002ae8:	c40f      	stmia	r4!, {r0, r1, r2, r3}
 8002aea:	e895 0007 	ldmia.w	r5, {r0, r1, r2}
 8002aee:	e884 0007 	stmia.w	r4, {r0, r1, r2}
	}
	else
	{
		sprintf(uartTxBuf, "CRC:\r\n		Disabled \r\n");
	}
	HAL_UART_Transmit(&nrf24_huart, (uint8_t *)uartTxBuf, strlen(uartTxBuf), 10);
 8002af2:	a807      	add	r0, sp, #28
 8002af4:	f7fe f912 	bl	8000d1c <strlen>
 8002af8:	4caf      	ldr	r4, [pc, #700]	; (8002db8 <printRadioSettings+0x31c>)
 8002afa:	230a      	movs	r3, #10
 8002afc:	b282      	uxth	r2, r0
 8002afe:	a907      	add	r1, sp, #28
 8002b00:	4620      	mov	r0, r4
 8002b02:	f003 fcd5 	bl	80064b0 <HAL_UART_Transmit>
	//b) AutoAck on pipes
	reg8Val = NRF24_read_register(0x01);
 8002b06:	2001      	movs	r0, #1
 8002b08:	f7ff fd94 	bl	8002634 <NRF24_read_register>
	sprintf(uartTxBuf, "ENAA:\r\n		P0:	%d\r\n		P1:	%d\r\n		P2:	%d\r\n		P3:	%d\r\n		P4:	%d\r\n		P5:	%d\r\n",
 8002b0c:	f3c0 1340 	ubfx	r3, r0, #5, #1
 8002b10:	9303      	str	r3, [sp, #12]
 8002b12:	f3c0 1300 	ubfx	r3, r0, #4, #1
 8002b16:	9302      	str	r3, [sp, #8]
 8002b18:	f3c0 03c0 	ubfx	r3, r0, #3, #1
 8002b1c:	9301      	str	r3, [sp, #4]
 8002b1e:	f3c0 0380 	ubfx	r3, r0, #2, #1
 8002b22:	9300      	str	r3, [sp, #0]
 8002b24:	f3c0 0340 	ubfx	r3, r0, #1, #1
 8002b28:	f000 0201 	and.w	r2, r0, #1
 8002b2c:	49a4      	ldr	r1, [pc, #656]	; (8002dc0 <printRadioSettings+0x324>)
 8002b2e:	a807      	add	r0, sp, #28
 8002b30:	f005 fa52 	bl	8007fd8 <siprintf>
	_BOOL(reg8Val&(1<<0)), _BOOL(reg8Val&(1<<1)), _BOOL(reg8Val&(1<<2)), _BOOL(reg8Val&(1<<3)), _BOOL(reg8Val&(1<<4)), _BOOL(reg8Val&(1<<5)));
	HAL_UART_Transmit(&nrf24_huart, (uint8_t *)uartTxBuf, strlen(uartTxBuf), 10);
 8002b34:	a807      	add	r0, sp, #28
 8002b36:	f7fe f8f1 	bl	8000d1c <strlen>
 8002b3a:	230a      	movs	r3, #10
 8002b3c:	b282      	uxth	r2, r0
 8002b3e:	a907      	add	r1, sp, #28
 8002b40:	4620      	mov	r0, r4
 8002b42:	f003 fcb5 	bl	80064b0 <HAL_UART_Transmit>
	//c) Enabled Rx addresses
	reg8Val = NRF24_read_register(0x02);
 8002b46:	2002      	movs	r0, #2
 8002b48:	f7ff fd74 	bl	8002634 <NRF24_read_register>
	sprintf(uartTxBuf, "EN_RXADDR:\r\n		P0:	%d\r\n		P1:	%d\r\n		P2:	%d\r\n		P3:	%d\r\n		P4:	%d\r\n		P5:	%d\r\n",
 8002b4c:	f3c0 1340 	ubfx	r3, r0, #5, #1
 8002b50:	9303      	str	r3, [sp, #12]
 8002b52:	f3c0 1300 	ubfx	r3, r0, #4, #1
 8002b56:	9302      	str	r3, [sp, #8]
 8002b58:	f3c0 03c0 	ubfx	r3, r0, #3, #1
 8002b5c:	9301      	str	r3, [sp, #4]
 8002b5e:	f3c0 0380 	ubfx	r3, r0, #2, #1
 8002b62:	9300      	str	r3, [sp, #0]
 8002b64:	f3c0 0340 	ubfx	r3, r0, #1, #1
 8002b68:	f000 0201 	and.w	r2, r0, #1
 8002b6c:	4995      	ldr	r1, [pc, #596]	; (8002dc4 <printRadioSettings+0x328>)
 8002b6e:	a807      	add	r0, sp, #28
 8002b70:	f005 fa32 	bl	8007fd8 <siprintf>
	_BOOL(reg8Val&(1<<0)), _BOOL(reg8Val&(1<<1)), _BOOL(reg8Val&(1<<2)), _BOOL(reg8Val&(1<<3)), _BOOL(reg8Val&(1<<4)), _BOOL(reg8Val&(1<<5)));
	HAL_UART_Transmit(&nrf24_huart, (uint8_t *)uartTxBuf, strlen(uartTxBuf), 10);
 8002b74:	a807      	add	r0, sp, #28
 8002b76:	f7fe f8d1 	bl	8000d1c <strlen>
 8002b7a:	230a      	movs	r3, #10
 8002b7c:	b282      	uxth	r2, r0
 8002b7e:	a907      	add	r1, sp, #28
 8002b80:	4620      	mov	r0, r4
 8002b82:	f003 fc95 	bl	80064b0 <HAL_UART_Transmit>
	//d) Address width
	reg8Val = NRF24_read_register(0x03)&0x03;
 8002b86:	2003      	movs	r0, #3
 8002b88:	f7ff fd54 	bl	8002634 <NRF24_read_register>
 8002b8c:	f000 0203 	and.w	r2, r0, #3
	reg8Val +=2;
	sprintf(uartTxBuf, "SETUP_AW:\r\n		%d bytes \r\n", reg8Val);
 8002b90:	3202      	adds	r2, #2
 8002b92:	498d      	ldr	r1, [pc, #564]	; (8002dc8 <printRadioSettings+0x32c>)
 8002b94:	a807      	add	r0, sp, #28
 8002b96:	f005 fa1f 	bl	8007fd8 <siprintf>
	HAL_UART_Transmit(&nrf24_huart, (uint8_t *)uartTxBuf, strlen(uartTxBuf), 10);
 8002b9a:	a807      	add	r0, sp, #28
 8002b9c:	f7fe f8be 	bl	8000d1c <strlen>
 8002ba0:	230a      	movs	r3, #10
 8002ba2:	b282      	uxth	r2, r0
 8002ba4:	a907      	add	r1, sp, #28
 8002ba6:	4620      	mov	r0, r4
 8002ba8:	f003 fc82 	bl	80064b0 <HAL_UART_Transmit>
	//e) RF channel
	reg8Val = NRF24_read_register(0x05);
 8002bac:	2005      	movs	r0, #5
 8002bae:	f7ff fd41 	bl	8002634 <NRF24_read_register>
	sprintf(uartTxBuf, "RF_CH:\r\n		%d CH \r\n", reg8Val&0x7F);
 8002bb2:	f000 027f 	and.w	r2, r0, #127	; 0x7f
 8002bb6:	4985      	ldr	r1, [pc, #532]	; (8002dcc <printRadioSettings+0x330>)
 8002bb8:	a807      	add	r0, sp, #28
 8002bba:	f005 fa0d 	bl	8007fd8 <siprintf>
	HAL_UART_Transmit(&nrf24_huart, (uint8_t *)uartTxBuf, strlen(uartTxBuf), 10);
 8002bbe:	a807      	add	r0, sp, #28
 8002bc0:	f7fe f8ac 	bl	8000d1c <strlen>
 8002bc4:	230a      	movs	r3, #10
 8002bc6:	b282      	uxth	r2, r0
 8002bc8:	a907      	add	r1, sp, #28
 8002bca:	4620      	mov	r0, r4
 8002bcc:	f003 fc70 	bl	80064b0 <HAL_UART_Transmit>
	//f) Data rate & RF_PWR
	reg8Val = NRF24_read_register(0x06);
 8002bd0:	2006      	movs	r0, #6
 8002bd2:	f7ff fd2f 	bl	8002634 <NRF24_read_register>
 8002bd6:	4604      	mov	r4, r0
	if(reg8Val & (1 << 3)) sprintf(uartTxBuf, "Data Rate:\r\n		2Mbps \r\n");
 8002bd8:	f010 0f08 	tst.w	r0, #8
 8002bdc:	f000 81e5 	beq.w	8002faa <printRadioSettings+0x50e>
 8002be0:	ad07      	add	r5, sp, #28
 8002be2:	4e7b      	ldr	r6, [pc, #492]	; (8002dd0 <printRadioSettings+0x334>)
 8002be4:	ce0f      	ldmia	r6!, {r0, r1, r2, r3}
 8002be6:	c50f      	stmia	r5!, {r0, r1, r2, r3}
 8002be8:	e896 0003 	ldmia.w	r6, {r0, r1}
 8002bec:	f845 0b04 	str.w	r0, [r5], #4
 8002bf0:	f825 1b02 	strh.w	r1, [r5], #2
 8002bf4:	0c09      	lsrs	r1, r1, #16
 8002bf6:	7029      	strb	r1, [r5, #0]
	else sprintf(uartTxBuf, "Data Rate:\r\n		1Mbps \r\n");
	HAL_UART_Transmit(&nrf24_huart, (uint8_t *)uartTxBuf, strlen(uartTxBuf), 10);
 8002bf8:	a807      	add	r0, sp, #28
 8002bfa:	f7fe f88f 	bl	8000d1c <strlen>
 8002bfe:	230a      	movs	r3, #10
 8002c00:	b282      	uxth	r2, r0
 8002c02:	a907      	add	r1, sp, #28
 8002c04:	486c      	ldr	r0, [pc, #432]	; (8002db8 <printRadioSettings+0x31c>)
 8002c06:	f003 fc53 	bl	80064b0 <HAL_UART_Transmit>
	reg8Val &= (3 << 1);
	reg8Val = (reg8Val>>1);
 8002c0a:	f3c4 0441 	ubfx	r4, r4, #1, #2
	if(reg8Val == 0) sprintf(uartTxBuf, "RF_PWR:\r\n		-18dB \r\n");
 8002c0e:	2c00      	cmp	r4, #0
 8002c10:	f000 81d8 	beq.w	8002fc4 <printRadioSettings+0x528>
	else if(reg8Val == 1) sprintf(uartTxBuf, "RF_PWR:\r\n		-12dB \r\n");
 8002c14:	2c01      	cmp	r4, #1
 8002c16:	f000 81dc 	beq.w	8002fd2 <printRadioSettings+0x536>
	else if(reg8Val == 2) sprintf(uartTxBuf, "RF_PWR:\r\n		-6dB \r\n");
 8002c1a:	2c02      	cmp	r4, #2
 8002c1c:	f000 81e0 	beq.w	8002fe0 <printRadioSettings+0x544>
	else if(reg8Val == 3) sprintf(uartTxBuf, "RF_PWR:\r\n		0dB \r\n");
 8002c20:	2c03      	cmp	r4, #3
 8002c22:	f000 81e7 	beq.w	8002ff4 <printRadioSettings+0x558>
	HAL_UART_Transmit(&nrf24_huart, (uint8_t *)uartTxBuf, strlen(uartTxBuf), 10);
 8002c26:	a807      	add	r0, sp, #28
 8002c28:	f7fe f878 	bl	8000d1c <strlen>
 8002c2c:	4c62      	ldr	r4, [pc, #392]	; (8002db8 <printRadioSettings+0x31c>)
 8002c2e:	230a      	movs	r3, #10
 8002c30:	b282      	uxth	r2, r0
 8002c32:	a907      	add	r1, sp, #28
 8002c34:	4620      	mov	r0, r4
 8002c36:	f003 fc3b 	bl	80064b0 <HAL_UART_Transmit>
	//g) RX pipes addresses
	uint8_t pipeAddrs[6];
	NRF24_read_registerN(0x0A, pipeAddrs, 5);
 8002c3a:	2205      	movs	r2, #5
 8002c3c:	a905      	add	r1, sp, #20
 8002c3e:	200a      	movs	r0, #10
 8002c40:	f7ff fd1a 	bl	8002678 <NRF24_read_registerN>
	sprintf(uartTxBuf, "RX_Pipe0 Addrs:\r\n		%02X,%02X,%02X,%02X,%02X  \r\n", pipeAddrs[4], pipeAddrs[3], pipeAddrs[2],pipeAddrs[1],pipeAddrs[0]);
 8002c44:	f89d 2018 	ldrb.w	r2, [sp, #24]
 8002c48:	f89d 3017 	ldrb.w	r3, [sp, #23]
 8002c4c:	f89d 1016 	ldrb.w	r1, [sp, #22]
 8002c50:	f89d 0015 	ldrb.w	r0, [sp, #21]
 8002c54:	f89d 5014 	ldrb.w	r5, [sp, #20]
 8002c58:	9502      	str	r5, [sp, #8]
 8002c5a:	9001      	str	r0, [sp, #4]
 8002c5c:	9100      	str	r1, [sp, #0]
 8002c5e:	495d      	ldr	r1, [pc, #372]	; (8002dd4 <printRadioSettings+0x338>)
 8002c60:	a807      	add	r0, sp, #28
 8002c62:	f005 f9b9 	bl	8007fd8 <siprintf>
	HAL_UART_Transmit(&nrf24_huart, (uint8_t *)uartTxBuf, strlen(uartTxBuf), 10);
 8002c66:	a807      	add	r0, sp, #28
 8002c68:	f7fe f858 	bl	8000d1c <strlen>
 8002c6c:	230a      	movs	r3, #10
 8002c6e:	b282      	uxth	r2, r0
 8002c70:	a907      	add	r1, sp, #28
 8002c72:	4620      	mov	r0, r4
 8002c74:	f003 fc1c 	bl	80064b0 <HAL_UART_Transmit>
	
	NRF24_read_registerN(0x0A+1, pipeAddrs, 5);
 8002c78:	2205      	movs	r2, #5
 8002c7a:	a905      	add	r1, sp, #20
 8002c7c:	200b      	movs	r0, #11
 8002c7e:	f7ff fcfb 	bl	8002678 <NRF24_read_registerN>
	sprintf(uartTxBuf, "RX_Pipe1 Addrs:\r\n		%02X,%02X,%02X,%02X,%02X  \r\n", pipeAddrs[4], pipeAddrs[3], pipeAddrs[2],pipeAddrs[1],pipeAddrs[0]);
 8002c82:	f89d 2018 	ldrb.w	r2, [sp, #24]
 8002c86:	f89d 3017 	ldrb.w	r3, [sp, #23]
 8002c8a:	f89d 1016 	ldrb.w	r1, [sp, #22]
 8002c8e:	f89d 0015 	ldrb.w	r0, [sp, #21]
 8002c92:	f89d 5014 	ldrb.w	r5, [sp, #20]
 8002c96:	9502      	str	r5, [sp, #8]
 8002c98:	9001      	str	r0, [sp, #4]
 8002c9a:	9100      	str	r1, [sp, #0]
 8002c9c:	494e      	ldr	r1, [pc, #312]	; (8002dd8 <printRadioSettings+0x33c>)
 8002c9e:	a807      	add	r0, sp, #28
 8002ca0:	f005 f99a 	bl	8007fd8 <siprintf>
	HAL_UART_Transmit(&nrf24_huart, (uint8_t *)uartTxBuf, strlen(uartTxBuf), 10);
 8002ca4:	a807      	add	r0, sp, #28
 8002ca6:	f7fe f839 	bl	8000d1c <strlen>
 8002caa:	230a      	movs	r3, #10
 8002cac:	b282      	uxth	r2, r0
 8002cae:	a907      	add	r1, sp, #28
 8002cb0:	4620      	mov	r0, r4
 8002cb2:	f003 fbfd 	bl	80064b0 <HAL_UART_Transmit>
	
	NRF24_read_registerN(0x0A+2, pipeAddrs, 1);
 8002cb6:	2201      	movs	r2, #1
 8002cb8:	a905      	add	r1, sp, #20
 8002cba:	200c      	movs	r0, #12
 8002cbc:	f7ff fcdc 	bl	8002678 <NRF24_read_registerN>
	sprintf(uartTxBuf, "RX_Pipe2 Addrs:\r\n		xx,xx,xx,xx,%02X  \r\n", pipeAddrs[0]);
 8002cc0:	f89d 2014 	ldrb.w	r2, [sp, #20]
 8002cc4:	4945      	ldr	r1, [pc, #276]	; (8002ddc <printRadioSettings+0x340>)
 8002cc6:	a807      	add	r0, sp, #28
 8002cc8:	f005 f986 	bl	8007fd8 <siprintf>
	HAL_UART_Transmit(&nrf24_huart, (uint8_t *)uartTxBuf, strlen(uartTxBuf), 10);
 8002ccc:	a807      	add	r0, sp, #28
 8002cce:	f7fe f825 	bl	8000d1c <strlen>
 8002cd2:	230a      	movs	r3, #10
 8002cd4:	b282      	uxth	r2, r0
 8002cd6:	a907      	add	r1, sp, #28
 8002cd8:	4620      	mov	r0, r4
 8002cda:	f003 fbe9 	bl	80064b0 <HAL_UART_Transmit>
	
	NRF24_read_registerN(0x0A+3, pipeAddrs, 1);
 8002cde:	2201      	movs	r2, #1
 8002ce0:	a905      	add	r1, sp, #20
 8002ce2:	200d      	movs	r0, #13
 8002ce4:	f7ff fcc8 	bl	8002678 <NRF24_read_registerN>
	sprintf(uartTxBuf, "RX_Pipe3 Addrs:\r\n		xx,xx,xx,xx,%02X  \r\n", pipeAddrs[0]);
 8002ce8:	f89d 2014 	ldrb.w	r2, [sp, #20]
 8002cec:	493c      	ldr	r1, [pc, #240]	; (8002de0 <printRadioSettings+0x344>)
 8002cee:	a807      	add	r0, sp, #28
 8002cf0:	f005 f972 	bl	8007fd8 <siprintf>
	HAL_UART_Transmit(&nrf24_huart, (uint8_t *)uartTxBuf, strlen(uartTxBuf), 10);
 8002cf4:	a807      	add	r0, sp, #28
 8002cf6:	f7fe f811 	bl	8000d1c <strlen>
 8002cfa:	230a      	movs	r3, #10
 8002cfc:	b282      	uxth	r2, r0
 8002cfe:	a907      	add	r1, sp, #28
 8002d00:	4620      	mov	r0, r4
 8002d02:	f003 fbd5 	bl	80064b0 <HAL_UART_Transmit>
	
	NRF24_read_registerN(0x0A+4, pipeAddrs, 1);
 8002d06:	2201      	movs	r2, #1
 8002d08:	a905      	add	r1, sp, #20
 8002d0a:	200e      	movs	r0, #14
 8002d0c:	f7ff fcb4 	bl	8002678 <NRF24_read_registerN>
	sprintf(uartTxBuf, "RX_Pipe4 Addrs:\r\n		xx,xx,xx,xx,%02X  \r\n", pipeAddrs[0]);
 8002d10:	f89d 2014 	ldrb.w	r2, [sp, #20]
 8002d14:	4933      	ldr	r1, [pc, #204]	; (8002de4 <printRadioSettings+0x348>)
 8002d16:	a807      	add	r0, sp, #28
 8002d18:	f005 f95e 	bl	8007fd8 <siprintf>
	HAL_UART_Transmit(&nrf24_huart, (uint8_t *)uartTxBuf, strlen(uartTxBuf), 10);
 8002d1c:	a807      	add	r0, sp, #28
 8002d1e:	f7fd fffd 	bl	8000d1c <strlen>
 8002d22:	230a      	movs	r3, #10
 8002d24:	b282      	uxth	r2, r0
 8002d26:	a907      	add	r1, sp, #28
 8002d28:	4620      	mov	r0, r4
 8002d2a:	f003 fbc1 	bl	80064b0 <HAL_UART_Transmit>
	
	NRF24_read_registerN(0x0A+5, pipeAddrs, 1);
 8002d2e:	2201      	movs	r2, #1
 8002d30:	a905      	add	r1, sp, #20
 8002d32:	200f      	movs	r0, #15
 8002d34:	f7ff fca0 	bl	8002678 <NRF24_read_registerN>
	sprintf(uartTxBuf, "RX_Pipe5 Addrs:\r\n		xx,xx,xx,xx,%02X  \r\n", pipeAddrs[0]);
 8002d38:	f89d 2014 	ldrb.w	r2, [sp, #20]
 8002d3c:	492a      	ldr	r1, [pc, #168]	; (8002de8 <printRadioSettings+0x34c>)
 8002d3e:	a807      	add	r0, sp, #28
 8002d40:	f005 f94a 	bl	8007fd8 <siprintf>
	HAL_UART_Transmit(&nrf24_huart, (uint8_t *)uartTxBuf, strlen(uartTxBuf), 10);
 8002d44:	a807      	add	r0, sp, #28
 8002d46:	f7fd ffe9 	bl	8000d1c <strlen>
 8002d4a:	230a      	movs	r3, #10
 8002d4c:	b282      	uxth	r2, r0
 8002d4e:	a907      	add	r1, sp, #28
 8002d50:	4620      	mov	r0, r4
 8002d52:	f003 fbad 	bl	80064b0 <HAL_UART_Transmit>
	
	NRF24_read_registerN(0x0A+6, pipeAddrs, 5);
 8002d56:	2205      	movs	r2, #5
 8002d58:	a905      	add	r1, sp, #20
 8002d5a:	2010      	movs	r0, #16
 8002d5c:	f7ff fc8c 	bl	8002678 <NRF24_read_registerN>
	sprintf(uartTxBuf, "TX Addrs:\r\n		%02X,%02X,%02X,%02X,%02X  \r\n", pipeAddrs[4], pipeAddrs[3], pipeAddrs[2],pipeAddrs[1],pipeAddrs[0]);
 8002d60:	f89d 2018 	ldrb.w	r2, [sp, #24]
 8002d64:	f89d 3017 	ldrb.w	r3, [sp, #23]
 8002d68:	f89d 1016 	ldrb.w	r1, [sp, #22]
 8002d6c:	f89d 0015 	ldrb.w	r0, [sp, #21]
 8002d70:	f89d 5014 	ldrb.w	r5, [sp, #20]
 8002d74:	9502      	str	r5, [sp, #8]
 8002d76:	9001      	str	r0, [sp, #4]
 8002d78:	9100      	str	r1, [sp, #0]
 8002d7a:	491c      	ldr	r1, [pc, #112]	; (8002dec <printRadioSettings+0x350>)
 8002d7c:	a807      	add	r0, sp, #28
 8002d7e:	f005 f92b 	bl	8007fd8 <siprintf>
	HAL_UART_Transmit(&nrf24_huart, (uint8_t *)uartTxBuf, strlen(uartTxBuf), 10);
 8002d82:	a807      	add	r0, sp, #28
 8002d84:	f7fd ffca 	bl	8000d1c <strlen>
 8002d88:	230a      	movs	r3, #10
 8002d8a:	b282      	uxth	r2, r0
 8002d8c:	a907      	add	r1, sp, #28
 8002d8e:	4620      	mov	r0, r4
 8002d90:	f003 fb8e 	bl	80064b0 <HAL_UART_Transmit>
	
	//h) RX PW (Payload Width 0 - 32)
	reg8Val = NRF24_read_register(0x11);
 8002d94:	2011      	movs	r0, #17
 8002d96:	f7ff fc4d 	bl	8002634 <NRF24_read_register>
	sprintf(uartTxBuf, "RX_PW_P0:\r\n		%d bytes \r\n", reg8Val&0x3F);
 8002d9a:	f000 023f 	and.w	r2, r0, #63	; 0x3f
 8002d9e:	4914      	ldr	r1, [pc, #80]	; (8002df0 <printRadioSettings+0x354>)
 8002da0:	a807      	add	r0, sp, #28
 8002da2:	f005 f919 	bl	8007fd8 <siprintf>
	HAL_UART_Transmit(&nrf24_huart, (uint8_t *)uartTxBuf, strlen(uartTxBuf), 10);
 8002da6:	a807      	add	r0, sp, #28
 8002da8:	f7fd ffb8 	bl	8000d1c <strlen>
 8002dac:	230a      	movs	r3, #10
 8002dae:	b282      	uxth	r2, r0
 8002db0:	e020      	b.n	8002df4 <printRadioSettings+0x358>
 8002db2:	bf00      	nop
 8002db4:	0800be98 	.word	0x0800be98
 8002db8:	20000320 	.word	0x20000320
 8002dbc:	0800becc 	.word	0x0800becc
 8002dc0:	0800bf18 	.word	0x0800bf18
 8002dc4:	0800bf5c 	.word	0x0800bf5c
 8002dc8:	0800bfa8 	.word	0x0800bfa8
 8002dcc:	0800bfc4 	.word	0x0800bfc4
 8002dd0:	0800bfd8 	.word	0x0800bfd8
 8002dd4:	0800c058 	.word	0x0800c058
 8002dd8:	0800c088 	.word	0x0800c088
 8002ddc:	0800c0b8 	.word	0x0800c0b8
 8002de0:	0800c0e0 	.word	0x0800c0e0
 8002de4:	0800c108 	.word	0x0800c108
 8002de8:	0800c130 	.word	0x0800c130
 8002dec:	0800c158 	.word	0x0800c158
 8002df0:	0800c184 	.word	0x0800c184
 8002df4:	a907      	add	r1, sp, #28
 8002df6:	4620      	mov	r0, r4
 8002df8:	f003 fb5a 	bl	80064b0 <HAL_UART_Transmit>
	
	reg8Val = NRF24_read_register(0x11+1);
 8002dfc:	2012      	movs	r0, #18
 8002dfe:	f7ff fc19 	bl	8002634 <NRF24_read_register>
	sprintf(uartTxBuf, "RX_PW_P1:\r\n		%d bytes \r\n", reg8Val&0x3F);
 8002e02:	f000 023f 	and.w	r2, r0, #63	; 0x3f
 8002e06:	498a      	ldr	r1, [pc, #552]	; (8003030 <printRadioSettings+0x594>)
 8002e08:	a807      	add	r0, sp, #28
 8002e0a:	f005 f8e5 	bl	8007fd8 <siprintf>
	HAL_UART_Transmit(&nrf24_huart, (uint8_t *)uartTxBuf, strlen(uartTxBuf), 10);
 8002e0e:	a807      	add	r0, sp, #28
 8002e10:	f7fd ff84 	bl	8000d1c <strlen>
 8002e14:	230a      	movs	r3, #10
 8002e16:	b282      	uxth	r2, r0
 8002e18:	a907      	add	r1, sp, #28
 8002e1a:	4620      	mov	r0, r4
 8002e1c:	f003 fb48 	bl	80064b0 <HAL_UART_Transmit>
	
	reg8Val = NRF24_read_register(0x11+2);
 8002e20:	2013      	movs	r0, #19
 8002e22:	f7ff fc07 	bl	8002634 <NRF24_read_register>
	sprintf(uartTxBuf, "RX_PW_P2:\r\n		%d bytes \r\n", reg8Val&0x3F);
 8002e26:	f000 023f 	and.w	r2, r0, #63	; 0x3f
 8002e2a:	4982      	ldr	r1, [pc, #520]	; (8003034 <printRadioSettings+0x598>)
 8002e2c:	a807      	add	r0, sp, #28
 8002e2e:	f005 f8d3 	bl	8007fd8 <siprintf>
	HAL_UART_Transmit(&nrf24_huart, (uint8_t *)uartTxBuf, strlen(uartTxBuf), 10);
 8002e32:	a807      	add	r0, sp, #28
 8002e34:	f7fd ff72 	bl	8000d1c <strlen>
 8002e38:	230a      	movs	r3, #10
 8002e3a:	b282      	uxth	r2, r0
 8002e3c:	a907      	add	r1, sp, #28
 8002e3e:	4620      	mov	r0, r4
 8002e40:	f003 fb36 	bl	80064b0 <HAL_UART_Transmit>
	
	reg8Val = NRF24_read_register(0x11+3);
 8002e44:	2014      	movs	r0, #20
 8002e46:	f7ff fbf5 	bl	8002634 <NRF24_read_register>
	sprintf(uartTxBuf, "RX_PW_P3:\r\n		%d bytes \r\n", reg8Val&0x3F);
 8002e4a:	f000 023f 	and.w	r2, r0, #63	; 0x3f
 8002e4e:	497a      	ldr	r1, [pc, #488]	; (8003038 <printRadioSettings+0x59c>)
 8002e50:	a807      	add	r0, sp, #28
 8002e52:	f005 f8c1 	bl	8007fd8 <siprintf>
	HAL_UART_Transmit(&nrf24_huart, (uint8_t *)uartTxBuf, strlen(uartTxBuf), 10);
 8002e56:	a807      	add	r0, sp, #28
 8002e58:	f7fd ff60 	bl	8000d1c <strlen>
 8002e5c:	230a      	movs	r3, #10
 8002e5e:	b282      	uxth	r2, r0
 8002e60:	a907      	add	r1, sp, #28
 8002e62:	4620      	mov	r0, r4
 8002e64:	f003 fb24 	bl	80064b0 <HAL_UART_Transmit>
	
	reg8Val = NRF24_read_register(0x11+4);
 8002e68:	2015      	movs	r0, #21
 8002e6a:	f7ff fbe3 	bl	8002634 <NRF24_read_register>
	sprintf(uartTxBuf, "RX_PW_P4:\r\n		%d bytes \r\n", reg8Val&0x3F);
 8002e6e:	f000 023f 	and.w	r2, r0, #63	; 0x3f
 8002e72:	4972      	ldr	r1, [pc, #456]	; (800303c <printRadioSettings+0x5a0>)
 8002e74:	a807      	add	r0, sp, #28
 8002e76:	f005 f8af 	bl	8007fd8 <siprintf>
	HAL_UART_Transmit(&nrf24_huart, (uint8_t *)uartTxBuf, strlen(uartTxBuf), 10);
 8002e7a:	a807      	add	r0, sp, #28
 8002e7c:	f7fd ff4e 	bl	8000d1c <strlen>
 8002e80:	230a      	movs	r3, #10
 8002e82:	b282      	uxth	r2, r0
 8002e84:	a907      	add	r1, sp, #28
 8002e86:	4620      	mov	r0, r4
 8002e88:	f003 fb12 	bl	80064b0 <HAL_UART_Transmit>
	
	reg8Val = NRF24_read_register(0x11+5);
 8002e8c:	2016      	movs	r0, #22
 8002e8e:	f7ff fbd1 	bl	8002634 <NRF24_read_register>
	sprintf(uartTxBuf, "RX_PW_P5:\r\n		%d bytes \r\n", reg8Val&0x3F);
 8002e92:	f000 023f 	and.w	r2, r0, #63	; 0x3f
 8002e96:	496a      	ldr	r1, [pc, #424]	; (8003040 <printRadioSettings+0x5a4>)
 8002e98:	a807      	add	r0, sp, #28
 8002e9a:	f005 f89d 	bl	8007fd8 <siprintf>
	HAL_UART_Transmit(&nrf24_huart, (uint8_t *)uartTxBuf, strlen(uartTxBuf), 10);
 8002e9e:	a807      	add	r0, sp, #28
 8002ea0:	f7fd ff3c 	bl	8000d1c <strlen>
 8002ea4:	230a      	movs	r3, #10
 8002ea6:	b282      	uxth	r2, r0
 8002ea8:	a907      	add	r1, sp, #28
 8002eaa:	4620      	mov	r0, r4
 8002eac:	f003 fb00 	bl	80064b0 <HAL_UART_Transmit>
	
	//i) Dynamic payload enable for each pipe
	reg8Val = NRF24_read_register(0x1c);
 8002eb0:	201c      	movs	r0, #28
 8002eb2:	f7ff fbbf 	bl	8002634 <NRF24_read_register>
	sprintf(uartTxBuf, "DYNPD_pipe:\r\n		P0:	%d\r\n		P1:	%d\r\n		P2:	%d\r\n		P3:	%d\r\n		P4:	%d\r\n		P5:	%d\r\n",
 8002eb6:	f3c0 1340 	ubfx	r3, r0, #5, #1
 8002eba:	9303      	str	r3, [sp, #12]
 8002ebc:	f3c0 1300 	ubfx	r3, r0, #4, #1
 8002ec0:	9302      	str	r3, [sp, #8]
 8002ec2:	f3c0 03c0 	ubfx	r3, r0, #3, #1
 8002ec6:	9301      	str	r3, [sp, #4]
 8002ec8:	f3c0 0380 	ubfx	r3, r0, #2, #1
 8002ecc:	9300      	str	r3, [sp, #0]
 8002ece:	f3c0 0340 	ubfx	r3, r0, #1, #1
 8002ed2:	f000 0201 	and.w	r2, r0, #1
 8002ed6:	495b      	ldr	r1, [pc, #364]	; (8003044 <printRadioSettings+0x5a8>)
 8002ed8:	a807      	add	r0, sp, #28
 8002eda:	f005 f87d 	bl	8007fd8 <siprintf>
	_BOOL(reg8Val&(1<<0)), _BOOL(reg8Val&(1<<1)), _BOOL(reg8Val&(1<<2)), _BOOL(reg8Val&(1<<3)), _BOOL(reg8Val&(1<<4)), _BOOL(reg8Val&(1<<5)));
	HAL_UART_Transmit(&nrf24_huart, (uint8_t *)uartTxBuf, strlen(uartTxBuf), 10);
 8002ede:	a807      	add	r0, sp, #28
 8002ee0:	f7fd ff1c 	bl	8000d1c <strlen>
 8002ee4:	230a      	movs	r3, #10
 8002ee6:	b282      	uxth	r2, r0
 8002ee8:	a907      	add	r1, sp, #28
 8002eea:	4620      	mov	r0, r4
 8002eec:	f003 fae0 	bl	80064b0 <HAL_UART_Transmit>
	
	//j) EN_DPL (is Dynamic payload feature enabled ?)
	reg8Val = NRF24_read_register(0x1d);
 8002ef0:	201d      	movs	r0, #29
 8002ef2:	f7ff fb9f 	bl	8002634 <NRF24_read_register>
 8002ef6:	4606      	mov	r6, r0
	if(reg8Val&(1<<2)) sprintf(uartTxBuf, "EN_DPL:\r\n		Enabled \r\n");
 8002ef8:	f010 0f04 	tst.w	r0, #4
 8002efc:	f000 8081 	beq.w	8003002 <printRadioSettings+0x566>
 8002f00:	ac07      	add	r4, sp, #28
 8002f02:	4d51      	ldr	r5, [pc, #324]	; (8003048 <printRadioSettings+0x5ac>)
 8002f04:	cd0f      	ldmia	r5!, {r0, r1, r2, r3}
 8002f06:	c40f      	stmia	r4!, {r0, r1, r2, r3}
 8002f08:	e895 0003 	ldmia.w	r5, {r0, r1}
 8002f0c:	f844 0b04 	str.w	r0, [r4], #4
 8002f10:	8021      	strh	r1, [r4, #0]
	else sprintf(uartTxBuf, "EN_DPL:\r\n		Disabled \r\n");
	HAL_UART_Transmit(&nrf24_huart, (uint8_t *)uartTxBuf, strlen(uartTxBuf), 10);
 8002f12:	a807      	add	r0, sp, #28
 8002f14:	f7fd ff02 	bl	8000d1c <strlen>
 8002f18:	230a      	movs	r3, #10
 8002f1a:	b282      	uxth	r2, r0
 8002f1c:	a907      	add	r1, sp, #28
 8002f1e:	484b      	ldr	r0, [pc, #300]	; (800304c <printRadioSettings+0x5b0>)
 8002f20:	f003 fac6 	bl	80064b0 <HAL_UART_Transmit>
	
	//k) EN_ACK_PAY
	if(reg8Val&(1<<1)) sprintf(uartTxBuf, "EN_ACK_PAY:\r\n		Enabled \r\n");
 8002f24:	f016 0f02 	tst.w	r6, #2
 8002f28:	d178      	bne.n	800301c <printRadioSettings+0x580>
	else sprintf(uartTxBuf, "EN_ACK_PAY:\r\n		Disabled \r\n");
 8002f2a:	ac07      	add	r4, sp, #28
 8002f2c:	4d48      	ldr	r5, [pc, #288]	; (8003050 <printRadioSettings+0x5b4>)
 8002f2e:	cd0f      	ldmia	r5!, {r0, r1, r2, r3}
 8002f30:	c40f      	stmia	r4!, {r0, r1, r2, r3}
 8002f32:	e895 0007 	ldmia.w	r5, {r0, r1, r2}
 8002f36:	c403      	stmia	r4!, {r0, r1}
 8002f38:	f824 2b02 	strh.w	r2, [r4], #2
 8002f3c:	0c12      	lsrs	r2, r2, #16
 8002f3e:	7022      	strb	r2, [r4, #0]
	HAL_UART_Transmit(&nrf24_huart, (uint8_t *)uartTxBuf, strlen(uartTxBuf), 10);
 8002f40:	a807      	add	r0, sp, #28
 8002f42:	f7fd feeb 	bl	8000d1c <strlen>
 8002f46:	4e41      	ldr	r6, [pc, #260]	; (800304c <printRadioSettings+0x5b0>)
 8002f48:	230a      	movs	r3, #10
 8002f4a:	b282      	uxth	r2, r0
 8002f4c:	a907      	add	r1, sp, #28
 8002f4e:	4630      	mov	r0, r6
 8002f50:	f003 faae 	bl	80064b0 <HAL_UART_Transmit>
	
	
	sprintf(uartTxBuf, "\r\n**********************************************\r\n");
 8002f54:	ac07      	add	r4, sp, #28
 8002f56:	4d3f      	ldr	r5, [pc, #252]	; (8003054 <printRadioSettings+0x5b8>)
 8002f58:	cd0f      	ldmia	r5!, {r0, r1, r2, r3}
 8002f5a:	c40f      	stmia	r4!, {r0, r1, r2, r3}
 8002f5c:	cd0f      	ldmia	r5!, {r0, r1, r2, r3}
 8002f5e:	c40f      	stmia	r4!, {r0, r1, r2, r3}
 8002f60:	cd0f      	ldmia	r5!, {r0, r1, r2, r3}
 8002f62:	c40f      	stmia	r4!, {r0, r1, r2, r3}
 8002f64:	682b      	ldr	r3, [r5, #0]
 8002f66:	f824 3b02 	strh.w	r3, [r4], #2
 8002f6a:	0c1b      	lsrs	r3, r3, #16
 8002f6c:	7023      	strb	r3, [r4, #0]
	HAL_UART_Transmit(&nrf24_huart, (uint8_t *)uartTxBuf, strlen(uartTxBuf), 10);
 8002f6e:	a807      	add	r0, sp, #28
 8002f70:	f7fd fed4 	bl	8000d1c <strlen>
 8002f74:	230a      	movs	r3, #10
 8002f76:	b282      	uxth	r2, r0
 8002f78:	a907      	add	r1, sp, #28
 8002f7a:	4630      	mov	r0, r6
 8002f7c:	f003 fa98 	bl	80064b0 <HAL_UART_Transmit>
}
 8002f80:	b020      	add	sp, #128	; 0x80
 8002f82:	bd70      	pop	{r4, r5, r6, pc}
		else sprintf(uartTxBuf, "CRC:\r\n		Enabled, 1 Byte \r\n");	
 8002f84:	ac07      	add	r4, sp, #28
 8002f86:	4d34      	ldr	r5, [pc, #208]	; (8003058 <printRadioSettings+0x5bc>)
 8002f88:	cd0f      	ldmia	r5!, {r0, r1, r2, r3}
 8002f8a:	c40f      	stmia	r4!, {r0, r1, r2, r3}
 8002f8c:	e895 0007 	ldmia.w	r5, {r0, r1, r2}
 8002f90:	c403      	stmia	r4!, {r0, r1}
 8002f92:	f824 2b02 	strh.w	r2, [r4], #2
 8002f96:	0c12      	lsrs	r2, r2, #16
 8002f98:	7022      	strb	r2, [r4, #0]
 8002f9a:	e5aa      	b.n	8002af2 <printRadioSettings+0x56>
		sprintf(uartTxBuf, "CRC:\r\n		Disabled \r\n");
 8002f9c:	ac07      	add	r4, sp, #28
 8002f9e:	4d2f      	ldr	r5, [pc, #188]	; (800305c <printRadioSettings+0x5c0>)
 8002fa0:	cd0f      	ldmia	r5!, {r0, r1, r2, r3}
 8002fa2:	c40f      	stmia	r4!, {r0, r1, r2, r3}
 8002fa4:	682b      	ldr	r3, [r5, #0]
 8002fa6:	6023      	str	r3, [r4, #0]
 8002fa8:	e5a3      	b.n	8002af2 <printRadioSettings+0x56>
	else sprintf(uartTxBuf, "Data Rate:\r\n		1Mbps \r\n");
 8002faa:	ad07      	add	r5, sp, #28
 8002fac:	4e2c      	ldr	r6, [pc, #176]	; (8003060 <printRadioSettings+0x5c4>)
 8002fae:	ce0f      	ldmia	r6!, {r0, r1, r2, r3}
 8002fb0:	c50f      	stmia	r5!, {r0, r1, r2, r3}
 8002fb2:	e896 0003 	ldmia.w	r6, {r0, r1}
 8002fb6:	f845 0b04 	str.w	r0, [r5], #4
 8002fba:	f825 1b02 	strh.w	r1, [r5], #2
 8002fbe:	0c09      	lsrs	r1, r1, #16
 8002fc0:	7029      	strb	r1, [r5, #0]
 8002fc2:	e619      	b.n	8002bf8 <printRadioSettings+0x15c>
	if(reg8Val == 0) sprintf(uartTxBuf, "RF_PWR:\r\n		-18dB \r\n");
 8002fc4:	ac07      	add	r4, sp, #28
 8002fc6:	4d27      	ldr	r5, [pc, #156]	; (8003064 <printRadioSettings+0x5c8>)
 8002fc8:	cd0f      	ldmia	r5!, {r0, r1, r2, r3}
 8002fca:	c40f      	stmia	r4!, {r0, r1, r2, r3}
 8002fcc:	682b      	ldr	r3, [r5, #0]
 8002fce:	6023      	str	r3, [r4, #0]
 8002fd0:	e629      	b.n	8002c26 <printRadioSettings+0x18a>
	else if(reg8Val == 1) sprintf(uartTxBuf, "RF_PWR:\r\n		-12dB \r\n");
 8002fd2:	ac07      	add	r4, sp, #28
 8002fd4:	4d24      	ldr	r5, [pc, #144]	; (8003068 <printRadioSettings+0x5cc>)
 8002fd6:	cd0f      	ldmia	r5!, {r0, r1, r2, r3}
 8002fd8:	c40f      	stmia	r4!, {r0, r1, r2, r3}
 8002fda:	682b      	ldr	r3, [r5, #0]
 8002fdc:	6023      	str	r3, [r4, #0]
 8002fde:	e622      	b.n	8002c26 <printRadioSettings+0x18a>
	else if(reg8Val == 2) sprintf(uartTxBuf, "RF_PWR:\r\n		-6dB \r\n");
 8002fe0:	ac07      	add	r4, sp, #28
 8002fe2:	4d22      	ldr	r5, [pc, #136]	; (800306c <printRadioSettings+0x5d0>)
 8002fe4:	cd0f      	ldmia	r5!, {r0, r1, r2, r3}
 8002fe6:	c40f      	stmia	r4!, {r0, r1, r2, r3}
 8002fe8:	682b      	ldr	r3, [r5, #0]
 8002fea:	f824 3b02 	strh.w	r3, [r4], #2
 8002fee:	0c1b      	lsrs	r3, r3, #16
 8002ff0:	7023      	strb	r3, [r4, #0]
 8002ff2:	e618      	b.n	8002c26 <printRadioSettings+0x18a>
	else if(reg8Val == 3) sprintf(uartTxBuf, "RF_PWR:\r\n		0dB \r\n");
 8002ff4:	ac07      	add	r4, sp, #28
 8002ff6:	4d1e      	ldr	r5, [pc, #120]	; (8003070 <printRadioSettings+0x5d4>)
 8002ff8:	cd0f      	ldmia	r5!, {r0, r1, r2, r3}
 8002ffa:	c40f      	stmia	r4!, {r0, r1, r2, r3}
 8002ffc:	682b      	ldr	r3, [r5, #0]
 8002ffe:	8023      	strh	r3, [r4, #0]
 8003000:	e611      	b.n	8002c26 <printRadioSettings+0x18a>
	else sprintf(uartTxBuf, "EN_DPL:\r\n		Disabled \r\n");
 8003002:	ac07      	add	r4, sp, #28
 8003004:	4d1b      	ldr	r5, [pc, #108]	; (8003074 <printRadioSettings+0x5d8>)
 8003006:	cd0f      	ldmia	r5!, {r0, r1, r2, r3}
 8003008:	c40f      	stmia	r4!, {r0, r1, r2, r3}
 800300a:	e895 0003 	ldmia.w	r5, {r0, r1}
 800300e:	f844 0b04 	str.w	r0, [r4], #4
 8003012:	f824 1b02 	strh.w	r1, [r4], #2
 8003016:	0c09      	lsrs	r1, r1, #16
 8003018:	7021      	strb	r1, [r4, #0]
 800301a:	e77a      	b.n	8002f12 <printRadioSettings+0x476>
	if(reg8Val&(1<<1)) sprintf(uartTxBuf, "EN_ACK_PAY:\r\n		Enabled \r\n");
 800301c:	ac07      	add	r4, sp, #28
 800301e:	4d16      	ldr	r5, [pc, #88]	; (8003078 <printRadioSettings+0x5dc>)
 8003020:	cd0f      	ldmia	r5!, {r0, r1, r2, r3}
 8003022:	c40f      	stmia	r4!, {r0, r1, r2, r3}
 8003024:	e895 0007 	ldmia.w	r5, {r0, r1, r2}
 8003028:	c403      	stmia	r4!, {r0, r1}
 800302a:	8022      	strh	r2, [r4, #0]
 800302c:	e788      	b.n	8002f40 <printRadioSettings+0x4a4>
 800302e:	bf00      	nop
 8003030:	0800c1a0 	.word	0x0800c1a0
 8003034:	0800c1bc 	.word	0x0800c1bc
 8003038:	0800c1d8 	.word	0x0800c1d8
 800303c:	0800c1f4 	.word	0x0800c1f4
 8003040:	0800c210 	.word	0x0800c210
 8003044:	0800c22c 	.word	0x0800c22c
 8003048:	0800c278 	.word	0x0800c278
 800304c:	20000320 	.word	0x20000320
 8003050:	0800c2c4 	.word	0x0800c2c4
 8003054:	0800be98 	.word	0x0800be98
 8003058:	0800bee8 	.word	0x0800bee8
 800305c:	0800bf04 	.word	0x0800bf04
 8003060:	0800bff0 	.word	0x0800bff0
 8003064:	0800c008 	.word	0x0800c008
 8003068:	0800c01c 	.word	0x0800c01c
 800306c:	0800c030 	.word	0x0800c030
 8003070:	0800c044 	.word	0x0800c044
 8003074:	0800c290 	.word	0x0800c290
 8003078:	0800c2a8 	.word	0x0800c2a8

0800307c <NRF24_begin>:
{
 800307c:	b082      	sub	sp, #8
 800307e:	b570      	push	{r4, r5, r6, lr}
 8003080:	b082      	sub	sp, #8
 8003082:	4606      	mov	r6, r0
 8003084:	460d      	mov	r5, r1
 8003086:	4614      	mov	r4, r2
 8003088:	a906      	add	r1, sp, #24
 800308a:	f841 3f04 	str.w	r3, [r1, #4]!
	memcpy(&nrf24_hspi, &nrfSPI, sizeof(nrfSPI));
 800308e:	2258      	movs	r2, #88	; 0x58
 8003090:	485f      	ldr	r0, [pc, #380]	; (8003210 <NRF24_begin+0x194>)
 8003092:	f004 fab5 	bl	8007600 <memcpy>
	nrf24_PORT = nrf24PORT;
 8003096:	4b5f      	ldr	r3, [pc, #380]	; (8003214 <NRF24_begin+0x198>)
 8003098:	601e      	str	r6, [r3, #0]
	nrf24_CSN_PIN = nrfCSN_Pin;
 800309a:	4b5f      	ldr	r3, [pc, #380]	; (8003218 <NRF24_begin+0x19c>)
 800309c:	801d      	strh	r5, [r3, #0]
	nrf24_CE_PIN = nrfCE_Pin;
 800309e:	4b5f      	ldr	r3, [pc, #380]	; (800321c <NRF24_begin+0x1a0>)
 80030a0:	801c      	strh	r4, [r3, #0]
	NRF24_csn(1);
 80030a2:	2001      	movs	r0, #1
 80030a4:	f7ff fa9a 	bl	80025dc <NRF24_csn>
	NRF24_ce(0);
 80030a8:	2000      	movs	r0, #0
 80030aa:	f7ff faad 	bl	8002608 <NRF24_ce>
	HAL_Delay(5);
 80030ae:	2005      	movs	r0, #5
 80030b0:	f000 faf8 	bl	80036a4 <HAL_Delay>
	NRF24_write_register(0x00, 0x08);
 80030b4:	2108      	movs	r1, #8
 80030b6:	2000      	movs	r0, #0
 80030b8:	f7ff fafe 	bl	80026b8 <NRF24_write_register>
	NRF24_write_register(0x01, 0x3f);
 80030bc:	213f      	movs	r1, #63	; 0x3f
 80030be:	2001      	movs	r0, #1
 80030c0:	f7ff fafa 	bl	80026b8 <NRF24_write_register>
	NRF24_write_register(0x02, 0x03);
 80030c4:	2103      	movs	r1, #3
 80030c6:	2002      	movs	r0, #2
 80030c8:	f7ff faf6 	bl	80026b8 <NRF24_write_register>
	NRF24_write_register(0x03, 0x03);
 80030cc:	2103      	movs	r1, #3
 80030ce:	4608      	mov	r0, r1
 80030d0:	f7ff faf2 	bl	80026b8 <NRF24_write_register>
	NRF24_write_register(0x04, 0x03);
 80030d4:	2103      	movs	r1, #3
 80030d6:	2004      	movs	r0, #4
 80030d8:	f7ff faee 	bl	80026b8 <NRF24_write_register>
	NRF24_write_register(0x05, 0x02);
 80030dc:	2102      	movs	r1, #2
 80030de:	2005      	movs	r0, #5
 80030e0:	f7ff faea 	bl	80026b8 <NRF24_write_register>
	NRF24_write_register(0x06, 0x0f);
 80030e4:	210f      	movs	r1, #15
 80030e6:	2006      	movs	r0, #6
 80030e8:	f7ff fae6 	bl	80026b8 <NRF24_write_register>
	NRF24_write_register(0x07, 0x0e);
 80030ec:	210e      	movs	r1, #14
 80030ee:	2007      	movs	r0, #7
 80030f0:	f7ff fae2 	bl	80026b8 <NRF24_write_register>
	NRF24_write_register(0x08, 0x00);
 80030f4:	2100      	movs	r1, #0
 80030f6:	2008      	movs	r0, #8
 80030f8:	f7ff fade 	bl	80026b8 <NRF24_write_register>
	NRF24_write_register(0x09, 0x00);
 80030fc:	2100      	movs	r1, #0
 80030fe:	2009      	movs	r0, #9
 8003100:	f7ff fada 	bl	80026b8 <NRF24_write_register>
	pipeAddrVar[4]=0xE7; pipeAddrVar[3]=0xE7; pipeAddrVar[2]=0xE7; pipeAddrVar[1]=0xE7; pipeAddrVar[0]=0xE7; 
 8003104:	24e7      	movs	r4, #231	; 0xe7
 8003106:	f88d 4004 	strb.w	r4, [sp, #4]
 800310a:	f88d 4003 	strb.w	r4, [sp, #3]
 800310e:	f88d 4002 	strb.w	r4, [sp, #2]
 8003112:	f88d 4001 	strb.w	r4, [sp, #1]
 8003116:	ad02      	add	r5, sp, #8
 8003118:	f805 4d08 	strb.w	r4, [r5, #-8]!
	NRF24_write_registerN(0x0A, pipeAddrVar, 5);
 800311c:	2205      	movs	r2, #5
 800311e:	4629      	mov	r1, r5
 8003120:	200a      	movs	r0, #10
 8003122:	f7ff fae3 	bl	80026ec <NRF24_write_registerN>
	pipeAddrVar[4]=0xC2; pipeAddrVar[3]=0xC2; pipeAddrVar[2]=0xC2; pipeAddrVar[1]=0xC2; pipeAddrVar[0]=0xC2; 
 8003126:	23c2      	movs	r3, #194	; 0xc2
 8003128:	f88d 3004 	strb.w	r3, [sp, #4]
 800312c:	f88d 3003 	strb.w	r3, [sp, #3]
 8003130:	f88d 3002 	strb.w	r3, [sp, #2]
 8003134:	f88d 3001 	strb.w	r3, [sp, #1]
 8003138:	f88d 3000 	strb.w	r3, [sp]
	NRF24_write_registerN(0x0B, pipeAddrVar, 5);
 800313c:	2205      	movs	r2, #5
 800313e:	4629      	mov	r1, r5
 8003140:	200b      	movs	r0, #11
 8003142:	f7ff fad3 	bl	80026ec <NRF24_write_registerN>
	NRF24_write_register(0x0C, 0xC3);
 8003146:	21c3      	movs	r1, #195	; 0xc3
 8003148:	200c      	movs	r0, #12
 800314a:	f7ff fab5 	bl	80026b8 <NRF24_write_register>
	NRF24_write_register(0x0D, 0xC4);
 800314e:	21c4      	movs	r1, #196	; 0xc4
 8003150:	200d      	movs	r0, #13
 8003152:	f7ff fab1 	bl	80026b8 <NRF24_write_register>
	NRF24_write_register(0x0E, 0xC5);
 8003156:	21c5      	movs	r1, #197	; 0xc5
 8003158:	200e      	movs	r0, #14
 800315a:	f7ff faad 	bl	80026b8 <NRF24_write_register>
	NRF24_write_register(0x0F, 0xC6);
 800315e:	21c6      	movs	r1, #198	; 0xc6
 8003160:	200f      	movs	r0, #15
 8003162:	f7ff faa9 	bl	80026b8 <NRF24_write_register>
	pipeAddrVar[4]=0xE7; pipeAddrVar[3]=0xE7; pipeAddrVar[2]=0xE7; pipeAddrVar[1]=0xE7; pipeAddrVar[0]=0xE7; 
 8003166:	f88d 4004 	strb.w	r4, [sp, #4]
 800316a:	f88d 4003 	strb.w	r4, [sp, #3]
 800316e:	f88d 4002 	strb.w	r4, [sp, #2]
 8003172:	f88d 4001 	strb.w	r4, [sp, #1]
 8003176:	f88d 4000 	strb.w	r4, [sp]
	NRF24_write_registerN(0x10, pipeAddrVar, 5);
 800317a:	2205      	movs	r2, #5
 800317c:	4629      	mov	r1, r5
 800317e:	2010      	movs	r0, #16
 8003180:	f7ff fab4 	bl	80026ec <NRF24_write_registerN>
	NRF24_write_register(0x11, 0);
 8003184:	2100      	movs	r1, #0
 8003186:	2011      	movs	r0, #17
 8003188:	f7ff fa96 	bl	80026b8 <NRF24_write_register>
	NRF24_write_register(0x12, 0);
 800318c:	2100      	movs	r1, #0
 800318e:	2012      	movs	r0, #18
 8003190:	f7ff fa92 	bl	80026b8 <NRF24_write_register>
	NRF24_write_register(0x13, 0);
 8003194:	2100      	movs	r1, #0
 8003196:	2013      	movs	r0, #19
 8003198:	f7ff fa8e 	bl	80026b8 <NRF24_write_register>
	NRF24_write_register(0x14, 0);
 800319c:	2100      	movs	r1, #0
 800319e:	2014      	movs	r0, #20
 80031a0:	f7ff fa8a 	bl	80026b8 <NRF24_write_register>
	NRF24_write_register(0x15, 0);
 80031a4:	2100      	movs	r1, #0
 80031a6:	2015      	movs	r0, #21
 80031a8:	f7ff fa86 	bl	80026b8 <NRF24_write_register>
	NRF24_write_register(0x16, 0);
 80031ac:	2100      	movs	r1, #0
 80031ae:	2016      	movs	r0, #22
 80031b0:	f7ff fa82 	bl	80026b8 <NRF24_write_register>
	NRF24_ACTIVATE_cmd();
 80031b4:	f7ff fc34 	bl	8002a20 <NRF24_ACTIVATE_cmd>
	NRF24_write_register(0x1c, 0);
 80031b8:	2100      	movs	r1, #0
 80031ba:	201c      	movs	r0, #28
 80031bc:	f7ff fa7c 	bl	80026b8 <NRF24_write_register>
	NRF24_write_register(0x1d, 0);
 80031c0:	2100      	movs	r1, #0
 80031c2:	201d      	movs	r0, #29
 80031c4:	f7ff fa78 	bl	80026b8 <NRF24_write_register>
	printRadioSettings();
 80031c8:	f7ff fc68 	bl	8002a9c <printRadioSettings>
	NRF24_setRetries(15, 15);
 80031cc:	210f      	movs	r1, #15
 80031ce:	4608      	mov	r0, r1
 80031d0:	f7ff fb18 	bl	8002804 <NRF24_setRetries>
	NRF24_setPALevel(RF24_PA_0dB);
 80031d4:	2003      	movs	r0, #3
 80031d6:	f7ff fb8a 	bl	80028ee <NRF24_setPALevel>
	NRF24_setDataRate(RF24_2MBPS);
 80031da:	2001      	movs	r0, #1
 80031dc:	f7ff fba6 	bl	800292c <NRF24_setDataRate>
	NRF24_setCRCLength(RF24_CRC_16);
 80031e0:	2002      	movs	r0, #2
 80031e2:	f7ff fbc1 	bl	8002968 <NRF24_setCRCLength>
	NRF24_disableDynamicPayloads();
 80031e6:	f7ff fb68 	bl	80028ba <NRF24_disableDynamicPayloads>
	NRF24_setPayloadSize(32);
 80031ea:	2020      	movs	r0, #32
 80031ec:	f7ff fb1e 	bl	800282c <NRF24_setPayloadSize>
	NRF24_resetStatus();
 80031f0:	f7ff fc10 	bl	8002a14 <NRF24_resetStatus>
	NRF24_setChannel(76);
 80031f4:	204c      	movs	r0, #76	; 0x4c
 80031f6:	f7ff fb0f 	bl	8002818 <NRF24_setChannel>
	NRF24_flush_tx();
 80031fa:	f7ff fa97 	bl	800272c <NRF24_flush_tx>
	NRF24_flush_rx();
 80031fe:	f7ff fa9b 	bl	8002738 <NRF24_flush_rx>
	NRF24_powerDown();
 8003202:	f7ff fbc4 	bl	800298e <NRF24_powerDown>
}
 8003206:	b002      	add	sp, #8
 8003208:	e8bd 4070 	ldmia.w	sp!, {r4, r5, r6, lr}
 800320c:	b002      	add	sp, #8
 800320e:	4770      	bx	lr
 8003210:	200002c8 	.word	0x200002c8
 8003214:	200002c4 	.word	0x200002c4
 8003218:	200002c2 	.word	0x200002c2
 800321c:	200002c0 	.word	0x200002c0

08003220 <nrf24_DebugUART_Init>:
	HAL_UART_Transmit(&nrf24_huart, (uint8_t *)uartTxBuf, strlen(uartTxBuf), 10);
}

//4. Init Variables
void nrf24_DebugUART_Init(UART_HandleTypeDef nrf24Uart)
{
 8003220:	b084      	sub	sp, #16
 8003222:	b430      	push	{r4, r5}
 8003224:	ac02      	add	r4, sp, #8
 8003226:	e884 000f 	stmia.w	r4, {r0, r1, r2, r3}
	memcpy(&nrf24_huart, &nrf24Uart, sizeof(nrf24Uart));
 800322a:	4c07      	ldr	r4, [pc, #28]	; (8003248 <nrf24_DebugUART_Init+0x28>)
 800322c:	ad02      	add	r5, sp, #8
 800322e:	cd0f      	ldmia	r5!, {r0, r1, r2, r3}
 8003230:	c40f      	stmia	r4!, {r0, r1, r2, r3}
 8003232:	cd0f      	ldmia	r5!, {r0, r1, r2, r3}
 8003234:	c40f      	stmia	r4!, {r0, r1, r2, r3}
 8003236:	cd0f      	ldmia	r5!, {r0, r1, r2, r3}
 8003238:	c40f      	stmia	r4!, {r0, r1, r2, r3}
 800323a:	e895 000f 	ldmia.w	r5, {r0, r1, r2, r3}
 800323e:	e884 000f 	stmia.w	r4, {r0, r1, r2, r3}
}
 8003242:	bc30      	pop	{r4, r5}
 8003244:	b004      	add	sp, #16
 8003246:	4770      	bx	lr
 8003248:	20000320 	.word	0x20000320
 800324c:	00000000 	.word	0x00000000

08003250 <pid_calculate_roll>:
float roll_elapsed_time = 0;

int roll_pid_clip = 1250;

/** roll PID Calculation **/
float pid_calculate_roll(float IMU_roll_value, int timer_value, float roll_setpoint) {
 8003250:	b5d0      	push	{r4, r6, r7, lr}
 8003252:	ed2d 8b04 	vpush	{d8-d9}

	//Calculate error
	roll_error = IMU_roll_value - roll_setpoint;
 8003256:	ee70 8a60 	vsub.f32	s17, s0, s1
 800325a:	4b3b      	ldr	r3, [pc, #236]	; (8003348 <pid_calculate_roll+0xf8>)
 800325c:	edc3 8a00 	vstr	s17, [r3]

	//Proportional component
	roll_p = roll_p_gain * roll_error;
 8003260:	4b3a      	ldr	r3, [pc, #232]	; (800334c <pid_calculate_roll+0xfc>)
 8003262:	ed93 8a00 	vldr	s16, [r3]
 8003266:	ee28 8a88 	vmul.f32	s16, s17, s16
 800326a:	4b39      	ldr	r3, [pc, #228]	; (8003350 <pid_calculate_roll+0x100>)
 800326c:	ed83 8a00 	vstr	s16, [r3]

	//Integral
	roll_i += (roll_i_gain * roll_error * delta_t);
 8003270:	4b38      	ldr	r3, [pc, #224]	; (8003354 <pid_calculate_roll+0x104>)
 8003272:	edd3 7a00 	vldr	s15, [r3]
 8003276:	ee68 7aa7 	vmul.f32	s15, s17, s15
 800327a:	ee17 0a90 	vmov	r0, s15
 800327e:	f7fd f913 	bl	80004a8 <__aeabi_f2d>
 8003282:	a32f      	add	r3, pc, #188	; (adr r3, 8003340 <pid_calculate_roll+0xf0>)
 8003284:	e9d3 2300 	ldrd	r2, r3, [r3]
 8003288:	f7fd f966 	bl	8000558 <__aeabi_dmul>
 800328c:	4606      	mov	r6, r0
 800328e:	460f      	mov	r7, r1
 8003290:	4c31      	ldr	r4, [pc, #196]	; (8003358 <pid_calculate_roll+0x108>)
 8003292:	6820      	ldr	r0, [r4, #0]
 8003294:	f7fd f908 	bl	80004a8 <__aeabi_f2d>
 8003298:	4632      	mov	r2, r6
 800329a:	463b      	mov	r3, r7
 800329c:	f7fc ffa6 	bl	80001ec <__adddf3>
 80032a0:	f7fd fb6c 	bl	800097c <__aeabi_d2f>
 80032a4:	ee09 0a10 	vmov	s18, r0
 80032a8:	6020      	str	r0, [r4, #0]

	//Derivative component
	roll_d = roll_d_gain * ( (roll_error - roll_last_d_error) / delta_t);
 80032aa:	4c2c      	ldr	r4, [pc, #176]	; (800335c <pid_calculate_roll+0x10c>)
 80032ac:	edd4 7a00 	vldr	s15, [r4]
 80032b0:	ee78 7ae7 	vsub.f32	s15, s17, s15
 80032b4:	ee17 0a90 	vmov	r0, s15
 80032b8:	f7fd f8f6 	bl	80004a8 <__aeabi_f2d>
 80032bc:	a320      	add	r3, pc, #128	; (adr r3, 8003340 <pid_calculate_roll+0xf0>)
 80032be:	e9d3 2300 	ldrd	r2, r3, [r3]
 80032c2:	f7fd fa73 	bl	80007ac <__aeabi_ddiv>
 80032c6:	4606      	mov	r6, r0
 80032c8:	460f      	mov	r7, r1
 80032ca:	4b25      	ldr	r3, [pc, #148]	; (8003360 <pid_calculate_roll+0x110>)
 80032cc:	6818      	ldr	r0, [r3, #0]
 80032ce:	f7fd f8eb 	bl	80004a8 <__aeabi_f2d>
 80032d2:	4632      	mov	r2, r6
 80032d4:	463b      	mov	r3, r7
 80032d6:	f7fd f93f 	bl	8000558 <__aeabi_dmul>
 80032da:	f7fd fb4f 	bl	800097c <__aeabi_d2f>
 80032de:	ee07 0a90 	vmov	s15, r0
 80032e2:	4b20      	ldr	r3, [pc, #128]	; (8003364 <pid_calculate_roll+0x114>)
 80032e4:	6018      	str	r0, [r3, #0]
	roll_last_d_error = roll_error;
 80032e6:	edc4 8a00 	vstr	s17, [r4]

	//PID together
	roll_output = roll_p + roll_i + roll_d;
 80032ea:	ee38 8a09 	vadd.f32	s16, s16, s18
 80032ee:	ee37 8a88 	vadd.f32	s16, s15, s16
 80032f2:	4b1d      	ldr	r3, [pc, #116]	; (8003368 <pid_calculate_roll+0x118>)
 80032f4:	ed83 8a00 	vstr	s16, [r3]

	//Clip PID output in event of extreme swings
	if (roll_output < -roll_pid_clip) {
 80032f8:	4b1c      	ldr	r3, [pc, #112]	; (800336c <pid_calculate_roll+0x11c>)
 80032fa:	681b      	ldr	r3, [r3, #0]
 80032fc:	425a      	negs	r2, r3
 80032fe:	ee07 2a90 	vmov	s15, r2
 8003302:	eef8 7ae7 	vcvt.f32.s32	s15, s15
 8003306:	eeb4 8ae7 	vcmpe.f32	s16, s15
 800330a:	eef1 fa10 	vmrs	APSR_nzcv, fpscr
 800330e:	d40c      	bmi.n	800332a <pid_calculate_roll+0xda>
		roll_output = -roll_pid_clip;
	} else if (roll_output > roll_pid_clip) {
 8003310:	ee07 3a90 	vmov	s15, r3
 8003314:	eef8 7ae7 	vcvt.f32.s32	s15, s15
 8003318:	eeb4 8ae7 	vcmpe.f32	s16, s15
 800331c:	eef1 fa10 	vmrs	APSR_nzcv, fpscr
 8003320:	dd06      	ble.n	8003330 <pid_calculate_roll+0xe0>
		roll_output = roll_pid_clip;
 8003322:	4b11      	ldr	r3, [pc, #68]	; (8003368 <pid_calculate_roll+0x118>)
 8003324:	edc3 7a00 	vstr	s15, [r3]
 8003328:	e002      	b.n	8003330 <pid_calculate_roll+0xe0>
		roll_output = -roll_pid_clip;
 800332a:	4b0f      	ldr	r3, [pc, #60]	; (8003368 <pid_calculate_roll+0x118>)
 800332c:	edc3 7a00 	vstr	s15, [r3]
	}

	return roll_output;
}
 8003330:	4b0d      	ldr	r3, [pc, #52]	; (8003368 <pid_calculate_roll+0x118>)
 8003332:	ed93 0a00 	vldr	s0, [r3]
 8003336:	ecbd 8b04 	vpop	{d8-d9}
 800333a:	bdd0      	pop	{r4, r6, r7, pc}
 800333c:	f3af 8000 	nop.w
 8003340:	d2f1a9fc 	.word	0xd2f1a9fc
 8003344:	3f60624d 	.word	0x3f60624d
 8003348:	2000037c 	.word	0x2000037c
 800334c:	20000044 	.word	0x20000044
 8003350:	200004b0 	.word	0x200004b0
 8003354:	20000040 	.word	0x20000040
 8003358:	200004bc 	.word	0x200004bc
 800335c:	20000380 	.word	0x20000380
 8003360:	2000003c 	.word	0x2000003c
 8003364:	2000049c 	.word	0x2000049c
 8003368:	20000384 	.word	0x20000384
 800336c:	20000048 	.word	0x20000048

08003370 <pid_calculate_pitch>:
float pitch_elapsed_time = 0;

int pitch_pid_clip = 1250;

/** Pitch PID Calculation **/
float pid_calculate_pitch(float IMU_pitch_value, int timer_value, float pitch_setpoint) {
 8003370:	b5d0      	push	{r4, r6, r7, lr}
 8003372:	ed2d 8b04 	vpush	{d8-d9}

	//Calculate error
	pitch_error = IMU_pitch_value - pitch_setpoint;
 8003376:	ee70 8a60 	vsub.f32	s17, s0, s1
 800337a:	4b3b      	ldr	r3, [pc, #236]	; (8003468 <pid_calculate_pitch+0xf8>)
 800337c:	edc3 8a00 	vstr	s17, [r3]

	//Proportional component
	pitch_p = pitch_p_gain * pitch_error;
 8003380:	4b3a      	ldr	r3, [pc, #232]	; (800346c <pid_calculate_pitch+0xfc>)
 8003382:	ed93 8a00 	vldr	s16, [r3]
 8003386:	ee28 8a88 	vmul.f32	s16, s17, s16
 800338a:	4b39      	ldr	r3, [pc, #228]	; (8003470 <pid_calculate_pitch+0x100>)
 800338c:	ed83 8a00 	vstr	s16, [r3]

	//Integral
	pitch_i += (pitch_i_gain * pitch_error * delta_t);
 8003390:	4b38      	ldr	r3, [pc, #224]	; (8003474 <pid_calculate_pitch+0x104>)
 8003392:	edd3 7a00 	vldr	s15, [r3]
 8003396:	ee68 7aa7 	vmul.f32	s15, s17, s15
 800339a:	ee17 0a90 	vmov	r0, s15
 800339e:	f7fd f883 	bl	80004a8 <__aeabi_f2d>
 80033a2:	a32f      	add	r3, pc, #188	; (adr r3, 8003460 <pid_calculate_pitch+0xf0>)
 80033a4:	e9d3 2300 	ldrd	r2, r3, [r3]
 80033a8:	f7fd f8d6 	bl	8000558 <__aeabi_dmul>
 80033ac:	4606      	mov	r6, r0
 80033ae:	460f      	mov	r7, r1
 80033b0:	4c31      	ldr	r4, [pc, #196]	; (8003478 <pid_calculate_pitch+0x108>)
 80033b2:	6820      	ldr	r0, [r4, #0]
 80033b4:	f7fd f878 	bl	80004a8 <__aeabi_f2d>
 80033b8:	4632      	mov	r2, r6
 80033ba:	463b      	mov	r3, r7
 80033bc:	f7fc ff16 	bl	80001ec <__adddf3>
 80033c0:	f7fd fadc 	bl	800097c <__aeabi_d2f>
 80033c4:	ee09 0a10 	vmov	s18, r0
 80033c8:	6020      	str	r0, [r4, #0]

	//Derivative component
	pitch_d = pitch_d_gain * ( (pitch_error - pitch_last_d_error) / delta_t);
 80033ca:	4c2c      	ldr	r4, [pc, #176]	; (800347c <pid_calculate_pitch+0x10c>)
 80033cc:	edd4 7a00 	vldr	s15, [r4]
 80033d0:	ee78 7ae7 	vsub.f32	s15, s17, s15
 80033d4:	ee17 0a90 	vmov	r0, s15
 80033d8:	f7fd f866 	bl	80004a8 <__aeabi_f2d>
 80033dc:	a320      	add	r3, pc, #128	; (adr r3, 8003460 <pid_calculate_pitch+0xf0>)
 80033de:	e9d3 2300 	ldrd	r2, r3, [r3]
 80033e2:	f7fd f9e3 	bl	80007ac <__aeabi_ddiv>
 80033e6:	4606      	mov	r6, r0
 80033e8:	460f      	mov	r7, r1
 80033ea:	4b25      	ldr	r3, [pc, #148]	; (8003480 <pid_calculate_pitch+0x110>)
 80033ec:	6818      	ldr	r0, [r3, #0]
 80033ee:	f7fd f85b 	bl	80004a8 <__aeabi_f2d>
 80033f2:	4632      	mov	r2, r6
 80033f4:	463b      	mov	r3, r7
 80033f6:	f7fd f8af 	bl	8000558 <__aeabi_dmul>
 80033fa:	f7fd fabf 	bl	800097c <__aeabi_d2f>
 80033fe:	ee07 0a90 	vmov	s15, r0
 8003402:	4b20      	ldr	r3, [pc, #128]	; (8003484 <pid_calculate_pitch+0x114>)
 8003404:	6018      	str	r0, [r3, #0]
	pitch_last_d_error = pitch_error;
 8003406:	edc4 8a00 	vstr	s17, [r4]

	//PID together
	pitch_output = pitch_p + pitch_i + pitch_d;
 800340a:	ee38 8a09 	vadd.f32	s16, s16, s18
 800340e:	ee37 8a88 	vadd.f32	s16, s15, s16
 8003412:	4b1d      	ldr	r3, [pc, #116]	; (8003488 <pid_calculate_pitch+0x118>)
 8003414:	ed83 8a00 	vstr	s16, [r3]

	//Clip PID output in event of extreme swings
	if (pitch_output < -pitch_pid_clip) {
 8003418:	4b1c      	ldr	r3, [pc, #112]	; (800348c <pid_calculate_pitch+0x11c>)
 800341a:	681b      	ldr	r3, [r3, #0]
 800341c:	425a      	negs	r2, r3
 800341e:	ee07 2a90 	vmov	s15, r2
 8003422:	eef8 7ae7 	vcvt.f32.s32	s15, s15
 8003426:	eeb4 8ae7 	vcmpe.f32	s16, s15
 800342a:	eef1 fa10 	vmrs	APSR_nzcv, fpscr
 800342e:	d40c      	bmi.n	800344a <pid_calculate_pitch+0xda>
		pitch_output = -pitch_pid_clip;
	} else if (pitch_output > pitch_pid_clip) {
 8003430:	ee07 3a90 	vmov	s15, r3
 8003434:	eef8 7ae7 	vcvt.f32.s32	s15, s15
 8003438:	eeb4 8ae7 	vcmpe.f32	s16, s15
 800343c:	eef1 fa10 	vmrs	APSR_nzcv, fpscr
 8003440:	dd06      	ble.n	8003450 <pid_calculate_pitch+0xe0>
		pitch_output = pitch_pid_clip;
 8003442:	4b11      	ldr	r3, [pc, #68]	; (8003488 <pid_calculate_pitch+0x118>)
 8003444:	edc3 7a00 	vstr	s15, [r3]
 8003448:	e002      	b.n	8003450 <pid_calculate_pitch+0xe0>
		pitch_output = -pitch_pid_clip;
 800344a:	4b0f      	ldr	r3, [pc, #60]	; (8003488 <pid_calculate_pitch+0x118>)
 800344c:	edc3 7a00 	vstr	s15, [r3]
	}

	return pitch_output;
}
 8003450:	4b0d      	ldr	r3, [pc, #52]	; (8003488 <pid_calculate_pitch+0x118>)
 8003452:	ed93 0a00 	vldr	s0, [r3]
 8003456:	ecbd 8b04 	vpop	{d8-d9}
 800345a:	bdd0      	pop	{r4, r6, r7, pc}
 800345c:	f3af 8000 	nop.w
 8003460:	d2f1a9fc 	.word	0xd2f1a9fc
 8003464:	3f60624d 	.word	0x3f60624d
 8003468:	20000370 	.word	0x20000370
 800346c:	20000034 	.word	0x20000034
 8003470:	200004a8 	.word	0x200004a8
 8003474:	20000030 	.word	0x20000030
 8003478:	200004ac 	.word	0x200004ac
 800347c:	20000374 	.word	0x20000374
 8003480:	2000002c 	.word	0x2000002c
 8003484:	200004a0 	.word	0x200004a0
 8003488:	20000378 	.word	0x20000378
 800348c:	20000038 	.word	0x20000038

08003490 <pid_calculate_yaw>:
float yaw_elapsed_time = 0;

int yaw_pid_clip = 1250;

/** yaw PID Calculation **/
float pid_calculate_yaw(float IMU_yaw_value, int timer_value, float yaw_setpoint) {
 8003490:	b5d0      	push	{r4, r6, r7, lr}
 8003492:	ed2d 8b04 	vpush	{d8-d9}

	//Calculate error
	yaw_error = IMU_yaw_value - yaw_setpoint;
 8003496:	ee70 8a60 	vsub.f32	s17, s0, s1
 800349a:	4b3b      	ldr	r3, [pc, #236]	; (8003588 <pid_calculate_yaw+0xf8>)
 800349c:	edc3 8a00 	vstr	s17, [r3]

	//Proportional component
	yaw_p = yaw_p_gain * yaw_error;
 80034a0:	4b3a      	ldr	r3, [pc, #232]	; (800358c <pid_calculate_yaw+0xfc>)
 80034a2:	ed93 8a00 	vldr	s16, [r3]
 80034a6:	ee28 8a88 	vmul.f32	s16, s17, s16
 80034aa:	4b39      	ldr	r3, [pc, #228]	; (8003590 <pid_calculate_yaw+0x100>)
 80034ac:	ed83 8a00 	vstr	s16, [r3]

	//Integral
	yaw_i += (yaw_i_gain * yaw_error * delta_t);
 80034b0:	4b38      	ldr	r3, [pc, #224]	; (8003594 <pid_calculate_yaw+0x104>)
 80034b2:	edd3 7a00 	vldr	s15, [r3]
 80034b6:	ee68 7aa7 	vmul.f32	s15, s17, s15
 80034ba:	ee17 0a90 	vmov	r0, s15
 80034be:	f7fc fff3 	bl	80004a8 <__aeabi_f2d>
 80034c2:	a32f      	add	r3, pc, #188	; (adr r3, 8003580 <pid_calculate_yaw+0xf0>)
 80034c4:	e9d3 2300 	ldrd	r2, r3, [r3]
 80034c8:	f7fd f846 	bl	8000558 <__aeabi_dmul>
 80034cc:	4606      	mov	r6, r0
 80034ce:	460f      	mov	r7, r1
 80034d0:	4c31      	ldr	r4, [pc, #196]	; (8003598 <pid_calculate_yaw+0x108>)
 80034d2:	6820      	ldr	r0, [r4, #0]
 80034d4:	f7fc ffe8 	bl	80004a8 <__aeabi_f2d>
 80034d8:	4632      	mov	r2, r6
 80034da:	463b      	mov	r3, r7
 80034dc:	f7fc fe86 	bl	80001ec <__adddf3>
 80034e0:	f7fd fa4c 	bl	800097c <__aeabi_d2f>
 80034e4:	ee09 0a10 	vmov	s18, r0
 80034e8:	6020      	str	r0, [r4, #0]

	//Derivative component
	yaw_d = yaw_d_gain * ( (yaw_error - yaw_last_d_error) / delta_t);
 80034ea:	4c2c      	ldr	r4, [pc, #176]	; (800359c <pid_calculate_yaw+0x10c>)
 80034ec:	edd4 7a00 	vldr	s15, [r4]
 80034f0:	ee78 7ae7 	vsub.f32	s15, s17, s15
 80034f4:	ee17 0a90 	vmov	r0, s15
 80034f8:	f7fc ffd6 	bl	80004a8 <__aeabi_f2d>
 80034fc:	a320      	add	r3, pc, #128	; (adr r3, 8003580 <pid_calculate_yaw+0xf0>)
 80034fe:	e9d3 2300 	ldrd	r2, r3, [r3]
 8003502:	f7fd f953 	bl	80007ac <__aeabi_ddiv>
 8003506:	4606      	mov	r6, r0
 8003508:	460f      	mov	r7, r1
 800350a:	4b25      	ldr	r3, [pc, #148]	; (80035a0 <pid_calculate_yaw+0x110>)
 800350c:	6818      	ldr	r0, [r3, #0]
 800350e:	f7fc ffcb 	bl	80004a8 <__aeabi_f2d>
 8003512:	4632      	mov	r2, r6
 8003514:	463b      	mov	r3, r7
 8003516:	f7fd f81f 	bl	8000558 <__aeabi_dmul>
 800351a:	f7fd fa2f 	bl	800097c <__aeabi_d2f>
 800351e:	ee07 0a90 	vmov	s15, r0
 8003522:	4b20      	ldr	r3, [pc, #128]	; (80035a4 <pid_calculate_yaw+0x114>)
 8003524:	6018      	str	r0, [r3, #0]
	yaw_last_d_error = yaw_error;
 8003526:	edc4 8a00 	vstr	s17, [r4]

	//PID together
	yaw_output = yaw_p + yaw_i + yaw_d;
 800352a:	ee38 8a09 	vadd.f32	s16, s16, s18
 800352e:	ee37 8a88 	vadd.f32	s16, s15, s16
 8003532:	4b1d      	ldr	r3, [pc, #116]	; (80035a8 <pid_calculate_yaw+0x118>)
 8003534:	ed83 8a00 	vstr	s16, [r3]

	//Clip PID output in event of extreme swings
	if (yaw_output < -yaw_pid_clip) {
 8003538:	4b1c      	ldr	r3, [pc, #112]	; (80035ac <pid_calculate_yaw+0x11c>)
 800353a:	681b      	ldr	r3, [r3, #0]
 800353c:	425a      	negs	r2, r3
 800353e:	ee07 2a90 	vmov	s15, r2
 8003542:	eef8 7ae7 	vcvt.f32.s32	s15, s15
 8003546:	eeb4 8ae7 	vcmpe.f32	s16, s15
 800354a:	eef1 fa10 	vmrs	APSR_nzcv, fpscr
 800354e:	d40c      	bmi.n	800356a <pid_calculate_yaw+0xda>
		yaw_output = -yaw_pid_clip;
	} else if (yaw_output > yaw_pid_clip) {
 8003550:	ee07 3a90 	vmov	s15, r3
 8003554:	eef8 7ae7 	vcvt.f32.s32	s15, s15
 8003558:	eeb4 8ae7 	vcmpe.f32	s16, s15
 800355c:	eef1 fa10 	vmrs	APSR_nzcv, fpscr
 8003560:	dd06      	ble.n	8003570 <pid_calculate_yaw+0xe0>
		yaw_output = yaw_pid_clip;
 8003562:	4b11      	ldr	r3, [pc, #68]	; (80035a8 <pid_calculate_yaw+0x118>)
 8003564:	edc3 7a00 	vstr	s15, [r3]
 8003568:	e002      	b.n	8003570 <pid_calculate_yaw+0xe0>
		yaw_output = -yaw_pid_clip;
 800356a:	4b0f      	ldr	r3, [pc, #60]	; (80035a8 <pid_calculate_yaw+0x118>)
 800356c:	edc3 7a00 	vstr	s15, [r3]
	}

	return yaw_output;
}
 8003570:	4b0d      	ldr	r3, [pc, #52]	; (80035a8 <pid_calculate_yaw+0x118>)
 8003572:	ed93 0a00 	vldr	s0, [r3]
 8003576:	ecbd 8b04 	vpop	{d8-d9}
 800357a:	bdd0      	pop	{r4, r6, r7, pc}
 800357c:	f3af 8000 	nop.w
 8003580:	d2f1a9fc 	.word	0xd2f1a9fc
 8003584:	3f60624d 	.word	0x3f60624d
 8003588:	20000388 	.word	0x20000388
 800358c:	20000054 	.word	0x20000054
 8003590:	200004b8 	.word	0x200004b8
 8003594:	20000050 	.word	0x20000050
 8003598:	200004b4 	.word	0x200004b4
 800359c:	2000038c 	.word	0x2000038c
 80035a0:	2000004c 	.word	0x2000004c
 80035a4:	200004a4 	.word	0x200004a4
 80035a8:	20000390 	.word	0x20000390
 80035ac:	20000058 	.word	0x20000058

080035b0 <DWT_Init>:
 * You might need to enable access to DWT registers on Cortex-M7
 *   DWT->LAR = 0xC5ACCE55
 */
void DWT_Init(void)
{
        CoreDebug->DEMCR |= CoreDebug_DEMCR_TRCENA_Msk;
 80035b0:	4a06      	ldr	r2, [pc, #24]	; (80035cc <DWT_Init+0x1c>)
 80035b2:	68d3      	ldr	r3, [r2, #12]
 80035b4:	f043 7380 	orr.w	r3, r3, #16777216	; 0x1000000
 80035b8:	60d3      	str	r3, [r2, #12]
        //DWT->LAR = 0xC5ACCE55;
        DWT->CYCCNT = 0;
 80035ba:	4b05      	ldr	r3, [pc, #20]	; (80035d0 <DWT_Init+0x20>)
 80035bc:	2200      	movs	r2, #0
 80035be:	605a      	str	r2, [r3, #4]
        DWT->CTRL |= DWT_CTRL_CYCCNTENA_Msk;
 80035c0:	681a      	ldr	r2, [r3, #0]
 80035c2:	f042 0201 	orr.w	r2, r2, #1
 80035c6:	601a      	str	r2, [r3, #0]

}
 80035c8:	4770      	bx	lr
 80035ca:	bf00      	nop
 80035cc:	e000edf0 	.word	0xe000edf0
 80035d0:	e0001000 	.word	0xe0001000

080035d4 <DWT_Delay>:
 *
 * @param uint32_t us  Number of microseconds to delay for
 */
void DWT_Delay(uint32_t us) // microseconds
{
    uint32_t startTick = DWT->CYCCNT,
 80035d4:	4b07      	ldr	r3, [pc, #28]	; (80035f4 <DWT_Delay+0x20>)
 80035d6:	685a      	ldr	r2, [r3, #4]
             delayTicks = us * (SystemCoreClock/1000000);
 80035d8:	4b07      	ldr	r3, [pc, #28]	; (80035f8 <DWT_Delay+0x24>)
 80035da:	681b      	ldr	r3, [r3, #0]
 80035dc:	4907      	ldr	r1, [pc, #28]	; (80035fc <DWT_Delay+0x28>)
 80035de:	fba1 1303 	umull	r1, r3, r1, r3
 80035e2:	0c9b      	lsrs	r3, r3, #18
 80035e4:	fb00 f003 	mul.w	r0, r0, r3

    while (DWT->CYCCNT - startTick < delayTicks);
 80035e8:	4b02      	ldr	r3, [pc, #8]	; (80035f4 <DWT_Delay+0x20>)
 80035ea:	685b      	ldr	r3, [r3, #4]
 80035ec:	1a9b      	subs	r3, r3, r2
 80035ee:	4283      	cmp	r3, r0
 80035f0:	d3fa      	bcc.n	80035e8 <DWT_Delay+0x14>
}
 80035f2:	4770      	bx	lr
 80035f4:	e0001000 	.word	0xe0001000
 80035f8:	20000090 	.word	0x20000090
 80035fc:	431bde83 	.word	0x431bde83

08003600 <HAL_InitTick>:
  *       implementation  in user file.
  * @param TickPriority Tick interrupt priority.
  * @retval HAL status
  */
__weak HAL_StatusTypeDef HAL_InitTick(uint32_t TickPriority)
{
 8003600:	b510      	push	{r4, lr}
 8003602:	4604      	mov	r4, r0
  /* Configure the SysTick to have interrupt in 1ms time basis*/
  if (HAL_SYSTICK_Config(SystemCoreClock / (1000U / uwTickFreq)) > 0U)
 8003604:	4b0e      	ldr	r3, [pc, #56]	; (8003640 <HAL_InitTick+0x40>)
 8003606:	7818      	ldrb	r0, [r3, #0]
 8003608:	f44f 737a 	mov.w	r3, #1000	; 0x3e8
 800360c:	fbb3 f3f0 	udiv	r3, r3, r0
 8003610:	4a0c      	ldr	r2, [pc, #48]	; (8003644 <HAL_InitTick+0x44>)
 8003612:	6810      	ldr	r0, [r2, #0]
 8003614:	fbb0 f0f3 	udiv	r0, r0, r3
 8003618:	f000 fa44 	bl	8003aa4 <HAL_SYSTICK_Config>
 800361c:	b968      	cbnz	r0, 800363a <HAL_InitTick+0x3a>
  {
    return HAL_ERROR;
  }

  /* Configure the SysTick IRQ priority */
  if (TickPriority < (1UL << __NVIC_PRIO_BITS))
 800361e:	2c0f      	cmp	r4, #15
 8003620:	d901      	bls.n	8003626 <HAL_InitTick+0x26>
    HAL_NVIC_SetPriority(SysTick_IRQn, TickPriority, 0U);
    uwTickPrio = TickPriority;
  }
  else
  {
    return HAL_ERROR;
 8003622:	2001      	movs	r0, #1
 8003624:	e00a      	b.n	800363c <HAL_InitTick+0x3c>
    HAL_NVIC_SetPriority(SysTick_IRQn, TickPriority, 0U);
 8003626:	2200      	movs	r2, #0
 8003628:	4621      	mov	r1, r4
 800362a:	f04f 30ff 	mov.w	r0, #4294967295	; 0xffffffff
 800362e:	f000 f9f7 	bl	8003a20 <HAL_NVIC_SetPriority>
    uwTickPrio = TickPriority;
 8003632:	4b05      	ldr	r3, [pc, #20]	; (8003648 <HAL_InitTick+0x48>)
 8003634:	601c      	str	r4, [r3, #0]
  }

  /* Return function status */
  return HAL_OK;
 8003636:	2000      	movs	r0, #0
 8003638:	e000      	b.n	800363c <HAL_InitTick+0x3c>
    return HAL_ERROR;
 800363a:	2001      	movs	r0, #1
}
 800363c:	bd10      	pop	{r4, pc}
 800363e:	bf00      	nop
 8003640:	2000005c 	.word	0x2000005c
 8003644:	20000090 	.word	0x20000090
 8003648:	20000060 	.word	0x20000060

0800364c <HAL_Init>:
{
 800364c:	b508      	push	{r3, lr}
  __HAL_FLASH_INSTRUCTION_CACHE_ENABLE();
 800364e:	4b0b      	ldr	r3, [pc, #44]	; (800367c <HAL_Init+0x30>)
 8003650:	681a      	ldr	r2, [r3, #0]
 8003652:	f442 7200 	orr.w	r2, r2, #512	; 0x200
 8003656:	601a      	str	r2, [r3, #0]
  __HAL_FLASH_DATA_CACHE_ENABLE();
 8003658:	681a      	ldr	r2, [r3, #0]
 800365a:	f442 6280 	orr.w	r2, r2, #1024	; 0x400
 800365e:	601a      	str	r2, [r3, #0]
  __HAL_FLASH_PREFETCH_BUFFER_ENABLE();
 8003660:	681a      	ldr	r2, [r3, #0]
 8003662:	f442 7280 	orr.w	r2, r2, #256	; 0x100
 8003666:	601a      	str	r2, [r3, #0]
  HAL_NVIC_SetPriorityGrouping(NVIC_PRIORITYGROUP_4);
 8003668:	2003      	movs	r0, #3
 800366a:	f000 f9c7 	bl	80039fc <HAL_NVIC_SetPriorityGrouping>
  HAL_InitTick(TICK_INT_PRIORITY);
 800366e:	2000      	movs	r0, #0
 8003670:	f7ff ffc6 	bl	8003600 <HAL_InitTick>
  HAL_MspInit();
 8003674:	f003 fcc6 	bl	8007004 <HAL_MspInit>
}
 8003678:	2000      	movs	r0, #0
 800367a:	bd08      	pop	{r3, pc}
 800367c:	40023c00 	.word	0x40023c00

08003680 <HAL_IncTick>:
  *      implementations in user file.
  * @retval None
  */
__weak void HAL_IncTick(void)
{
  uwTick += uwTickFreq;
 8003680:	4a03      	ldr	r2, [pc, #12]	; (8003690 <HAL_IncTick+0x10>)
 8003682:	6811      	ldr	r1, [r2, #0]
 8003684:	4b03      	ldr	r3, [pc, #12]	; (8003694 <HAL_IncTick+0x14>)
 8003686:	781b      	ldrb	r3, [r3, #0]
 8003688:	440b      	add	r3, r1
 800368a:	6013      	str	r3, [r2, #0]
}
 800368c:	4770      	bx	lr
 800368e:	bf00      	nop
 8003690:	200004c0 	.word	0x200004c0
 8003694:	2000005c 	.word	0x2000005c

08003698 <HAL_GetTick>:
  *       implementations in user file.
  * @retval tick value
  */
__weak uint32_t HAL_GetTick(void)
{
  return uwTick;
 8003698:	4b01      	ldr	r3, [pc, #4]	; (80036a0 <HAL_GetTick+0x8>)
 800369a:	6818      	ldr	r0, [r3, #0]
}
 800369c:	4770      	bx	lr
 800369e:	bf00      	nop
 80036a0:	200004c0 	.word	0x200004c0

080036a4 <HAL_Delay>:
  *       implementations in user file.
  * @param Delay specifies the delay time length, in milliseconds.
  * @retval None
  */
__weak void HAL_Delay(uint32_t Delay)
{
 80036a4:	b538      	push	{r3, r4, r5, lr}
 80036a6:	4604      	mov	r4, r0
  uint32_t tickstart = HAL_GetTick();
 80036a8:	f7ff fff6 	bl	8003698 <HAL_GetTick>
 80036ac:	4605      	mov	r5, r0
  uint32_t wait = Delay;

  /* Add a freq to guarantee minimum wait */
  if (wait < HAL_MAX_DELAY)
 80036ae:	f1b4 3fff 	cmp.w	r4, #4294967295	; 0xffffffff
 80036b2:	d002      	beq.n	80036ba <HAL_Delay+0x16>
  {
    wait += (uint32_t)(uwTickFreq);
 80036b4:	4b04      	ldr	r3, [pc, #16]	; (80036c8 <HAL_Delay+0x24>)
 80036b6:	781b      	ldrb	r3, [r3, #0]
 80036b8:	441c      	add	r4, r3
  }

  while((HAL_GetTick() - tickstart) < wait)
 80036ba:	f7ff ffed 	bl	8003698 <HAL_GetTick>
 80036be:	1b40      	subs	r0, r0, r5
 80036c0:	42a0      	cmp	r0, r4
 80036c2:	d3fa      	bcc.n	80036ba <HAL_Delay+0x16>
  {
  }
}
 80036c4:	bd38      	pop	{r3, r4, r5, pc}
 80036c6:	bf00      	nop
 80036c8:	2000005c 	.word	0x2000005c

080036cc <ADC_Init>:
  /* (Depending on STM32F4 product, there may be up to 3 ADCs and 1 common */
  /* control register)                                                    */
  tmpADC_Common = ADC_COMMON_REGISTER(hadc);
  
  /* Set the ADC clock prescaler */
  tmpADC_Common->CCR &= ~(ADC_CCR_ADCPRE);
 80036cc:	4b4a      	ldr	r3, [pc, #296]	; (80037f8 <ADC_Init+0x12c>)
 80036ce:	685a      	ldr	r2, [r3, #4]
 80036d0:	f422 3240 	bic.w	r2, r2, #196608	; 0x30000
 80036d4:	605a      	str	r2, [r3, #4]
  tmpADC_Common->CCR |=  hadc->Init.ClockPrescaler;
 80036d6:	685a      	ldr	r2, [r3, #4]
 80036d8:	6841      	ldr	r1, [r0, #4]
 80036da:	430a      	orrs	r2, r1
 80036dc:	605a      	str	r2, [r3, #4]
  
  /* Set ADC scan mode */
  hadc->Instance->CR1 &= ~(ADC_CR1_SCAN);
 80036de:	6802      	ldr	r2, [r0, #0]
 80036e0:	6853      	ldr	r3, [r2, #4]
 80036e2:	f423 7380 	bic.w	r3, r3, #256	; 0x100
 80036e6:	6053      	str	r3, [r2, #4]
  hadc->Instance->CR1 |=  ADC_CR1_SCANCONV(hadc->Init.ScanConvMode);
 80036e8:	6802      	ldr	r2, [r0, #0]
 80036ea:	6853      	ldr	r3, [r2, #4]
 80036ec:	6901      	ldr	r1, [r0, #16]
 80036ee:	ea43 2301 	orr.w	r3, r3, r1, lsl #8
 80036f2:	6053      	str	r3, [r2, #4]
  
  /* Set ADC resolution */
  hadc->Instance->CR1 &= ~(ADC_CR1_RES);
 80036f4:	6802      	ldr	r2, [r0, #0]
 80036f6:	6853      	ldr	r3, [r2, #4]
 80036f8:	f023 7340 	bic.w	r3, r3, #50331648	; 0x3000000
 80036fc:	6053      	str	r3, [r2, #4]
  hadc->Instance->CR1 |=  hadc->Init.Resolution;
 80036fe:	6802      	ldr	r2, [r0, #0]
 8003700:	6853      	ldr	r3, [r2, #4]
 8003702:	6881      	ldr	r1, [r0, #8]
 8003704:	430b      	orrs	r3, r1
 8003706:	6053      	str	r3, [r2, #4]
  
  /* Set ADC data alignment */
  hadc->Instance->CR2 &= ~(ADC_CR2_ALIGN);
 8003708:	6802      	ldr	r2, [r0, #0]
 800370a:	6893      	ldr	r3, [r2, #8]
 800370c:	f423 6300 	bic.w	r3, r3, #2048	; 0x800
 8003710:	6093      	str	r3, [r2, #8]
  hadc->Instance->CR2 |= hadc->Init.DataAlign;
 8003712:	6802      	ldr	r2, [r0, #0]
 8003714:	6893      	ldr	r3, [r2, #8]
 8003716:	68c1      	ldr	r1, [r0, #12]
 8003718:	430b      	orrs	r3, r1
 800371a:	6093      	str	r3, [r2, #8]
  /* Enable external trigger if trigger selection is different of software  */
  /* start.                                                                 */
  /* Note: This configuration keeps the hardware feature of parameter       */
  /*       ExternalTrigConvEdge "trigger edge none" equivalent to           */
  /*       software start.                                                  */
  if(hadc->Init.ExternalTrigConv != ADC_SOFTWARE_START)
 800371c:	6a82      	ldr	r2, [r0, #40]	; 0x28
 800371e:	4b37      	ldr	r3, [pc, #220]	; (80037fc <ADC_Init+0x130>)
 8003720:	429a      	cmp	r2, r3
 8003722:	d04b      	beq.n	80037bc <ADC_Init+0xf0>
  {
    /* Select external trigger to start conversion */
    hadc->Instance->CR2 &= ~(ADC_CR2_EXTSEL);
 8003724:	6802      	ldr	r2, [r0, #0]
 8003726:	6893      	ldr	r3, [r2, #8]
 8003728:	f023 6370 	bic.w	r3, r3, #251658240	; 0xf000000
 800372c:	6093      	str	r3, [r2, #8]
    hadc->Instance->CR2 |= hadc->Init.ExternalTrigConv;
 800372e:	6802      	ldr	r2, [r0, #0]
 8003730:	6893      	ldr	r3, [r2, #8]
 8003732:	6a81      	ldr	r1, [r0, #40]	; 0x28
 8003734:	430b      	orrs	r3, r1
 8003736:	6093      	str	r3, [r2, #8]
    
    /* Select external trigger polarity */
    hadc->Instance->CR2 &= ~(ADC_CR2_EXTEN);
 8003738:	6802      	ldr	r2, [r0, #0]
 800373a:	6893      	ldr	r3, [r2, #8]
 800373c:	f023 5340 	bic.w	r3, r3, #805306368	; 0x30000000
 8003740:	6093      	str	r3, [r2, #8]
    hadc->Instance->CR2 |= hadc->Init.ExternalTrigConvEdge;
 8003742:	6802      	ldr	r2, [r0, #0]
 8003744:	6893      	ldr	r3, [r2, #8]
 8003746:	6ac1      	ldr	r1, [r0, #44]	; 0x2c
 8003748:	430b      	orrs	r3, r1
 800374a:	6093      	str	r3, [r2, #8]
    hadc->Instance->CR2 &= ~(ADC_CR2_EXTSEL);
    hadc->Instance->CR2 &= ~(ADC_CR2_EXTEN);
  }
  
  /* Enable or disable ADC continuous conversion mode */
  hadc->Instance->CR2 &= ~(ADC_CR2_CONT);
 800374c:	6802      	ldr	r2, [r0, #0]
 800374e:	6893      	ldr	r3, [r2, #8]
 8003750:	f023 0302 	bic.w	r3, r3, #2
 8003754:	6093      	str	r3, [r2, #8]
  hadc->Instance->CR2 |= ADC_CR2_CONTINUOUS((uint32_t)hadc->Init.ContinuousConvMode);
 8003756:	6802      	ldr	r2, [r0, #0]
 8003758:	6893      	ldr	r3, [r2, #8]
 800375a:	7e01      	ldrb	r1, [r0, #24]
 800375c:	ea43 0341 	orr.w	r3, r3, r1, lsl #1
 8003760:	6093      	str	r3, [r2, #8]
  
  if(hadc->Init.DiscontinuousConvMode != DISABLE)
 8003762:	f890 3020 	ldrb.w	r3, [r0, #32]
 8003766:	2b00      	cmp	r3, #0
 8003768:	d133      	bne.n	80037d2 <ADC_Init+0x106>
    hadc->Instance->CR1 |=  ADC_CR1_DISCONTINUOUS(hadc->Init.NbrOfDiscConversion);
  }
  else
  {
    /* Disable the selected ADC regular discontinuous mode */
    hadc->Instance->CR1 &= ~(ADC_CR1_DISCEN);
 800376a:	6802      	ldr	r2, [r0, #0]
 800376c:	6853      	ldr	r3, [r2, #4]
 800376e:	f423 6300 	bic.w	r3, r3, #2048	; 0x800
 8003772:	6053      	str	r3, [r2, #4]
  }
  
  /* Set ADC number of conversion */
  hadc->Instance->SQR1 &= ~(ADC_SQR1_L);
 8003774:	6802      	ldr	r2, [r0, #0]
 8003776:	6ad3      	ldr	r3, [r2, #44]	; 0x2c
 8003778:	f423 0370 	bic.w	r3, r3, #15728640	; 0xf00000
 800377c:	62d3      	str	r3, [r2, #44]	; 0x2c
  hadc->Instance->SQR1 |=  ADC_SQR1(hadc->Init.NbrOfConversion);
 800377e:	6801      	ldr	r1, [r0, #0]
 8003780:	6acb      	ldr	r3, [r1, #44]	; 0x2c
 8003782:	69c2      	ldr	r2, [r0, #28]
 8003784:	3a01      	subs	r2, #1
 8003786:	ea43 5302 	orr.w	r3, r3, r2, lsl #20
 800378a:	62cb      	str	r3, [r1, #44]	; 0x2c
  
  /* Enable or disable ADC DMA continuous request */
  hadc->Instance->CR2 &= ~(ADC_CR2_DDS);
 800378c:	6802      	ldr	r2, [r0, #0]
 800378e:	6893      	ldr	r3, [r2, #8]
 8003790:	f423 7300 	bic.w	r3, r3, #512	; 0x200
 8003794:	6093      	str	r3, [r2, #8]
  hadc->Instance->CR2 |= ADC_CR2_DMAContReq((uint32_t)hadc->Init.DMAContinuousRequests);
 8003796:	6802      	ldr	r2, [r0, #0]
 8003798:	6893      	ldr	r3, [r2, #8]
 800379a:	f890 1030 	ldrb.w	r1, [r0, #48]	; 0x30
 800379e:	ea43 2341 	orr.w	r3, r3, r1, lsl #9
 80037a2:	6093      	str	r3, [r2, #8]
  
  /* Enable or disable ADC end of conversion selection */
  hadc->Instance->CR2 &= ~(ADC_CR2_EOCS);
 80037a4:	6802      	ldr	r2, [r0, #0]
 80037a6:	6893      	ldr	r3, [r2, #8]
 80037a8:	f423 6380 	bic.w	r3, r3, #1024	; 0x400
 80037ac:	6093      	str	r3, [r2, #8]
  hadc->Instance->CR2 |= ADC_CR2_EOCSelection(hadc->Init.EOCSelection);
 80037ae:	6802      	ldr	r2, [r0, #0]
 80037b0:	6893      	ldr	r3, [r2, #8]
 80037b2:	6941      	ldr	r1, [r0, #20]
 80037b4:	ea43 2381 	orr.w	r3, r3, r1, lsl #10
 80037b8:	6093      	str	r3, [r2, #8]
}
 80037ba:	4770      	bx	lr
    hadc->Instance->CR2 &= ~(ADC_CR2_EXTSEL);
 80037bc:	6802      	ldr	r2, [r0, #0]
 80037be:	6893      	ldr	r3, [r2, #8]
 80037c0:	f023 6370 	bic.w	r3, r3, #251658240	; 0xf000000
 80037c4:	6093      	str	r3, [r2, #8]
    hadc->Instance->CR2 &= ~(ADC_CR2_EXTEN);
 80037c6:	6802      	ldr	r2, [r0, #0]
 80037c8:	6893      	ldr	r3, [r2, #8]
 80037ca:	f023 5340 	bic.w	r3, r3, #805306368	; 0x30000000
 80037ce:	6093      	str	r3, [r2, #8]
 80037d0:	e7bc      	b.n	800374c <ADC_Init+0x80>
    hadc->Instance->CR1 |= (uint32_t)ADC_CR1_DISCEN;
 80037d2:	6802      	ldr	r2, [r0, #0]
 80037d4:	6853      	ldr	r3, [r2, #4]
 80037d6:	f443 6300 	orr.w	r3, r3, #2048	; 0x800
 80037da:	6053      	str	r3, [r2, #4]
    hadc->Instance->CR1 &= ~(ADC_CR1_DISCNUM);
 80037dc:	6802      	ldr	r2, [r0, #0]
 80037de:	6853      	ldr	r3, [r2, #4]
 80037e0:	f423 4360 	bic.w	r3, r3, #57344	; 0xe000
 80037e4:	6053      	str	r3, [r2, #4]
    hadc->Instance->CR1 |=  ADC_CR1_DISCONTINUOUS(hadc->Init.NbrOfDiscConversion);
 80037e6:	6801      	ldr	r1, [r0, #0]
 80037e8:	684b      	ldr	r3, [r1, #4]
 80037ea:	6a42      	ldr	r2, [r0, #36]	; 0x24
 80037ec:	3a01      	subs	r2, #1
 80037ee:	ea43 3342 	orr.w	r3, r3, r2, lsl #13
 80037f2:	604b      	str	r3, [r1, #4]
 80037f4:	e7be      	b.n	8003774 <ADC_Init+0xa8>
 80037f6:	bf00      	nop
 80037f8:	40012300 	.word	0x40012300
 80037fc:	0f000001 	.word	0x0f000001

08003800 <HAL_ADC_Init>:
  if(hadc == NULL)
 8003800:	b338      	cbz	r0, 8003852 <HAL_ADC_Init+0x52>
{
 8003802:	b510      	push	{r4, lr}
 8003804:	4604      	mov	r4, r0
  if(hadc->State == HAL_ADC_STATE_RESET)
 8003806:	6c03      	ldr	r3, [r0, #64]	; 0x40
 8003808:	b143      	cbz	r3, 800381c <HAL_ADC_Init+0x1c>
  if (HAL_IS_BIT_CLR(hadc->State, HAL_ADC_STATE_ERROR_INTERNAL))
 800380a:	6c23      	ldr	r3, [r4, #64]	; 0x40
 800380c:	f013 0f10 	tst.w	r3, #16
 8003810:	d00b      	beq.n	800382a <HAL_ADC_Init+0x2a>
    tmp_hal_status = HAL_ERROR;
 8003812:	2001      	movs	r0, #1
  __HAL_UNLOCK(hadc);
 8003814:	2300      	movs	r3, #0
 8003816:	f884 303c 	strb.w	r3, [r4, #60]	; 0x3c
}
 800381a:	bd10      	pop	{r4, pc}
    HAL_ADC_MspInit(hadc);
 800381c:	f003 fc12 	bl	8007044 <HAL_ADC_MspInit>
    ADC_CLEAR_ERRORCODE(hadc);
 8003820:	2300      	movs	r3, #0
 8003822:	6463      	str	r3, [r4, #68]	; 0x44
    hadc->Lock = HAL_UNLOCKED;
 8003824:	f884 303c 	strb.w	r3, [r4, #60]	; 0x3c
 8003828:	e7ef      	b.n	800380a <HAL_ADC_Init+0xa>
    ADC_STATE_CLR_SET(hadc->State,
 800382a:	6c23      	ldr	r3, [r4, #64]	; 0x40
 800382c:	f423 5388 	bic.w	r3, r3, #4352	; 0x1100
 8003830:	f023 0302 	bic.w	r3, r3, #2
 8003834:	f043 0302 	orr.w	r3, r3, #2
 8003838:	6423      	str	r3, [r4, #64]	; 0x40
    ADC_Init(hadc);
 800383a:	4620      	mov	r0, r4
 800383c:	f7ff ff46 	bl	80036cc <ADC_Init>
    ADC_CLEAR_ERRORCODE(hadc);
 8003840:	2000      	movs	r0, #0
 8003842:	6460      	str	r0, [r4, #68]	; 0x44
    ADC_STATE_CLR_SET(hadc->State,
 8003844:	6c23      	ldr	r3, [r4, #64]	; 0x40
 8003846:	f023 0303 	bic.w	r3, r3, #3
 800384a:	f043 0301 	orr.w	r3, r3, #1
 800384e:	6423      	str	r3, [r4, #64]	; 0x40
 8003850:	e7e0      	b.n	8003814 <HAL_ADC_Init+0x14>
    return HAL_ERROR;
 8003852:	2001      	movs	r0, #1
}
 8003854:	4770      	bx	lr
	...

08003858 <HAL_ADC_ConfigChannel>:
{
 8003858:	b430      	push	{r4, r5}
 800385a:	b082      	sub	sp, #8
  __IO uint32_t counter = 0U;
 800385c:	2300      	movs	r3, #0
 800385e:	9301      	str	r3, [sp, #4]
  __HAL_LOCK(hadc);
 8003860:	f890 303c 	ldrb.w	r3, [r0, #60]	; 0x3c
 8003864:	2b01      	cmp	r3, #1
 8003866:	f000 80bd 	beq.w	80039e4 <HAL_ADC_ConfigChannel+0x18c>
 800386a:	2301      	movs	r3, #1
 800386c:	f880 303c 	strb.w	r3, [r0, #60]	; 0x3c
  if (sConfig->Channel > ADC_CHANNEL_9)
 8003870:	680b      	ldr	r3, [r1, #0]
 8003872:	2b09      	cmp	r3, #9
 8003874:	d93e      	bls.n	80038f4 <HAL_ADC_ConfigChannel+0x9c>
    hadc->Instance->SMPR1 &= ~ADC_SMPR1(ADC_SMPR1_SMP10, sConfig->Channel);
 8003876:	6805      	ldr	r5, [r0, #0]
 8003878:	68ea      	ldr	r2, [r5, #12]
 800387a:	b29b      	uxth	r3, r3
 800387c:	eb03 0343 	add.w	r3, r3, r3, lsl #1
 8003880:	3b1e      	subs	r3, #30
 8003882:	2407      	movs	r4, #7
 8003884:	fa04 f303 	lsl.w	r3, r4, r3
 8003888:	ea22 0303 	bic.w	r3, r2, r3
 800388c:	60eb      	str	r3, [r5, #12]
    hadc->Instance->SMPR1 |= ADC_SMPR1(sConfig->SamplingTime, sConfig->Channel);
 800388e:	6805      	ldr	r5, [r0, #0]
 8003890:	68ea      	ldr	r2, [r5, #12]
 8003892:	688c      	ldr	r4, [r1, #8]
 8003894:	880b      	ldrh	r3, [r1, #0]
 8003896:	eb03 0343 	add.w	r3, r3, r3, lsl #1
 800389a:	3b1e      	subs	r3, #30
 800389c:	fa04 f303 	lsl.w	r3, r4, r3
 80038a0:	4313      	orrs	r3, r2
 80038a2:	60eb      	str	r3, [r5, #12]
  if (sConfig->Rank < 7U)
 80038a4:	684b      	ldr	r3, [r1, #4]
 80038a6:	2b06      	cmp	r3, #6
 80038a8:	d83a      	bhi.n	8003920 <HAL_ADC_ConfigChannel+0xc8>
    hadc->Instance->SQR3 &= ~ADC_SQR3_RK(ADC_SQR3_SQ1, sConfig->Rank);
 80038aa:	6805      	ldr	r5, [r0, #0]
 80038ac:	6b6a      	ldr	r2, [r5, #52]	; 0x34
 80038ae:	eb03 0383 	add.w	r3, r3, r3, lsl #2
 80038b2:	3b05      	subs	r3, #5
 80038b4:	241f      	movs	r4, #31
 80038b6:	fa04 f303 	lsl.w	r3, r4, r3
 80038ba:	ea22 0303 	bic.w	r3, r2, r3
 80038be:	636b      	str	r3, [r5, #52]	; 0x34
    hadc->Instance->SQR3 |= ADC_SQR3_RK(sConfig->Channel, sConfig->Rank);
 80038c0:	6805      	ldr	r5, [r0, #0]
 80038c2:	6b6a      	ldr	r2, [r5, #52]	; 0x34
 80038c4:	684b      	ldr	r3, [r1, #4]
 80038c6:	eb03 0383 	add.w	r3, r3, r3, lsl #2
 80038ca:	3b05      	subs	r3, #5
 80038cc:	880c      	ldrh	r4, [r1, #0]
 80038ce:	fa04 f303 	lsl.w	r3, r4, r3
 80038d2:	4313      	orrs	r3, r2
 80038d4:	636b      	str	r3, [r5, #52]	; 0x34
  if ((hadc->Instance == ADC1) && (sConfig->Channel == ADC_CHANNEL_VBAT))
 80038d6:	6802      	ldr	r2, [r0, #0]
 80038d8:	4b43      	ldr	r3, [pc, #268]	; (80039e8 <HAL_ADC_ConfigChannel+0x190>)
 80038da:	429a      	cmp	r2, r3
 80038dc:	d050      	beq.n	8003980 <HAL_ADC_ConfigChannel+0x128>
  if ((hadc->Instance == ADC1) && ((sConfig->Channel == ADC_CHANNEL_TEMPSENSOR) || (sConfig->Channel == ADC_CHANNEL_VREFINT)))
 80038de:	6802      	ldr	r2, [r0, #0]
 80038e0:	4b41      	ldr	r3, [pc, #260]	; (80039e8 <HAL_ADC_ConfigChannel+0x190>)
 80038e2:	429a      	cmp	r2, r3
 80038e4:	d059      	beq.n	800399a <HAL_ADC_ConfigChannel+0x142>
  __HAL_UNLOCK(hadc);
 80038e6:	2300      	movs	r3, #0
 80038e8:	f880 303c 	strb.w	r3, [r0, #60]	; 0x3c
  return HAL_OK;
 80038ec:	4618      	mov	r0, r3
}
 80038ee:	b002      	add	sp, #8
 80038f0:	bc30      	pop	{r4, r5}
 80038f2:	4770      	bx	lr
    hadc->Instance->SMPR2 &= ~ADC_SMPR2(ADC_SMPR2_SMP0, sConfig->Channel);
 80038f4:	6805      	ldr	r5, [r0, #0]
 80038f6:	692a      	ldr	r2, [r5, #16]
 80038f8:	b29b      	uxth	r3, r3
 80038fa:	eb03 0343 	add.w	r3, r3, r3, lsl #1
 80038fe:	2407      	movs	r4, #7
 8003900:	fa04 f303 	lsl.w	r3, r4, r3
 8003904:	ea22 0303 	bic.w	r3, r2, r3
 8003908:	612b      	str	r3, [r5, #16]
    hadc->Instance->SMPR2 |= ADC_SMPR2(sConfig->SamplingTime, sConfig->Channel);
 800390a:	6805      	ldr	r5, [r0, #0]
 800390c:	692a      	ldr	r2, [r5, #16]
 800390e:	688c      	ldr	r4, [r1, #8]
 8003910:	880b      	ldrh	r3, [r1, #0]
 8003912:	eb03 0343 	add.w	r3, r3, r3, lsl #1
 8003916:	fa04 f303 	lsl.w	r3, r4, r3
 800391a:	4313      	orrs	r3, r2
 800391c:	612b      	str	r3, [r5, #16]
 800391e:	e7c1      	b.n	80038a4 <HAL_ADC_ConfigChannel+0x4c>
  else if (sConfig->Rank < 13U)
 8003920:	2b0c      	cmp	r3, #12
 8003922:	d816      	bhi.n	8003952 <HAL_ADC_ConfigChannel+0xfa>
    hadc->Instance->SQR2 &= ~ADC_SQR2_RK(ADC_SQR2_SQ7, sConfig->Rank);
 8003924:	6805      	ldr	r5, [r0, #0]
 8003926:	6b2a      	ldr	r2, [r5, #48]	; 0x30
 8003928:	eb03 0383 	add.w	r3, r3, r3, lsl #2
 800392c:	3b23      	subs	r3, #35	; 0x23
 800392e:	241f      	movs	r4, #31
 8003930:	fa04 f303 	lsl.w	r3, r4, r3
 8003934:	ea22 0303 	bic.w	r3, r2, r3
 8003938:	632b      	str	r3, [r5, #48]	; 0x30
    hadc->Instance->SQR2 |= ADC_SQR2_RK(sConfig->Channel, sConfig->Rank);
 800393a:	6805      	ldr	r5, [r0, #0]
 800393c:	6b2a      	ldr	r2, [r5, #48]	; 0x30
 800393e:	684b      	ldr	r3, [r1, #4]
 8003940:	eb03 0383 	add.w	r3, r3, r3, lsl #2
 8003944:	3b23      	subs	r3, #35	; 0x23
 8003946:	880c      	ldrh	r4, [r1, #0]
 8003948:	fa04 f303 	lsl.w	r3, r4, r3
 800394c:	4313      	orrs	r3, r2
 800394e:	632b      	str	r3, [r5, #48]	; 0x30
 8003950:	e7c1      	b.n	80038d6 <HAL_ADC_ConfigChannel+0x7e>
    hadc->Instance->SQR1 &= ~ADC_SQR1_RK(ADC_SQR1_SQ13, sConfig->Rank);
 8003952:	6805      	ldr	r5, [r0, #0]
 8003954:	6aea      	ldr	r2, [r5, #44]	; 0x2c
 8003956:	eb03 0383 	add.w	r3, r3, r3, lsl #2
 800395a:	3b41      	subs	r3, #65	; 0x41
 800395c:	241f      	movs	r4, #31
 800395e:	fa04 f303 	lsl.w	r3, r4, r3
 8003962:	ea22 0303 	bic.w	r3, r2, r3
 8003966:	62eb      	str	r3, [r5, #44]	; 0x2c
    hadc->Instance->SQR1 |= ADC_SQR1_RK(sConfig->Channel, sConfig->Rank);
 8003968:	6805      	ldr	r5, [r0, #0]
 800396a:	6aea      	ldr	r2, [r5, #44]	; 0x2c
 800396c:	684b      	ldr	r3, [r1, #4]
 800396e:	eb03 0383 	add.w	r3, r3, r3, lsl #2
 8003972:	3b41      	subs	r3, #65	; 0x41
 8003974:	880c      	ldrh	r4, [r1, #0]
 8003976:	fa04 f303 	lsl.w	r3, r4, r3
 800397a:	4313      	orrs	r3, r2
 800397c:	62eb      	str	r3, [r5, #44]	; 0x2c
 800397e:	e7aa      	b.n	80038d6 <HAL_ADC_ConfigChannel+0x7e>
  if ((hadc->Instance == ADC1) && (sConfig->Channel == ADC_CHANNEL_VBAT))
 8003980:	680b      	ldr	r3, [r1, #0]
 8003982:	2b12      	cmp	r3, #18
 8003984:	d1ab      	bne.n	80038de <HAL_ADC_ConfigChannel+0x86>
      tmpADC_Common->CCR &= ~ADC_CCR_TSVREFE;
 8003986:	4b19      	ldr	r3, [pc, #100]	; (80039ec <HAL_ADC_ConfigChannel+0x194>)
 8003988:	685a      	ldr	r2, [r3, #4]
 800398a:	f422 0200 	bic.w	r2, r2, #8388608	; 0x800000
 800398e:	605a      	str	r2, [r3, #4]
    tmpADC_Common->CCR |= ADC_CCR_VBATE;
 8003990:	685a      	ldr	r2, [r3, #4]
 8003992:	f442 0280 	orr.w	r2, r2, #4194304	; 0x400000
 8003996:	605a      	str	r2, [r3, #4]
 8003998:	e7a1      	b.n	80038de <HAL_ADC_ConfigChannel+0x86>
  if ((hadc->Instance == ADC1) && ((sConfig->Channel == ADC_CHANNEL_TEMPSENSOR) || (sConfig->Channel == ADC_CHANNEL_VREFINT)))
 800399a:	680b      	ldr	r3, [r1, #0]
 800399c:	4a14      	ldr	r2, [pc, #80]	; (80039f0 <HAL_ADC_ConfigChannel+0x198>)
 800399e:	4293      	cmp	r3, r2
 80039a0:	d001      	beq.n	80039a6 <HAL_ADC_ConfigChannel+0x14e>
 80039a2:	2b11      	cmp	r3, #17
 80039a4:	d19f      	bne.n	80038e6 <HAL_ADC_ConfigChannel+0x8e>
      tmpADC_Common->CCR &= ~ADC_CCR_VBATE;
 80039a6:	4b11      	ldr	r3, [pc, #68]	; (80039ec <HAL_ADC_ConfigChannel+0x194>)
 80039a8:	685a      	ldr	r2, [r3, #4]
 80039aa:	f422 0280 	bic.w	r2, r2, #4194304	; 0x400000
 80039ae:	605a      	str	r2, [r3, #4]
    tmpADC_Common->CCR |= ADC_CCR_TSVREFE;
 80039b0:	685a      	ldr	r2, [r3, #4]
 80039b2:	f442 0200 	orr.w	r2, r2, #8388608	; 0x800000
 80039b6:	605a      	str	r2, [r3, #4]
    if((sConfig->Channel == ADC_CHANNEL_TEMPSENSOR))
 80039b8:	680a      	ldr	r2, [r1, #0]
 80039ba:	4b0d      	ldr	r3, [pc, #52]	; (80039f0 <HAL_ADC_ConfigChannel+0x198>)
 80039bc:	429a      	cmp	r2, r3
 80039be:	d192      	bne.n	80038e6 <HAL_ADC_ConfigChannel+0x8e>
      counter = (ADC_TEMPSENSOR_DELAY_US * (SystemCoreClock / 1000000U));
 80039c0:	4b0c      	ldr	r3, [pc, #48]	; (80039f4 <HAL_ADC_ConfigChannel+0x19c>)
 80039c2:	681b      	ldr	r3, [r3, #0]
 80039c4:	4a0c      	ldr	r2, [pc, #48]	; (80039f8 <HAL_ADC_ConfigChannel+0x1a0>)
 80039c6:	fba2 2303 	umull	r2, r3, r2, r3
 80039ca:	0c9b      	lsrs	r3, r3, #18
 80039cc:	eb03 0383 	add.w	r3, r3, r3, lsl #2
 80039d0:	005a      	lsls	r2, r3, #1
 80039d2:	9201      	str	r2, [sp, #4]
      while(counter != 0U)
 80039d4:	e002      	b.n	80039dc <HAL_ADC_ConfigChannel+0x184>
        counter--;
 80039d6:	9b01      	ldr	r3, [sp, #4]
 80039d8:	3b01      	subs	r3, #1
 80039da:	9301      	str	r3, [sp, #4]
      while(counter != 0U)
 80039dc:	9b01      	ldr	r3, [sp, #4]
 80039de:	2b00      	cmp	r3, #0
 80039e0:	d1f9      	bne.n	80039d6 <HAL_ADC_ConfigChannel+0x17e>
 80039e2:	e780      	b.n	80038e6 <HAL_ADC_ConfigChannel+0x8e>
  __HAL_LOCK(hadc);
 80039e4:	2002      	movs	r0, #2
 80039e6:	e782      	b.n	80038ee <HAL_ADC_ConfigChannel+0x96>
 80039e8:	40012000 	.word	0x40012000
 80039ec:	40012300 	.word	0x40012300
 80039f0:	10000012 	.word	0x10000012
 80039f4:	20000090 	.word	0x20000090
 80039f8:	431bde83 	.word	0x431bde83

080039fc <HAL_NVIC_SetPriorityGrouping>:
__STATIC_INLINE void __NVIC_SetPriorityGrouping(uint32_t PriorityGroup)
{
  uint32_t reg_value;
  uint32_t PriorityGroupTmp = (PriorityGroup & (uint32_t)0x07UL);             /* only values 0..7 are used          */

  reg_value  =  SCB->AIRCR;                                                   /* read old register configuration    */
 80039fc:	4a07      	ldr	r2, [pc, #28]	; (8003a1c <HAL_NVIC_SetPriorityGrouping+0x20>)
 80039fe:	68d3      	ldr	r3, [r2, #12]
  reg_value &= ~((uint32_t)(SCB_AIRCR_VECTKEY_Msk | SCB_AIRCR_PRIGROUP_Msk)); /* clear bits to change               */
 8003a00:	f423 63e0 	bic.w	r3, r3, #1792	; 0x700
 8003a04:	041b      	lsls	r3, r3, #16
 8003a06:	0c1b      	lsrs	r3, r3, #16
  reg_value  =  (reg_value                                   |
                ((uint32_t)0x5FAUL << SCB_AIRCR_VECTKEY_Pos) |
                (PriorityGroupTmp << SCB_AIRCR_PRIGROUP_Pos)  );              /* Insert write key and priority group */
 8003a08:	0200      	lsls	r0, r0, #8
 8003a0a:	f400 60e0 	and.w	r0, r0, #1792	; 0x700
                ((uint32_t)0x5FAUL << SCB_AIRCR_VECTKEY_Pos) |
 8003a0e:	4318      	orrs	r0, r3
  reg_value  =  (reg_value                                   |
 8003a10:	f040 60bf 	orr.w	r0, r0, #100139008	; 0x5f80000
 8003a14:	f440 3000 	orr.w	r0, r0, #131072	; 0x20000
  SCB->AIRCR =  reg_value;
 8003a18:	60d0      	str	r0, [r2, #12]
  /* Check the parameters */
  assert_param(IS_NVIC_PRIORITY_GROUP(PriorityGroup));
  
  /* Set the PRIGROUP[10:8] bits according to the PriorityGroup parameter value */
  NVIC_SetPriorityGrouping(PriorityGroup);
}
 8003a1a:	4770      	bx	lr
 8003a1c:	e000ed00 	.word	0xe000ed00

08003a20 <HAL_NVIC_SetPriority>:
  *         This parameter can be a value between 0 and 15
  *         A lower priority value indicates a higher priority.          
  * @retval None
  */
void HAL_NVIC_SetPriority(IRQn_Type IRQn, uint32_t PreemptPriority, uint32_t SubPriority)
{ 
 8003a20:	b430      	push	{r4, r5}
  \details Reads the priority grouping field from the NVIC Interrupt Controller.
  \return                Priority grouping field (SCB->AIRCR [10:8] PRIGROUP field).
 */
__STATIC_INLINE uint32_t __NVIC_GetPriorityGrouping(void)
{
  return ((uint32_t)((SCB->AIRCR & SCB_AIRCR_PRIGROUP_Msk) >> SCB_AIRCR_PRIGROUP_Pos));
 8003a22:	4b17      	ldr	r3, [pc, #92]	; (8003a80 <HAL_NVIC_SetPriority+0x60>)
 8003a24:	68db      	ldr	r3, [r3, #12]
 8003a26:	f3c3 2302 	ubfx	r3, r3, #8, #3
{
  uint32_t PriorityGroupTmp = (PriorityGroup & (uint32_t)0x07UL);   /* only values 0..7 are used          */
  uint32_t PreemptPriorityBits;
  uint32_t SubPriorityBits;

  PreemptPriorityBits = ((7UL - PriorityGroupTmp) > (uint32_t)(__NVIC_PRIO_BITS)) ? (uint32_t)(__NVIC_PRIO_BITS) : (uint32_t)(7UL - PriorityGroupTmp);
 8003a2a:	f1c3 0407 	rsb	r4, r3, #7
 8003a2e:	2c04      	cmp	r4, #4
 8003a30:	bf28      	it	cs
 8003a32:	2404      	movcs	r4, #4
  SubPriorityBits     = ((PriorityGroupTmp + (uint32_t)(__NVIC_PRIO_BITS)) < (uint32_t)7UL) ? (uint32_t)0UL : (uint32_t)((PriorityGroupTmp - 7UL) + (uint32_t)(__NVIC_PRIO_BITS));
 8003a34:	1d1d      	adds	r5, r3, #4
 8003a36:	2d06      	cmp	r5, #6
 8003a38:	d918      	bls.n	8003a6c <HAL_NVIC_SetPriority+0x4c>
 8003a3a:	3b03      	subs	r3, #3

  return (
           ((PreemptPriority & (uint32_t)((1UL << (PreemptPriorityBits)) - 1UL)) << SubPriorityBits) |
 8003a3c:	f04f 35ff 	mov.w	r5, #4294967295	; 0xffffffff
 8003a40:	fa05 f404 	lsl.w	r4, r5, r4
 8003a44:	ea21 0104 	bic.w	r1, r1, r4
 8003a48:	4099      	lsls	r1, r3
           ((SubPriority     & (uint32_t)((1UL << (SubPriorityBits    )) - 1UL)))
 8003a4a:	fa05 f303 	lsl.w	r3, r5, r3
 8003a4e:	ea22 0303 	bic.w	r3, r2, r3
           ((PreemptPriority & (uint32_t)((1UL << (PreemptPriorityBits)) - 1UL)) << SubPriorityBits) |
 8003a52:	4319      	orrs	r1, r3
  if ((int32_t)(IRQn) >= 0)
 8003a54:	2800      	cmp	r0, #0
 8003a56:	db0b      	blt.n	8003a70 <HAL_NVIC_SetPriority+0x50>
    NVIC->IP[((uint32_t)IRQn)]               = (uint8_t)((priority << (8U - __NVIC_PRIO_BITS)) & (uint32_t)0xFFUL);
 8003a58:	0109      	lsls	r1, r1, #4
 8003a5a:	b2c9      	uxtb	r1, r1
 8003a5c:	f100 4060 	add.w	r0, r0, #3758096384	; 0xe0000000
 8003a60:	f500 4061 	add.w	r0, r0, #57600	; 0xe100
 8003a64:	f880 1300 	strb.w	r1, [r0, #768]	; 0x300
  assert_param(IS_NVIC_PREEMPTION_PRIORITY(PreemptPriority));
  
  prioritygroup = NVIC_GetPriorityGrouping();
  
  NVIC_SetPriority(IRQn, NVIC_EncodePriority(prioritygroup, PreemptPriority, SubPriority));
}
 8003a68:	bc30      	pop	{r4, r5}
 8003a6a:	4770      	bx	lr
  SubPriorityBits     = ((PriorityGroupTmp + (uint32_t)(__NVIC_PRIO_BITS)) < (uint32_t)7UL) ? (uint32_t)0UL : (uint32_t)((PriorityGroupTmp - 7UL) + (uint32_t)(__NVIC_PRIO_BITS));
 8003a6c:	2300      	movs	r3, #0
 8003a6e:	e7e5      	b.n	8003a3c <HAL_NVIC_SetPriority+0x1c>
    SCB->SHP[(((uint32_t)IRQn) & 0xFUL)-4UL] = (uint8_t)((priority << (8U - __NVIC_PRIO_BITS)) & (uint32_t)0xFFUL);
 8003a70:	f000 000f 	and.w	r0, r0, #15
 8003a74:	0109      	lsls	r1, r1, #4
 8003a76:	b2c9      	uxtb	r1, r1
 8003a78:	4b02      	ldr	r3, [pc, #8]	; (8003a84 <HAL_NVIC_SetPriority+0x64>)
 8003a7a:	5419      	strb	r1, [r3, r0]
 8003a7c:	e7f4      	b.n	8003a68 <HAL_NVIC_SetPriority+0x48>
 8003a7e:	bf00      	nop
 8003a80:	e000ed00 	.word	0xe000ed00
 8003a84:	e000ed14 	.word	0xe000ed14

08003a88 <HAL_NVIC_EnableIRQ>:
  if ((int32_t)(IRQn) >= 0)
 8003a88:	2800      	cmp	r0, #0
 8003a8a:	db07      	blt.n	8003a9c <HAL_NVIC_EnableIRQ+0x14>
    NVIC->ISER[(((uint32_t)IRQn) >> 5UL)] = (uint32_t)(1UL << (((uint32_t)IRQn) & 0x1FUL));
 8003a8c:	f000 021f 	and.w	r2, r0, #31
 8003a90:	0940      	lsrs	r0, r0, #5
 8003a92:	2301      	movs	r3, #1
 8003a94:	4093      	lsls	r3, r2
 8003a96:	4a02      	ldr	r2, [pc, #8]	; (8003aa0 <HAL_NVIC_EnableIRQ+0x18>)
 8003a98:	f842 3020 	str.w	r3, [r2, r0, lsl #2]
  /* Check the parameters */
  assert_param(IS_NVIC_DEVICE_IRQ(IRQn));
  
  /* Enable interrupt */
  NVIC_EnableIRQ(IRQn);
}
 8003a9c:	4770      	bx	lr
 8003a9e:	bf00      	nop
 8003aa0:	e000e100 	.word	0xe000e100

08003aa4 <HAL_SYSTICK_Config>:
           function <b>SysTick_Config</b> is not included. In this case, the file <b><i>device</i>.h</b>
           must contain a vendor-specific implementation of this function.
 */
__STATIC_INLINE uint32_t SysTick_Config(uint32_t ticks)
{
  if ((ticks - 1UL) > SysTick_LOAD_RELOAD_Msk)
 8003aa4:	3801      	subs	r0, #1
 8003aa6:	f1b0 7f80 	cmp.w	r0, #16777216	; 0x1000000
 8003aaa:	d20a      	bcs.n	8003ac2 <HAL_SYSTICK_Config+0x1e>
  {
    return (1UL);                                                   /* Reload value impossible */
  }

  SysTick->LOAD  = (uint32_t)(ticks - 1UL);                         /* set reload register */
 8003aac:	4b06      	ldr	r3, [pc, #24]	; (8003ac8 <HAL_SYSTICK_Config+0x24>)
 8003aae:	6058      	str	r0, [r3, #4]
    SCB->SHP[(((uint32_t)IRQn) & 0xFUL)-4UL] = (uint8_t)((priority << (8U - __NVIC_PRIO_BITS)) & (uint32_t)0xFFUL);
 8003ab0:	4a06      	ldr	r2, [pc, #24]	; (8003acc <HAL_SYSTICK_Config+0x28>)
 8003ab2:	21f0      	movs	r1, #240	; 0xf0
 8003ab4:	f882 1023 	strb.w	r1, [r2, #35]	; 0x23
  NVIC_SetPriority (SysTick_IRQn, (1UL << __NVIC_PRIO_BITS) - 1UL); /* set Priority for Systick Interrupt */
  SysTick->VAL   = 0UL;                                             /* Load the SysTick Counter Value */
 8003ab8:	2000      	movs	r0, #0
 8003aba:	6098      	str	r0, [r3, #8]
  SysTick->CTRL  = SysTick_CTRL_CLKSOURCE_Msk |
 8003abc:	2207      	movs	r2, #7
 8003abe:	601a      	str	r2, [r3, #0]
 8003ac0:	4770      	bx	lr
    return (1UL);                                                   /* Reload value impossible */
 8003ac2:	2001      	movs	r0, #1
  *                  - 1  Function failed.
  */
uint32_t HAL_SYSTICK_Config(uint32_t TicksNumb)
{
   return SysTick_Config(TicksNumb);
}
 8003ac4:	4770      	bx	lr
 8003ac6:	bf00      	nop
 8003ac8:	e000e010 	.word	0xe000e010
 8003acc:	e000ed00 	.word	0xe000ed00

08003ad0 <DMA_CalcBaseAndBitshift>:
  *                     the configuration information for the specified DMA Stream. 
  * @retval Stream base address
  */
static uint32_t DMA_CalcBaseAndBitshift(DMA_HandleTypeDef *hdma)
{
  uint32_t stream_number = (((uint32_t)hdma->Instance & 0xFFU) - 16U) / 24U;
 8003ad0:	6802      	ldr	r2, [r0, #0]
 8003ad2:	b2d3      	uxtb	r3, r2
 8003ad4:	3b10      	subs	r3, #16
 8003ad6:	490b      	ldr	r1, [pc, #44]	; (8003b04 <DMA_CalcBaseAndBitshift+0x34>)
 8003ad8:	fba1 1303 	umull	r1, r3, r1, r3
 8003adc:	091b      	lsrs	r3, r3, #4
  
  /* lookup table for necessary bitshift of flags within status registers */
  static const uint8_t flagBitshiftOffset[8U] = {0U, 6U, 16U, 22U, 0U, 6U, 16U, 22U};
  hdma->StreamIndex = flagBitshiftOffset[stream_number];
 8003ade:	490a      	ldr	r1, [pc, #40]	; (8003b08 <DMA_CalcBaseAndBitshift+0x38>)
 8003ae0:	5cc9      	ldrb	r1, [r1, r3]
 8003ae2:	65c1      	str	r1, [r0, #92]	; 0x5c
  
  if (stream_number > 3U)
 8003ae4:	2b03      	cmp	r3, #3
 8003ae6:	d806      	bhi.n	8003af6 <DMA_CalcBaseAndBitshift+0x26>
    hdma->StreamBaseAddress = (((uint32_t)hdma->Instance & (uint32_t)(~0x3FFU)) + 4U);
  }
  else
  {
    /* return pointer to LISR and LIFCR */
    hdma->StreamBaseAddress = ((uint32_t)hdma->Instance & (uint32_t)(~0x3FFU));
 8003ae8:	f422 727f 	bic.w	r2, r2, #1020	; 0x3fc
 8003aec:	f022 0203 	bic.w	r2, r2, #3
 8003af0:	6582      	str	r2, [r0, #88]	; 0x58
  }
  
  return hdma->StreamBaseAddress;
}
 8003af2:	6d80      	ldr	r0, [r0, #88]	; 0x58
 8003af4:	4770      	bx	lr
    hdma->StreamBaseAddress = (((uint32_t)hdma->Instance & (uint32_t)(~0x3FFU)) + 4U);
 8003af6:	f422 727f 	bic.w	r2, r2, #1020	; 0x3fc
 8003afa:	f022 0203 	bic.w	r2, r2, #3
 8003afe:	3204      	adds	r2, #4
 8003b00:	6582      	str	r2, [r0, #88]	; 0x58
 8003b02:	e7f6      	b.n	8003af2 <DMA_CalcBaseAndBitshift+0x22>
 8003b04:	aaaaaaab 	.word	0xaaaaaaab
 8003b08:	0800c2e0 	.word	0x0800c2e0

08003b0c <DMA_CheckFifoParam>:
  * @retval HAL status
  */
static HAL_StatusTypeDef DMA_CheckFifoParam(DMA_HandleTypeDef *hdma)
{
  HAL_StatusTypeDef status = HAL_OK;
  uint32_t tmp = hdma->Init.FIFOThreshold;
 8003b0c:	6a83      	ldr	r3, [r0, #40]	; 0x28
  
  /* Memory Data size equal to Byte */
  if(hdma->Init.MemDataAlignment == DMA_MDATAALIGN_BYTE)
 8003b0e:	6982      	ldr	r2, [r0, #24]
 8003b10:	b992      	cbnz	r2, 8003b38 <DMA_CheckFifoParam+0x2c>
  {
    switch (tmp)
 8003b12:	2b01      	cmp	r3, #1
 8003b14:	d00a      	beq.n	8003b2c <DMA_CheckFifoParam+0x20>
 8003b16:	b11b      	cbz	r3, 8003b20 <DMA_CheckFifoParam+0x14>
 8003b18:	2b02      	cmp	r3, #2
 8003b1a:	d001      	beq.n	8003b20 <DMA_CheckFifoParam+0x14>
  HAL_StatusTypeDef status = HAL_OK;
 8003b1c:	2000      	movs	r0, #0
 8003b1e:	4770      	bx	lr
    {
    case DMA_FIFO_THRESHOLD_1QUARTERFULL:
    case DMA_FIFO_THRESHOLD_3QUARTERSFULL:
      if ((hdma->Init.MemBurst & DMA_SxCR_MBURST_1) == DMA_SxCR_MBURST_1)
 8003b20:	6ac3      	ldr	r3, [r0, #44]	; 0x2c
 8003b22:	f013 7f80 	tst.w	r3, #16777216	; 0x1000000
 8003b26:	d12c      	bne.n	8003b82 <DMA_CheckFifoParam+0x76>
  HAL_StatusTypeDef status = HAL_OK;
 8003b28:	2000      	movs	r0, #0
 8003b2a:	4770      	bx	lr
      {
        status = HAL_ERROR;
      }
      break;
    case DMA_FIFO_THRESHOLD_HALFFULL:
      if (hdma->Init.MemBurst == DMA_MBURST_INC16)
 8003b2c:	6ac3      	ldr	r3, [r0, #44]	; 0x2c
 8003b2e:	f1b3 7fc0 	cmp.w	r3, #25165824	; 0x1800000
 8003b32:	d028      	beq.n	8003b86 <DMA_CheckFifoParam+0x7a>
  HAL_StatusTypeDef status = HAL_OK;
 8003b34:	2000      	movs	r0, #0
 8003b36:	4770      	bx	lr
      break;
    }
  }
  
  /* Memory Data size equal to Half-Word */
  else if (hdma->Init.MemDataAlignment == DMA_MDATAALIGN_HALFWORD)
 8003b38:	f5b2 5f00 	cmp.w	r2, #8192	; 0x2000
 8003b3c:	d005      	beq.n	8003b4a <DMA_CheckFifoParam+0x3e>
  }
  
  /* Memory Data size equal to Word */
  else
  {
    switch (tmp)
 8003b3e:	2b02      	cmp	r3, #2
 8003b40:	d929      	bls.n	8003b96 <DMA_CheckFifoParam+0x8a>
 8003b42:	2b03      	cmp	r3, #3
 8003b44:	d015      	beq.n	8003b72 <DMA_CheckFifoParam+0x66>
  HAL_StatusTypeDef status = HAL_OK;
 8003b46:	2000      	movs	r0, #0
 8003b48:	4770      	bx	lr
    switch (tmp)
 8003b4a:	2b03      	cmp	r3, #3
 8003b4c:	d803      	bhi.n	8003b56 <DMA_CheckFifoParam+0x4a>
 8003b4e:	e8df f003 	tbb	[pc, r3]
 8003b52:	041c      	.short	0x041c
 8003b54:	0a1c      	.short	0x0a1c
  HAL_StatusTypeDef status = HAL_OK;
 8003b56:	2000      	movs	r0, #0
 8003b58:	4770      	bx	lr
      if ((hdma->Init.MemBurst & DMA_SxCR_MBURST_1) == DMA_SxCR_MBURST_1)
 8003b5a:	6ac3      	ldr	r3, [r0, #44]	; 0x2c
 8003b5c:	f013 7f80 	tst.w	r3, #16777216	; 0x1000000
 8003b60:	d115      	bne.n	8003b8e <DMA_CheckFifoParam+0x82>
  HAL_StatusTypeDef status = HAL_OK;
 8003b62:	2000      	movs	r0, #0
 8003b64:	4770      	bx	lr
      if (hdma->Init.MemBurst == DMA_MBURST_INC16)
 8003b66:	6ac3      	ldr	r3, [r0, #44]	; 0x2c
 8003b68:	f1b3 7fc0 	cmp.w	r3, #25165824	; 0x1800000
 8003b6c:	d011      	beq.n	8003b92 <DMA_CheckFifoParam+0x86>
  HAL_StatusTypeDef status = HAL_OK;
 8003b6e:	2000      	movs	r0, #0
 8003b70:	4770      	bx	lr
    case DMA_FIFO_THRESHOLD_HALFFULL:
    case DMA_FIFO_THRESHOLD_3QUARTERSFULL:
      status = HAL_ERROR;
      break;
    case DMA_FIFO_THRESHOLD_FULL:
      if ((hdma->Init.MemBurst & DMA_SxCR_MBURST_1) == DMA_SxCR_MBURST_1)
 8003b72:	6ac3      	ldr	r3, [r0, #44]	; 0x2c
 8003b74:	f013 7f80 	tst.w	r3, #16777216	; 0x1000000
 8003b78:	d001      	beq.n	8003b7e <DMA_CheckFifoParam+0x72>
      {
        status = HAL_ERROR;
 8003b7a:	2001      	movs	r0, #1
      break;
    }
  } 
  
  return status; 
}
 8003b7c:	4770      	bx	lr
  HAL_StatusTypeDef status = HAL_OK;
 8003b7e:	2000      	movs	r0, #0
 8003b80:	4770      	bx	lr
        status = HAL_ERROR;
 8003b82:	2001      	movs	r0, #1
 8003b84:	4770      	bx	lr
        status = HAL_ERROR;
 8003b86:	2001      	movs	r0, #1
 8003b88:	4770      	bx	lr
      status = HAL_ERROR;
 8003b8a:	2001      	movs	r0, #1
 8003b8c:	4770      	bx	lr
        status = HAL_ERROR;
 8003b8e:	2001      	movs	r0, #1
 8003b90:	4770      	bx	lr
        status = HAL_ERROR;
 8003b92:	2001      	movs	r0, #1
 8003b94:	4770      	bx	lr
      status = HAL_ERROR;
 8003b96:	2001      	movs	r0, #1
 8003b98:	4770      	bx	lr
	...

08003b9c <HAL_DMA_Init>:
{
 8003b9c:	b570      	push	{r4, r5, r6, lr}
 8003b9e:	4604      	mov	r4, r0
  uint32_t tickstart = HAL_GetTick();
 8003ba0:	f7ff fd7a 	bl	8003698 <HAL_GetTick>
  if(hdma == NULL)
 8003ba4:	2c00      	cmp	r4, #0
 8003ba6:	d05b      	beq.n	8003c60 <HAL_DMA_Init+0xc4>
 8003ba8:	4605      	mov	r5, r0
  __HAL_UNLOCK(hdma);
 8003baa:	2300      	movs	r3, #0
 8003bac:	f884 3034 	strb.w	r3, [r4, #52]	; 0x34
  hdma->State = HAL_DMA_STATE_BUSY;
 8003bb0:	2302      	movs	r3, #2
 8003bb2:	f884 3035 	strb.w	r3, [r4, #53]	; 0x35
  __HAL_DMA_DISABLE(hdma);
 8003bb6:	6822      	ldr	r2, [r4, #0]
 8003bb8:	6813      	ldr	r3, [r2, #0]
 8003bba:	f023 0301 	bic.w	r3, r3, #1
 8003bbe:	6013      	str	r3, [r2, #0]
  while((hdma->Instance->CR & DMA_SxCR_EN) != RESET)
 8003bc0:	6823      	ldr	r3, [r4, #0]
 8003bc2:	681a      	ldr	r2, [r3, #0]
 8003bc4:	f012 0f01 	tst.w	r2, #1
 8003bc8:	d00a      	beq.n	8003be0 <HAL_DMA_Init+0x44>
    if((HAL_GetTick() - tickstart ) > HAL_TIMEOUT_DMA_ABORT)
 8003bca:	f7ff fd65 	bl	8003698 <HAL_GetTick>
 8003bce:	1b40      	subs	r0, r0, r5
 8003bd0:	2805      	cmp	r0, #5
 8003bd2:	d9f5      	bls.n	8003bc0 <HAL_DMA_Init+0x24>
      hdma->ErrorCode = HAL_DMA_ERROR_TIMEOUT;
 8003bd4:	2320      	movs	r3, #32
 8003bd6:	6563      	str	r3, [r4, #84]	; 0x54
      hdma->State = HAL_DMA_STATE_TIMEOUT;
 8003bd8:	2003      	movs	r0, #3
 8003bda:	f884 0035 	strb.w	r0, [r4, #53]	; 0x35
}
 8003bde:	bd70      	pop	{r4, r5, r6, pc}
  tmp = hdma->Instance->CR;
 8003be0:	681a      	ldr	r2, [r3, #0]
  tmp &= ((uint32_t)~(DMA_SxCR_CHSEL | DMA_SxCR_MBURST | DMA_SxCR_PBURST | \
 8003be2:	4820      	ldr	r0, [pc, #128]	; (8003c64 <HAL_DMA_Init+0xc8>)
 8003be4:	4010      	ands	r0, r2
  tmp |=  hdma->Init.Channel             | hdma->Init.Direction        |
 8003be6:	6861      	ldr	r1, [r4, #4]
 8003be8:	68a2      	ldr	r2, [r4, #8]
 8003bea:	430a      	orrs	r2, r1
          hdma->Init.PeriphInc           | hdma->Init.MemInc           |
 8003bec:	68e1      	ldr	r1, [r4, #12]
  tmp |=  hdma->Init.Channel             | hdma->Init.Direction        |
 8003bee:	430a      	orrs	r2, r1
          hdma->Init.PeriphInc           | hdma->Init.MemInc           |
 8003bf0:	6921      	ldr	r1, [r4, #16]
 8003bf2:	430a      	orrs	r2, r1
          hdma->Init.PeriphDataAlignment | hdma->Init.MemDataAlignment |
 8003bf4:	6961      	ldr	r1, [r4, #20]
          hdma->Init.PeriphInc           | hdma->Init.MemInc           |
 8003bf6:	430a      	orrs	r2, r1
          hdma->Init.PeriphDataAlignment | hdma->Init.MemDataAlignment |
 8003bf8:	69a1      	ldr	r1, [r4, #24]
 8003bfa:	430a      	orrs	r2, r1
          hdma->Init.Mode                | hdma->Init.Priority;
 8003bfc:	69e1      	ldr	r1, [r4, #28]
          hdma->Init.PeriphDataAlignment | hdma->Init.MemDataAlignment |
 8003bfe:	430a      	orrs	r2, r1
          hdma->Init.Mode                | hdma->Init.Priority;
 8003c00:	6a21      	ldr	r1, [r4, #32]
 8003c02:	430a      	orrs	r2, r1
  tmp |=  hdma->Init.Channel             | hdma->Init.Direction        |
 8003c04:	4302      	orrs	r2, r0
  if(hdma->Init.FIFOMode == DMA_FIFOMODE_ENABLE)
 8003c06:	6a61      	ldr	r1, [r4, #36]	; 0x24
 8003c08:	2904      	cmp	r1, #4
 8003c0a:	d01e      	beq.n	8003c4a <HAL_DMA_Init+0xae>
  hdma->Instance->CR = tmp;  
 8003c0c:	601a      	str	r2, [r3, #0]
  tmp = hdma->Instance->FCR;
 8003c0e:	6826      	ldr	r6, [r4, #0]
 8003c10:	6975      	ldr	r5, [r6, #20]
  tmp &= (uint32_t)~(DMA_SxFCR_DMDIS | DMA_SxFCR_FTH);
 8003c12:	f025 0507 	bic.w	r5, r5, #7
  tmp |= hdma->Init.FIFOMode;
 8003c16:	6a63      	ldr	r3, [r4, #36]	; 0x24
 8003c18:	431d      	orrs	r5, r3
  if(hdma->Init.FIFOMode == DMA_FIFOMODE_ENABLE)
 8003c1a:	2b04      	cmp	r3, #4
 8003c1c:	d107      	bne.n	8003c2e <HAL_DMA_Init+0x92>
    tmp |= hdma->Init.FIFOThreshold;
 8003c1e:	6aa3      	ldr	r3, [r4, #40]	; 0x28
 8003c20:	431d      	orrs	r5, r3
    if (hdma->Init.MemBurst != DMA_MBURST_SINGLE)
 8003c22:	6ae3      	ldr	r3, [r4, #44]	; 0x2c
 8003c24:	b11b      	cbz	r3, 8003c2e <HAL_DMA_Init+0x92>
      if (DMA_CheckFifoParam(hdma) != HAL_OK)
 8003c26:	4620      	mov	r0, r4
 8003c28:	f7ff ff70 	bl	8003b0c <DMA_CheckFifoParam>
 8003c2c:	b990      	cbnz	r0, 8003c54 <HAL_DMA_Init+0xb8>
  hdma->Instance->FCR = tmp;
 8003c2e:	6175      	str	r5, [r6, #20]
  regs = (DMA_Base_Registers *)DMA_CalcBaseAndBitshift(hdma);
 8003c30:	4620      	mov	r0, r4
 8003c32:	f7ff ff4d 	bl	8003ad0 <DMA_CalcBaseAndBitshift>
  regs->IFCR = 0x3FU << hdma->StreamIndex;
 8003c36:	6de2      	ldr	r2, [r4, #92]	; 0x5c
 8003c38:	233f      	movs	r3, #63	; 0x3f
 8003c3a:	4093      	lsls	r3, r2
 8003c3c:	6083      	str	r3, [r0, #8]
  hdma->ErrorCode = HAL_DMA_ERROR_NONE;
 8003c3e:	2000      	movs	r0, #0
 8003c40:	6560      	str	r0, [r4, #84]	; 0x54
  hdma->State = HAL_DMA_STATE_READY;
 8003c42:	2301      	movs	r3, #1
 8003c44:	f884 3035 	strb.w	r3, [r4, #53]	; 0x35
  return HAL_OK;
 8003c48:	e7c9      	b.n	8003bde <HAL_DMA_Init+0x42>
    tmp |=  hdma->Init.MemBurst | hdma->Init.PeriphBurst;
 8003c4a:	6ae1      	ldr	r1, [r4, #44]	; 0x2c
 8003c4c:	6b20      	ldr	r0, [r4, #48]	; 0x30
 8003c4e:	4301      	orrs	r1, r0
 8003c50:	430a      	orrs	r2, r1
 8003c52:	e7db      	b.n	8003c0c <HAL_DMA_Init+0x70>
        hdma->ErrorCode = HAL_DMA_ERROR_PARAM;
 8003c54:	2340      	movs	r3, #64	; 0x40
 8003c56:	6563      	str	r3, [r4, #84]	; 0x54
        hdma->State = HAL_DMA_STATE_READY;
 8003c58:	2001      	movs	r0, #1
 8003c5a:	f884 0035 	strb.w	r0, [r4, #53]	; 0x35
        return HAL_ERROR; 
 8003c5e:	e7be      	b.n	8003bde <HAL_DMA_Init+0x42>
    return HAL_ERROR;
 8003c60:	2001      	movs	r0, #1
 8003c62:	e7bc      	b.n	8003bde <HAL_DMA_Init+0x42>
 8003c64:	f010803f 	.word	0xf010803f

08003c68 <HAL_DMA_Abort_IT>:
  if(hdma->State != HAL_DMA_STATE_BUSY)
 8003c68:	f890 3035 	ldrb.w	r3, [r0, #53]	; 0x35
 8003c6c:	b2db      	uxtb	r3, r3
 8003c6e:	2b02      	cmp	r3, #2
 8003c70:	d003      	beq.n	8003c7a <HAL_DMA_Abort_IT+0x12>
    hdma->ErrorCode = HAL_DMA_ERROR_NO_XFER;
 8003c72:	2380      	movs	r3, #128	; 0x80
 8003c74:	6543      	str	r3, [r0, #84]	; 0x54
    return HAL_ERROR;
 8003c76:	2001      	movs	r0, #1
 8003c78:	4770      	bx	lr
    hdma->State = HAL_DMA_STATE_ABORT;
 8003c7a:	2305      	movs	r3, #5
 8003c7c:	f880 3035 	strb.w	r3, [r0, #53]	; 0x35
    __HAL_DMA_DISABLE(hdma);
 8003c80:	6802      	ldr	r2, [r0, #0]
 8003c82:	6813      	ldr	r3, [r2, #0]
 8003c84:	f023 0301 	bic.w	r3, r3, #1
 8003c88:	6013      	str	r3, [r2, #0]
  return HAL_OK;
 8003c8a:	2000      	movs	r0, #0
}
 8003c8c:	4770      	bx	lr
	...

08003c90 <HAL_DMA_IRQHandler>:
{
 8003c90:	b5f0      	push	{r4, r5, r6, r7, lr}
 8003c92:	b083      	sub	sp, #12
 8003c94:	4604      	mov	r4, r0
  __IO uint32_t count = 0U;
 8003c96:	2300      	movs	r3, #0
 8003c98:	9301      	str	r3, [sp, #4]
  uint32_t timeout = SystemCoreClock / 9600U;
 8003c9a:	4b72      	ldr	r3, [pc, #456]	; (8003e64 <HAL_DMA_IRQHandler+0x1d4>)
 8003c9c:	681d      	ldr	r5, [r3, #0]
 8003c9e:	4b72      	ldr	r3, [pc, #456]	; (8003e68 <HAL_DMA_IRQHandler+0x1d8>)
 8003ca0:	fba3 3505 	umull	r3, r5, r3, r5
 8003ca4:	0aad      	lsrs	r5, r5, #10
  DMA_Base_Registers *regs = (DMA_Base_Registers *)hdma->StreamBaseAddress;
 8003ca6:	6d87      	ldr	r7, [r0, #88]	; 0x58
  tmpisr = regs->ISR;
 8003ca8:	683e      	ldr	r6, [r7, #0]
  if ((tmpisr & (DMA_FLAG_TEIF0_4 << hdma->StreamIndex)) != RESET)
 8003caa:	6dc2      	ldr	r2, [r0, #92]	; 0x5c
 8003cac:	2308      	movs	r3, #8
 8003cae:	4093      	lsls	r3, r2
 8003cb0:	4233      	tst	r3, r6
 8003cb2:	d010      	beq.n	8003cd6 <HAL_DMA_IRQHandler+0x46>
    if(__HAL_DMA_GET_IT_SOURCE(hdma, DMA_IT_TE) != RESET)
 8003cb4:	6803      	ldr	r3, [r0, #0]
 8003cb6:	681a      	ldr	r2, [r3, #0]
 8003cb8:	f012 0f04 	tst.w	r2, #4
 8003cbc:	d00b      	beq.n	8003cd6 <HAL_DMA_IRQHandler+0x46>
      hdma->Instance->CR  &= ~(DMA_IT_TE);
 8003cbe:	681a      	ldr	r2, [r3, #0]
 8003cc0:	f022 0204 	bic.w	r2, r2, #4
 8003cc4:	601a      	str	r2, [r3, #0]
      regs->IFCR = DMA_FLAG_TEIF0_4 << hdma->StreamIndex;
 8003cc6:	6dc2      	ldr	r2, [r0, #92]	; 0x5c
 8003cc8:	2308      	movs	r3, #8
 8003cca:	4093      	lsls	r3, r2
 8003ccc:	60bb      	str	r3, [r7, #8]
      hdma->ErrorCode |= HAL_DMA_ERROR_TE;
 8003cce:	6d43      	ldr	r3, [r0, #84]	; 0x54
 8003cd0:	f043 0301 	orr.w	r3, r3, #1
 8003cd4:	6543      	str	r3, [r0, #84]	; 0x54
  if ((tmpisr & (DMA_FLAG_FEIF0_4 << hdma->StreamIndex)) != RESET)
 8003cd6:	6de2      	ldr	r2, [r4, #92]	; 0x5c
 8003cd8:	2301      	movs	r3, #1
 8003cda:	4093      	lsls	r3, r2
 8003cdc:	4233      	tst	r3, r6
 8003cde:	d009      	beq.n	8003cf4 <HAL_DMA_IRQHandler+0x64>
    if(__HAL_DMA_GET_IT_SOURCE(hdma, DMA_IT_FE) != RESET)
 8003ce0:	6822      	ldr	r2, [r4, #0]
 8003ce2:	6952      	ldr	r2, [r2, #20]
 8003ce4:	f012 0f80 	tst.w	r2, #128	; 0x80
 8003ce8:	d004      	beq.n	8003cf4 <HAL_DMA_IRQHandler+0x64>
      regs->IFCR = DMA_FLAG_FEIF0_4 << hdma->StreamIndex;
 8003cea:	60bb      	str	r3, [r7, #8]
      hdma->ErrorCode |= HAL_DMA_ERROR_FE;
 8003cec:	6d63      	ldr	r3, [r4, #84]	; 0x54
 8003cee:	f043 0302 	orr.w	r3, r3, #2
 8003cf2:	6563      	str	r3, [r4, #84]	; 0x54
  if ((tmpisr & (DMA_FLAG_DMEIF0_4 << hdma->StreamIndex)) != RESET)
 8003cf4:	6de2      	ldr	r2, [r4, #92]	; 0x5c
 8003cf6:	2304      	movs	r3, #4
 8003cf8:	4093      	lsls	r3, r2
 8003cfa:	4233      	tst	r3, r6
 8003cfc:	d009      	beq.n	8003d12 <HAL_DMA_IRQHandler+0x82>
    if(__HAL_DMA_GET_IT_SOURCE(hdma, DMA_IT_DME) != RESET)
 8003cfe:	6822      	ldr	r2, [r4, #0]
 8003d00:	6812      	ldr	r2, [r2, #0]
 8003d02:	f012 0f02 	tst.w	r2, #2
 8003d06:	d004      	beq.n	8003d12 <HAL_DMA_IRQHandler+0x82>
      regs->IFCR = DMA_FLAG_DMEIF0_4 << hdma->StreamIndex;
 8003d08:	60bb      	str	r3, [r7, #8]
      hdma->ErrorCode |= HAL_DMA_ERROR_DME;
 8003d0a:	6d63      	ldr	r3, [r4, #84]	; 0x54
 8003d0c:	f043 0304 	orr.w	r3, r3, #4
 8003d10:	6563      	str	r3, [r4, #84]	; 0x54
  if ((tmpisr & (DMA_FLAG_HTIF0_4 << hdma->StreamIndex)) != RESET)
 8003d12:	6de2      	ldr	r2, [r4, #92]	; 0x5c
 8003d14:	2310      	movs	r3, #16
 8003d16:	4093      	lsls	r3, r2
 8003d18:	4233      	tst	r3, r6
 8003d1a:	d024      	beq.n	8003d66 <HAL_DMA_IRQHandler+0xd6>
    if(__HAL_DMA_GET_IT_SOURCE(hdma, DMA_IT_HT) != RESET)
 8003d1c:	6822      	ldr	r2, [r4, #0]
 8003d1e:	6812      	ldr	r2, [r2, #0]
 8003d20:	f012 0f08 	tst.w	r2, #8
 8003d24:	d01f      	beq.n	8003d66 <HAL_DMA_IRQHandler+0xd6>
      regs->IFCR = DMA_FLAG_HTIF0_4 << hdma->StreamIndex;
 8003d26:	60bb      	str	r3, [r7, #8]
      if(((hdma->Instance->CR) & (uint32_t)(DMA_SxCR_DBM)) != RESET)
 8003d28:	6823      	ldr	r3, [r4, #0]
 8003d2a:	681a      	ldr	r2, [r3, #0]
 8003d2c:	f412 2f80 	tst.w	r2, #262144	; 0x40000
 8003d30:	d00d      	beq.n	8003d4e <HAL_DMA_IRQHandler+0xbe>
        if((hdma->Instance->CR & DMA_SxCR_CT) == RESET)
 8003d32:	681b      	ldr	r3, [r3, #0]
 8003d34:	f413 2f00 	tst.w	r3, #524288	; 0x80000
 8003d38:	d104      	bne.n	8003d44 <HAL_DMA_IRQHandler+0xb4>
          if(hdma->XferHalfCpltCallback != NULL)
 8003d3a:	6c23      	ldr	r3, [r4, #64]	; 0x40
 8003d3c:	b19b      	cbz	r3, 8003d66 <HAL_DMA_IRQHandler+0xd6>
            hdma->XferHalfCpltCallback(hdma);
 8003d3e:	4620      	mov	r0, r4
 8003d40:	4798      	blx	r3
 8003d42:	e010      	b.n	8003d66 <HAL_DMA_IRQHandler+0xd6>
          if(hdma->XferM1HalfCpltCallback != NULL)
 8003d44:	6ca3      	ldr	r3, [r4, #72]	; 0x48
 8003d46:	b173      	cbz	r3, 8003d66 <HAL_DMA_IRQHandler+0xd6>
            hdma->XferM1HalfCpltCallback(hdma);
 8003d48:	4620      	mov	r0, r4
 8003d4a:	4798      	blx	r3
 8003d4c:	e00b      	b.n	8003d66 <HAL_DMA_IRQHandler+0xd6>
        if((hdma->Instance->CR & DMA_SxCR_CIRC) == RESET)
 8003d4e:	681a      	ldr	r2, [r3, #0]
 8003d50:	f412 7f80 	tst.w	r2, #256	; 0x100
 8003d54:	d103      	bne.n	8003d5e <HAL_DMA_IRQHandler+0xce>
          hdma->Instance->CR  &= ~(DMA_IT_HT);
 8003d56:	681a      	ldr	r2, [r3, #0]
 8003d58:	f022 0208 	bic.w	r2, r2, #8
 8003d5c:	601a      	str	r2, [r3, #0]
        if(hdma->XferHalfCpltCallback != NULL)
 8003d5e:	6c23      	ldr	r3, [r4, #64]	; 0x40
 8003d60:	b10b      	cbz	r3, 8003d66 <HAL_DMA_IRQHandler+0xd6>
          hdma->XferHalfCpltCallback(hdma);
 8003d62:	4620      	mov	r0, r4
 8003d64:	4798      	blx	r3
  if ((tmpisr & (DMA_FLAG_TCIF0_4 << hdma->StreamIndex)) != RESET)
 8003d66:	6de2      	ldr	r2, [r4, #92]	; 0x5c
 8003d68:	2320      	movs	r3, #32
 8003d6a:	4093      	lsls	r3, r2
 8003d6c:	4233      	tst	r3, r6
 8003d6e:	d055      	beq.n	8003e1c <HAL_DMA_IRQHandler+0x18c>
    if(__HAL_DMA_GET_IT_SOURCE(hdma, DMA_IT_TC) != RESET)
 8003d70:	6822      	ldr	r2, [r4, #0]
 8003d72:	6812      	ldr	r2, [r2, #0]
 8003d74:	f012 0f10 	tst.w	r2, #16
 8003d78:	d050      	beq.n	8003e1c <HAL_DMA_IRQHandler+0x18c>
      regs->IFCR = DMA_FLAG_TCIF0_4 << hdma->StreamIndex;
 8003d7a:	60bb      	str	r3, [r7, #8]
      if(HAL_DMA_STATE_ABORT == hdma->State)
 8003d7c:	f894 3035 	ldrb.w	r3, [r4, #53]	; 0x35
 8003d80:	b2db      	uxtb	r3, r3
 8003d82:	2b05      	cmp	r3, #5
 8003d84:	d00e      	beq.n	8003da4 <HAL_DMA_IRQHandler+0x114>
      if(((hdma->Instance->CR) & (uint32_t)(DMA_SxCR_DBM)) != RESET)
 8003d86:	6823      	ldr	r3, [r4, #0]
 8003d88:	681a      	ldr	r2, [r3, #0]
 8003d8a:	f412 2f80 	tst.w	r2, #262144	; 0x40000
 8003d8e:	d033      	beq.n	8003df8 <HAL_DMA_IRQHandler+0x168>
        if((hdma->Instance->CR & DMA_SxCR_CT) == RESET)
 8003d90:	681b      	ldr	r3, [r3, #0]
 8003d92:	f413 2f00 	tst.w	r3, #524288	; 0x80000
 8003d96:	d12a      	bne.n	8003dee <HAL_DMA_IRQHandler+0x15e>
          if(hdma->XferM1CpltCallback != NULL)
 8003d98:	6c63      	ldr	r3, [r4, #68]	; 0x44
 8003d9a:	2b00      	cmp	r3, #0
 8003d9c:	d03e      	beq.n	8003e1c <HAL_DMA_IRQHandler+0x18c>
            hdma->XferM1CpltCallback(hdma);
 8003d9e:	4620      	mov	r0, r4
 8003da0:	4798      	blx	r3
 8003da2:	e03b      	b.n	8003e1c <HAL_DMA_IRQHandler+0x18c>
        hdma->Instance->CR  &= ~(DMA_IT_TC | DMA_IT_TE | DMA_IT_DME);
 8003da4:	6822      	ldr	r2, [r4, #0]
 8003da6:	6813      	ldr	r3, [r2, #0]
 8003da8:	f023 0316 	bic.w	r3, r3, #22
 8003dac:	6013      	str	r3, [r2, #0]
        hdma->Instance->FCR &= ~(DMA_IT_FE);
 8003dae:	6822      	ldr	r2, [r4, #0]
 8003db0:	6953      	ldr	r3, [r2, #20]
 8003db2:	f023 0380 	bic.w	r3, r3, #128	; 0x80
 8003db6:	6153      	str	r3, [r2, #20]
        if((hdma->XferHalfCpltCallback != NULL) || (hdma->XferM1HalfCpltCallback != NULL))
 8003db8:	6c23      	ldr	r3, [r4, #64]	; 0x40
 8003dba:	b1a3      	cbz	r3, 8003de6 <HAL_DMA_IRQHandler+0x156>
          hdma->Instance->CR  &= ~(DMA_IT_HT);
 8003dbc:	6822      	ldr	r2, [r4, #0]
 8003dbe:	6813      	ldr	r3, [r2, #0]
 8003dc0:	f023 0308 	bic.w	r3, r3, #8
 8003dc4:	6013      	str	r3, [r2, #0]
        regs->IFCR = 0x3FU << hdma->StreamIndex;
 8003dc6:	6de2      	ldr	r2, [r4, #92]	; 0x5c
 8003dc8:	233f      	movs	r3, #63	; 0x3f
 8003dca:	4093      	lsls	r3, r2
 8003dcc:	60bb      	str	r3, [r7, #8]
        __HAL_UNLOCK(hdma);
 8003dce:	2300      	movs	r3, #0
 8003dd0:	f884 3034 	strb.w	r3, [r4, #52]	; 0x34
        hdma->State = HAL_DMA_STATE_READY;
 8003dd4:	2301      	movs	r3, #1
 8003dd6:	f884 3035 	strb.w	r3, [r4, #53]	; 0x35
        if(hdma->XferAbortCallback != NULL)
 8003dda:	6d23      	ldr	r3, [r4, #80]	; 0x50
 8003ddc:	2b00      	cmp	r3, #0
 8003dde:	d03f      	beq.n	8003e60 <HAL_DMA_IRQHandler+0x1d0>
          hdma->XferAbortCallback(hdma);
 8003de0:	4620      	mov	r0, r4
 8003de2:	4798      	blx	r3
 8003de4:	e03c      	b.n	8003e60 <HAL_DMA_IRQHandler+0x1d0>
        if((hdma->XferHalfCpltCallback != NULL) || (hdma->XferM1HalfCpltCallback != NULL))
 8003de6:	6ca3      	ldr	r3, [r4, #72]	; 0x48
 8003de8:	2b00      	cmp	r3, #0
 8003dea:	d1e7      	bne.n	8003dbc <HAL_DMA_IRQHandler+0x12c>
 8003dec:	e7eb      	b.n	8003dc6 <HAL_DMA_IRQHandler+0x136>
          if(hdma->XferCpltCallback != NULL)
 8003dee:	6be3      	ldr	r3, [r4, #60]	; 0x3c
 8003df0:	b1a3      	cbz	r3, 8003e1c <HAL_DMA_IRQHandler+0x18c>
            hdma->XferCpltCallback(hdma);
 8003df2:	4620      	mov	r0, r4
 8003df4:	4798      	blx	r3
 8003df6:	e011      	b.n	8003e1c <HAL_DMA_IRQHandler+0x18c>
        if((hdma->Instance->CR & DMA_SxCR_CIRC) == RESET)
 8003df8:	681a      	ldr	r2, [r3, #0]
 8003dfa:	f412 7f80 	tst.w	r2, #256	; 0x100
 8003dfe:	d109      	bne.n	8003e14 <HAL_DMA_IRQHandler+0x184>
          hdma->Instance->CR  &= ~(DMA_IT_TC);
 8003e00:	681a      	ldr	r2, [r3, #0]
 8003e02:	f022 0210 	bic.w	r2, r2, #16
 8003e06:	601a      	str	r2, [r3, #0]
          __HAL_UNLOCK(hdma);
 8003e08:	2300      	movs	r3, #0
 8003e0a:	f884 3034 	strb.w	r3, [r4, #52]	; 0x34
          hdma->State = HAL_DMA_STATE_READY;
 8003e0e:	2301      	movs	r3, #1
 8003e10:	f884 3035 	strb.w	r3, [r4, #53]	; 0x35
        if(hdma->XferCpltCallback != NULL)
 8003e14:	6be3      	ldr	r3, [r4, #60]	; 0x3c
 8003e16:	b10b      	cbz	r3, 8003e1c <HAL_DMA_IRQHandler+0x18c>
          hdma->XferCpltCallback(hdma);
 8003e18:	4620      	mov	r0, r4
 8003e1a:	4798      	blx	r3
  if(hdma->ErrorCode != HAL_DMA_ERROR_NONE)
 8003e1c:	6d63      	ldr	r3, [r4, #84]	; 0x54
 8003e1e:	b1fb      	cbz	r3, 8003e60 <HAL_DMA_IRQHandler+0x1d0>
    if((hdma->ErrorCode & HAL_DMA_ERROR_TE) != RESET)
 8003e20:	6d63      	ldr	r3, [r4, #84]	; 0x54
 8003e22:	f013 0f01 	tst.w	r3, #1
 8003e26:	d017      	beq.n	8003e58 <HAL_DMA_IRQHandler+0x1c8>
      hdma->State = HAL_DMA_STATE_ABORT;
 8003e28:	2305      	movs	r3, #5
 8003e2a:	f884 3035 	strb.w	r3, [r4, #53]	; 0x35
      __HAL_DMA_DISABLE(hdma);
 8003e2e:	6822      	ldr	r2, [r4, #0]
 8003e30:	6813      	ldr	r3, [r2, #0]
 8003e32:	f023 0301 	bic.w	r3, r3, #1
 8003e36:	6013      	str	r3, [r2, #0]
        if (++count > timeout)
 8003e38:	9b01      	ldr	r3, [sp, #4]
 8003e3a:	3301      	adds	r3, #1
 8003e3c:	9301      	str	r3, [sp, #4]
 8003e3e:	42ab      	cmp	r3, r5
 8003e40:	d804      	bhi.n	8003e4c <HAL_DMA_IRQHandler+0x1bc>
      while((hdma->Instance->CR & DMA_SxCR_EN) != RESET);
 8003e42:	6823      	ldr	r3, [r4, #0]
 8003e44:	681b      	ldr	r3, [r3, #0]
 8003e46:	f013 0f01 	tst.w	r3, #1
 8003e4a:	d1f5      	bne.n	8003e38 <HAL_DMA_IRQHandler+0x1a8>
      __HAL_UNLOCK(hdma);
 8003e4c:	2300      	movs	r3, #0
 8003e4e:	f884 3034 	strb.w	r3, [r4, #52]	; 0x34
      hdma->State = HAL_DMA_STATE_READY;
 8003e52:	2301      	movs	r3, #1
 8003e54:	f884 3035 	strb.w	r3, [r4, #53]	; 0x35
    if(hdma->XferErrorCallback != NULL)
 8003e58:	6ce3      	ldr	r3, [r4, #76]	; 0x4c
 8003e5a:	b10b      	cbz	r3, 8003e60 <HAL_DMA_IRQHandler+0x1d0>
      hdma->XferErrorCallback(hdma);
 8003e5c:	4620      	mov	r0, r4
 8003e5e:	4798      	blx	r3
}
 8003e60:	b003      	add	sp, #12
 8003e62:	bdf0      	pop	{r4, r5, r6, r7, pc}
 8003e64:	20000090 	.word	0x20000090
 8003e68:	1b4e81b5 	.word	0x1b4e81b5

08003e6c <HAL_GPIO_Init>:
  assert_param(IS_GPIO_PIN(GPIO_Init->Pin));
  assert_param(IS_GPIO_MODE(GPIO_Init->Mode));
  assert_param(IS_GPIO_PULL(GPIO_Init->Pull));

  /* Configure the port pins */
  for(position = 0U; position < GPIO_NUMBER; position++)
 8003e6c:	2300      	movs	r3, #0
 8003e6e:	2b0f      	cmp	r3, #15
 8003e70:	f200 80c5 	bhi.w	8003ffe <HAL_GPIO_Init+0x192>
{
 8003e74:	b4f0      	push	{r4, r5, r6, r7}
 8003e76:	b082      	sub	sp, #8
 8003e78:	e039      	b.n	8003eee <HAL_GPIO_Init+0x82>
        /* Enable SYSCFG Clock */
        __HAL_RCC_SYSCFG_CLK_ENABLE();

        temp = SYSCFG->EXTICR[position >> 2U];
        temp &= ~(0x0FU << (4U * (position & 0x03U)));
        temp |= ((uint32_t)(GPIO_GET_INDEX(GPIOx)) << (4U * (position & 0x03U)));
 8003e7a:	2204      	movs	r2, #4
 8003e7c:	e000      	b.n	8003e80 <HAL_GPIO_Init+0x14>
 8003e7e:	2200      	movs	r2, #0
 8003e80:	40b2      	lsls	r2, r6
 8003e82:	433a      	orrs	r2, r7
        SYSCFG->EXTICR[position >> 2U] = temp;
 8003e84:	3402      	adds	r4, #2
 8003e86:	4e5e      	ldr	r6, [pc, #376]	; (8004000 <HAL_GPIO_Init+0x194>)
 8003e88:	f846 2024 	str.w	r2, [r6, r4, lsl #2]

        /* Clear EXTI line configuration */
        temp = EXTI->IMR;
 8003e8c:	4a5d      	ldr	r2, [pc, #372]	; (8004004 <HAL_GPIO_Init+0x198>)
 8003e8e:	6814      	ldr	r4, [r2, #0]
        temp &= ~((uint32_t)iocurrent);
 8003e90:	43ea      	mvns	r2, r5
 8003e92:	ea02 0604 	and.w	r6, r2, r4
        if((GPIO_Init->Mode & GPIO_MODE_IT) == GPIO_MODE_IT)
 8003e96:	684f      	ldr	r7, [r1, #4]
 8003e98:	f417 3f80 	tst.w	r7, #65536	; 0x10000
 8003e9c:	d001      	beq.n	8003ea2 <HAL_GPIO_Init+0x36>
        {
          temp |= iocurrent;
 8003e9e:	ea45 0604 	orr.w	r6, r5, r4
        }
        EXTI->IMR = temp;
 8003ea2:	4c58      	ldr	r4, [pc, #352]	; (8004004 <HAL_GPIO_Init+0x198>)
 8003ea4:	6026      	str	r6, [r4, #0]

        temp = EXTI->EMR;
 8003ea6:	6864      	ldr	r4, [r4, #4]
        temp &= ~((uint32_t)iocurrent);
 8003ea8:	ea02 0604 	and.w	r6, r2, r4
        if((GPIO_Init->Mode & GPIO_MODE_EVT) == GPIO_MODE_EVT)
 8003eac:	684f      	ldr	r7, [r1, #4]
 8003eae:	f417 3f00 	tst.w	r7, #131072	; 0x20000
 8003eb2:	d001      	beq.n	8003eb8 <HAL_GPIO_Init+0x4c>
        {
          temp |= iocurrent;
 8003eb4:	ea45 0604 	orr.w	r6, r5, r4
        }
        EXTI->EMR = temp;
 8003eb8:	4c52      	ldr	r4, [pc, #328]	; (8004004 <HAL_GPIO_Init+0x198>)
 8003eba:	6066      	str	r6, [r4, #4]

        /* Clear Rising Falling edge configuration */
        temp = EXTI->RTSR;
 8003ebc:	68a4      	ldr	r4, [r4, #8]
        temp &= ~((uint32_t)iocurrent);
 8003ebe:	ea02 0604 	and.w	r6, r2, r4
        if((GPIO_Init->Mode & RISING_EDGE) == RISING_EDGE)
 8003ec2:	684f      	ldr	r7, [r1, #4]
 8003ec4:	f417 1f80 	tst.w	r7, #1048576	; 0x100000
 8003ec8:	d001      	beq.n	8003ece <HAL_GPIO_Init+0x62>
        {
          temp |= iocurrent;
 8003eca:	ea45 0604 	orr.w	r6, r5, r4
        }
        EXTI->RTSR = temp;
 8003ece:	4c4d      	ldr	r4, [pc, #308]	; (8004004 <HAL_GPIO_Init+0x198>)
 8003ed0:	60a6      	str	r6, [r4, #8]

        temp = EXTI->FTSR;
 8003ed2:	68e4      	ldr	r4, [r4, #12]
        temp &= ~((uint32_t)iocurrent);
 8003ed4:	4022      	ands	r2, r4
        if((GPIO_Init->Mode & FALLING_EDGE) == FALLING_EDGE)
 8003ed6:	684e      	ldr	r6, [r1, #4]
 8003ed8:	f416 1f00 	tst.w	r6, #2097152	; 0x200000
 8003edc:	d001      	beq.n	8003ee2 <HAL_GPIO_Init+0x76>
        {
          temp |= iocurrent;
 8003ede:	ea45 0204 	orr.w	r2, r5, r4
        }
        EXTI->FTSR = temp;
 8003ee2:	4c48      	ldr	r4, [pc, #288]	; (8004004 <HAL_GPIO_Init+0x198>)
 8003ee4:	60e2      	str	r2, [r4, #12]
  for(position = 0U; position < GPIO_NUMBER; position++)
 8003ee6:	3301      	adds	r3, #1
 8003ee8:	2b0f      	cmp	r3, #15
 8003eea:	f200 8085 	bhi.w	8003ff8 <HAL_GPIO_Init+0x18c>
    ioposition = 0x01U << position;
 8003eee:	2201      	movs	r2, #1
 8003ef0:	409a      	lsls	r2, r3
    iocurrent = (uint32_t)(GPIO_Init->Pin) & ioposition;
 8003ef2:	680c      	ldr	r4, [r1, #0]
 8003ef4:	ea04 0502 	and.w	r5, r4, r2
    if(iocurrent == ioposition)
 8003ef8:	42aa      	cmp	r2, r5
 8003efa:	d1f4      	bne.n	8003ee6 <HAL_GPIO_Init+0x7a>
      if((GPIO_Init->Mode == GPIO_MODE_AF_PP) || (GPIO_Init->Mode == GPIO_MODE_AF_OD))
 8003efc:	684c      	ldr	r4, [r1, #4]
 8003efe:	2c02      	cmp	r4, #2
 8003f00:	d001      	beq.n	8003f06 <HAL_GPIO_Init+0x9a>
 8003f02:	2c12      	cmp	r4, #18
 8003f04:	d110      	bne.n	8003f28 <HAL_GPIO_Init+0xbc>
        temp = GPIOx->AFR[position >> 3U];
 8003f06:	08de      	lsrs	r6, r3, #3
 8003f08:	3608      	adds	r6, #8
 8003f0a:	f850 c026 	ldr.w	ip, [r0, r6, lsl #2]
        temp &= ~(0xFU << ((uint32_t)(position & 0x07U) * 4U)) ;
 8003f0e:	f003 0407 	and.w	r4, r3, #7
 8003f12:	00a7      	lsls	r7, r4, #2
 8003f14:	240f      	movs	r4, #15
 8003f16:	40bc      	lsls	r4, r7
 8003f18:	ea2c 0c04 	bic.w	ip, ip, r4
        temp |= ((uint32_t)(GPIO_Init->Alternate) << (((uint32_t)position & 0x07U) * 4U));
 8003f1c:	690c      	ldr	r4, [r1, #16]
 8003f1e:	40bc      	lsls	r4, r7
 8003f20:	ea44 040c 	orr.w	r4, r4, ip
        GPIOx->AFR[position >> 3U] = temp;
 8003f24:	f840 4026 	str.w	r4, [r0, r6, lsl #2]
      temp = GPIOx->MODER;
 8003f28:	6804      	ldr	r4, [r0, #0]
      temp &= ~(GPIO_MODER_MODER0 << (position * 2U));
 8003f2a:	005f      	lsls	r7, r3, #1
 8003f2c:	2603      	movs	r6, #3
 8003f2e:	40be      	lsls	r6, r7
 8003f30:	43f6      	mvns	r6, r6
 8003f32:	ea06 0c04 	and.w	ip, r6, r4
      temp |= ((GPIO_Init->Mode & GPIO_MODE) << (position * 2U));
 8003f36:	684c      	ldr	r4, [r1, #4]
 8003f38:	f004 0403 	and.w	r4, r4, #3
 8003f3c:	40bc      	lsls	r4, r7
 8003f3e:	ea44 040c 	orr.w	r4, r4, ip
      GPIOx->MODER = temp;
 8003f42:	6004      	str	r4, [r0, #0]
      if((GPIO_Init->Mode == GPIO_MODE_OUTPUT_PP) || (GPIO_Init->Mode == GPIO_MODE_AF_PP) ||
 8003f44:	684c      	ldr	r4, [r1, #4]
 8003f46:	f104 3cff 	add.w	ip, r4, #4294967295	; 0xffffffff
 8003f4a:	f1bc 0f01 	cmp.w	ip, #1
 8003f4e:	d903      	bls.n	8003f58 <HAL_GPIO_Init+0xec>
 8003f50:	2c11      	cmp	r4, #17
 8003f52:	d001      	beq.n	8003f58 <HAL_GPIO_Init+0xec>
         (GPIO_Init->Mode == GPIO_MODE_OUTPUT_OD) || (GPIO_Init->Mode == GPIO_MODE_AF_OD))
 8003f54:	2c12      	cmp	r4, #18
 8003f56:	d110      	bne.n	8003f7a <HAL_GPIO_Init+0x10e>
        temp = GPIOx->OSPEEDR; 
 8003f58:	6884      	ldr	r4, [r0, #8]
        temp &= ~(GPIO_OSPEEDER_OSPEEDR0 << (position * 2U));
 8003f5a:	ea06 0c04 	and.w	ip, r6, r4
        temp |= (GPIO_Init->Speed << (position * 2U));
 8003f5e:	68cc      	ldr	r4, [r1, #12]
 8003f60:	40bc      	lsls	r4, r7
 8003f62:	ea44 040c 	orr.w	r4, r4, ip
        GPIOx->OSPEEDR = temp;
 8003f66:	6084      	str	r4, [r0, #8]
        temp = GPIOx->OTYPER;
 8003f68:	6844      	ldr	r4, [r0, #4]
        temp &= ~(GPIO_OTYPER_OT_0 << position) ;
 8003f6a:	ea24 0202 	bic.w	r2, r4, r2
        temp |= (((GPIO_Init->Mode & GPIO_OUTPUT_TYPE) >> 4U) << position);
 8003f6e:	684c      	ldr	r4, [r1, #4]
 8003f70:	f3c4 1400 	ubfx	r4, r4, #4, #1
 8003f74:	409c      	lsls	r4, r3
 8003f76:	4314      	orrs	r4, r2
        GPIOx->OTYPER = temp;
 8003f78:	6044      	str	r4, [r0, #4]
      temp = GPIOx->PUPDR;
 8003f7a:	68c2      	ldr	r2, [r0, #12]
      temp &= ~(GPIO_PUPDR_PUPDR0 << (position * 2U));
 8003f7c:	4016      	ands	r6, r2
      temp |= ((GPIO_Init->Pull) << (position * 2U));
 8003f7e:	688a      	ldr	r2, [r1, #8]
 8003f80:	40ba      	lsls	r2, r7
 8003f82:	4332      	orrs	r2, r6
      GPIOx->PUPDR = temp;
 8003f84:	60c2      	str	r2, [r0, #12]
      if((GPIO_Init->Mode & EXTI_MODE) == EXTI_MODE)
 8003f86:	684a      	ldr	r2, [r1, #4]
 8003f88:	f012 5f80 	tst.w	r2, #268435456	; 0x10000000
 8003f8c:	d0ab      	beq.n	8003ee6 <HAL_GPIO_Init+0x7a>
        __HAL_RCC_SYSCFG_CLK_ENABLE();
 8003f8e:	2200      	movs	r2, #0
 8003f90:	9201      	str	r2, [sp, #4]
 8003f92:	4a1d      	ldr	r2, [pc, #116]	; (8004008 <HAL_GPIO_Init+0x19c>)
 8003f94:	6c54      	ldr	r4, [r2, #68]	; 0x44
 8003f96:	f444 4480 	orr.w	r4, r4, #16384	; 0x4000
 8003f9a:	6454      	str	r4, [r2, #68]	; 0x44
 8003f9c:	6c52      	ldr	r2, [r2, #68]	; 0x44
 8003f9e:	f402 4280 	and.w	r2, r2, #16384	; 0x4000
 8003fa2:	9201      	str	r2, [sp, #4]
 8003fa4:	9a01      	ldr	r2, [sp, #4]
        temp = SYSCFG->EXTICR[position >> 2U];
 8003fa6:	089c      	lsrs	r4, r3, #2
 8003fa8:	1ca6      	adds	r6, r4, #2
 8003faa:	4a15      	ldr	r2, [pc, #84]	; (8004000 <HAL_GPIO_Init+0x194>)
 8003fac:	f852 7026 	ldr.w	r7, [r2, r6, lsl #2]
        temp &= ~(0x0FU << (4U * (position & 0x03U)));
 8003fb0:	f003 0203 	and.w	r2, r3, #3
 8003fb4:	0096      	lsls	r6, r2, #2
 8003fb6:	220f      	movs	r2, #15
 8003fb8:	40b2      	lsls	r2, r6
 8003fba:	ea27 0702 	bic.w	r7, r7, r2
        temp |= ((uint32_t)(GPIO_GET_INDEX(GPIOx)) << (4U * (position & 0x03U)));
 8003fbe:	4a13      	ldr	r2, [pc, #76]	; (800400c <HAL_GPIO_Init+0x1a0>)
 8003fc0:	4290      	cmp	r0, r2
 8003fc2:	f43f af5c 	beq.w	8003e7e <HAL_GPIO_Init+0x12>
 8003fc6:	f502 6280 	add.w	r2, r2, #1024	; 0x400
 8003fca:	4290      	cmp	r0, r2
 8003fcc:	d00e      	beq.n	8003fec <HAL_GPIO_Init+0x180>
 8003fce:	f502 6280 	add.w	r2, r2, #1024	; 0x400
 8003fd2:	4290      	cmp	r0, r2
 8003fd4:	d00c      	beq.n	8003ff0 <HAL_GPIO_Init+0x184>
 8003fd6:	f502 6280 	add.w	r2, r2, #1024	; 0x400
 8003fda:	4290      	cmp	r0, r2
 8003fdc:	d00a      	beq.n	8003ff4 <HAL_GPIO_Init+0x188>
 8003fde:	f502 6280 	add.w	r2, r2, #1024	; 0x400
 8003fe2:	4290      	cmp	r0, r2
 8003fe4:	f43f af49 	beq.w	8003e7a <HAL_GPIO_Init+0xe>
 8003fe8:	2207      	movs	r2, #7
 8003fea:	e749      	b.n	8003e80 <HAL_GPIO_Init+0x14>
 8003fec:	2201      	movs	r2, #1
 8003fee:	e747      	b.n	8003e80 <HAL_GPIO_Init+0x14>
 8003ff0:	2202      	movs	r2, #2
 8003ff2:	e745      	b.n	8003e80 <HAL_GPIO_Init+0x14>
 8003ff4:	2203      	movs	r2, #3
 8003ff6:	e743      	b.n	8003e80 <HAL_GPIO_Init+0x14>
      }
    }
  }
}
 8003ff8:	b002      	add	sp, #8
 8003ffa:	bcf0      	pop	{r4, r5, r6, r7}
 8003ffc:	4770      	bx	lr
 8003ffe:	4770      	bx	lr
 8004000:	40013800 	.word	0x40013800
 8004004:	40013c00 	.word	0x40013c00
 8004008:	40023800 	.word	0x40023800
 800400c:	40020000 	.word	0x40020000

08004010 <HAL_GPIO_WritePin>:
{
  /* Check the parameters */
  assert_param(IS_GPIO_PIN(GPIO_Pin));
  assert_param(IS_GPIO_PIN_ACTION(PinState));

  if(PinState != GPIO_PIN_RESET)
 8004010:	b912      	cbnz	r2, 8004018 <HAL_GPIO_WritePin+0x8>
  {
    GPIOx->BSRR = GPIO_Pin;
  }
  else
  {
    GPIOx->BSRR = (uint32_t)GPIO_Pin << 16U;
 8004012:	0409      	lsls	r1, r1, #16
 8004014:	6181      	str	r1, [r0, #24]
  }
}
 8004016:	4770      	bx	lr
    GPIOx->BSRR = GPIO_Pin;
 8004018:	6181      	str	r1, [r0, #24]
 800401a:	4770      	bx	lr

0800401c <HAL_GPIO_TogglePin>:
void HAL_GPIO_TogglePin(GPIO_TypeDef* GPIOx, uint16_t GPIO_Pin)
{
  /* Check the parameters */
  assert_param(IS_GPIO_PIN(GPIO_Pin));

  if ((GPIOx->ODR & GPIO_Pin) == GPIO_Pin)
 800401c:	6943      	ldr	r3, [r0, #20]
 800401e:	ea31 0303 	bics.w	r3, r1, r3
 8004022:	d001      	beq.n	8004028 <HAL_GPIO_TogglePin+0xc>
  {
    GPIOx->BSRR = (uint32_t)GPIO_Pin << GPIO_NUMBER;
  }
  else
  {
    GPIOx->BSRR = GPIO_Pin;
 8004024:	6181      	str	r1, [r0, #24]
  }
}
 8004026:	4770      	bx	lr
    GPIOx->BSRR = (uint32_t)GPIO_Pin << GPIO_NUMBER;
 8004028:	0409      	lsls	r1, r1, #16
 800402a:	6181      	str	r1, [r0, #24]
 800402c:	4770      	bx	lr
	...

08004030 <HAL_GPIO_EXTI_IRQHandler>:
  * @brief  This function handles EXTI interrupt request.
  * @param  GPIO_Pin Specifies the pins connected EXTI line
  * @retval None
  */
void HAL_GPIO_EXTI_IRQHandler(uint16_t GPIO_Pin)
{
 8004030:	b508      	push	{r3, lr}
  /* EXTI line interrupt detected */
  if(__HAL_GPIO_EXTI_GET_IT(GPIO_Pin) != RESET)
 8004032:	4b05      	ldr	r3, [pc, #20]	; (8004048 <HAL_GPIO_EXTI_IRQHandler+0x18>)
 8004034:	695b      	ldr	r3, [r3, #20]
 8004036:	4203      	tst	r3, r0
 8004038:	d100      	bne.n	800403c <HAL_GPIO_EXTI_IRQHandler+0xc>
  {
    __HAL_GPIO_EXTI_CLEAR_IT(GPIO_Pin);
    HAL_GPIO_EXTI_Callback(GPIO_Pin);
  }
}
 800403a:	bd08      	pop	{r3, pc}
    __HAL_GPIO_EXTI_CLEAR_IT(GPIO_Pin);
 800403c:	4b02      	ldr	r3, [pc, #8]	; (8004048 <HAL_GPIO_EXTI_IRQHandler+0x18>)
 800403e:	6158      	str	r0, [r3, #20]
    HAL_GPIO_EXTI_Callback(GPIO_Pin);
 8004040:	f002 ffc4 	bl	8006fcc <HAL_GPIO_EXTI_Callback>
}
 8004044:	e7f9      	b.n	800403a <HAL_GPIO_EXTI_IRQHandler+0xa>
 8004046:	bf00      	nop
 8004048:	40013c00 	.word	0x40013c00

0800404c <I2C_IsAcknowledgeFailed>:
  *                the configuration information for the specified I2C.
  * @retval HAL status
  */
static HAL_StatusTypeDef I2C_IsAcknowledgeFailed(I2C_HandleTypeDef *hi2c)
{
  if (__HAL_I2C_GET_FLAG(hi2c, I2C_FLAG_AF) == SET)
 800404c:	6803      	ldr	r3, [r0, #0]
 800404e:	695a      	ldr	r2, [r3, #20]
 8004050:	f412 6f80 	tst.w	r2, #1024	; 0x400
 8004054:	d011      	beq.n	800407a <I2C_IsAcknowledgeFailed+0x2e>
  {
    /* Clear NACKF Flag */
    __HAL_I2C_CLEAR_FLAG(hi2c, I2C_FLAG_AF);
 8004056:	f46f 6280 	mvn.w	r2, #1024	; 0x400
 800405a:	615a      	str	r2, [r3, #20]

    hi2c->PreviousState       = I2C_STATE_NONE;
 800405c:	2300      	movs	r3, #0
 800405e:	6303      	str	r3, [r0, #48]	; 0x30
    hi2c->State               = HAL_I2C_STATE_READY;
 8004060:	2220      	movs	r2, #32
 8004062:	f880 203d 	strb.w	r2, [r0, #61]	; 0x3d
    hi2c->Mode                = HAL_I2C_MODE_NONE;
 8004066:	f880 303e 	strb.w	r3, [r0, #62]	; 0x3e
    hi2c->ErrorCode           |= HAL_I2C_ERROR_AF;
 800406a:	6c02      	ldr	r2, [r0, #64]	; 0x40
 800406c:	f042 0204 	orr.w	r2, r2, #4
 8004070:	6402      	str	r2, [r0, #64]	; 0x40

    /* Process Unlocked */
    __HAL_UNLOCK(hi2c);
 8004072:	f880 303c 	strb.w	r3, [r0, #60]	; 0x3c

    return HAL_ERROR;
 8004076:	2001      	movs	r0, #1
 8004078:	4770      	bx	lr
  }
  return HAL_OK;
 800407a:	2000      	movs	r0, #0
}
 800407c:	4770      	bx	lr

0800407e <I2C_WaitOnFlagUntilTimeout>:
{
 800407e:	b5f8      	push	{r3, r4, r5, r6, r7, lr}
 8004080:	4606      	mov	r6, r0
 8004082:	460c      	mov	r4, r1
 8004084:	4617      	mov	r7, r2
 8004086:	461d      	mov	r5, r3
  while (__HAL_I2C_GET_FLAG(hi2c, Flag) == Status)
 8004088:	e022      	b.n	80040d0 <I2C_WaitOnFlagUntilTimeout+0x52>
      if (((HAL_GetTick() - Tickstart) > Timeout) || (Timeout == 0U))
 800408a:	f7ff fb05 	bl	8003698 <HAL_GetTick>
 800408e:	9b06      	ldr	r3, [sp, #24]
 8004090:	1ac0      	subs	r0, r0, r3
 8004092:	42a8      	cmp	r0, r5
 8004094:	d800      	bhi.n	8004098 <I2C_WaitOnFlagUntilTimeout+0x1a>
 8004096:	b9dd      	cbnz	r5, 80040d0 <I2C_WaitOnFlagUntilTimeout+0x52>
        hi2c->PreviousState     = I2C_STATE_NONE;
 8004098:	2300      	movs	r3, #0
 800409a:	6333      	str	r3, [r6, #48]	; 0x30
        hi2c->State             = HAL_I2C_STATE_READY;
 800409c:	2220      	movs	r2, #32
 800409e:	f886 203d 	strb.w	r2, [r6, #61]	; 0x3d
        hi2c->Mode              = HAL_I2C_MODE_NONE;
 80040a2:	f886 303e 	strb.w	r3, [r6, #62]	; 0x3e
        hi2c->ErrorCode         |= HAL_I2C_ERROR_TIMEOUT;
 80040a6:	6c32      	ldr	r2, [r6, #64]	; 0x40
 80040a8:	f042 0220 	orr.w	r2, r2, #32
 80040ac:	6432      	str	r2, [r6, #64]	; 0x40
        __HAL_UNLOCK(hi2c);
 80040ae:	f886 303c 	strb.w	r3, [r6, #60]	; 0x3c
        return HAL_ERROR;
 80040b2:	2001      	movs	r0, #1
 80040b4:	e01a      	b.n	80040ec <I2C_WaitOnFlagUntilTimeout+0x6e>
  while (__HAL_I2C_GET_FLAG(hi2c, Flag) == Status)
 80040b6:	6833      	ldr	r3, [r6, #0]
 80040b8:	695b      	ldr	r3, [r3, #20]
 80040ba:	ea24 0303 	bic.w	r3, r4, r3
 80040be:	b29b      	uxth	r3, r3
 80040c0:	fab3 f383 	clz	r3, r3
 80040c4:	095b      	lsrs	r3, r3, #5
 80040c6:	429f      	cmp	r7, r3
 80040c8:	d10f      	bne.n	80040ea <I2C_WaitOnFlagUntilTimeout+0x6c>
    if (Timeout != HAL_MAX_DELAY)
 80040ca:	f1b5 3fff 	cmp.w	r5, #4294967295	; 0xffffffff
 80040ce:	d1dc      	bne.n	800408a <I2C_WaitOnFlagUntilTimeout+0xc>
  while (__HAL_I2C_GET_FLAG(hi2c, Flag) == Status)
 80040d0:	f3c4 4307 	ubfx	r3, r4, #16, #8
 80040d4:	2b01      	cmp	r3, #1
 80040d6:	d0ee      	beq.n	80040b6 <I2C_WaitOnFlagUntilTimeout+0x38>
 80040d8:	6833      	ldr	r3, [r6, #0]
 80040da:	699b      	ldr	r3, [r3, #24]
 80040dc:	ea24 0303 	bic.w	r3, r4, r3
 80040e0:	b29b      	uxth	r3, r3
 80040e2:	fab3 f383 	clz	r3, r3
 80040e6:	095b      	lsrs	r3, r3, #5
 80040e8:	e7ed      	b.n	80040c6 <I2C_WaitOnFlagUntilTimeout+0x48>
  return HAL_OK;
 80040ea:	2000      	movs	r0, #0
}
 80040ec:	bdf8      	pop	{r3, r4, r5, r6, r7, pc}

080040ee <I2C_WaitOnMasterAddressFlagUntilTimeout>:
{
 80040ee:	b5f8      	push	{r3, r4, r5, r6, r7, lr}
 80040f0:	4604      	mov	r4, r0
 80040f2:	460d      	mov	r5, r1
 80040f4:	4616      	mov	r6, r2
 80040f6:	461f      	mov	r7, r3
  while (__HAL_I2C_GET_FLAG(hi2c, Flag) == RESET)
 80040f8:	e03c      	b.n	8004174 <I2C_WaitOnMasterAddressFlagUntilTimeout+0x86>
      SET_BIT(hi2c->Instance->CR1, I2C_CR1_STOP);
 80040fa:	681a      	ldr	r2, [r3, #0]
 80040fc:	f442 7200 	orr.w	r2, r2, #512	; 0x200
 8004100:	601a      	str	r2, [r3, #0]
      __HAL_I2C_CLEAR_FLAG(hi2c, I2C_FLAG_AF);
 8004102:	6823      	ldr	r3, [r4, #0]
 8004104:	f46f 6280 	mvn.w	r2, #1024	; 0x400
 8004108:	615a      	str	r2, [r3, #20]
      hi2c->PreviousState       = I2C_STATE_NONE;
 800410a:	2300      	movs	r3, #0
 800410c:	6323      	str	r3, [r4, #48]	; 0x30
      hi2c->State               = HAL_I2C_STATE_READY;
 800410e:	2220      	movs	r2, #32
 8004110:	f884 203d 	strb.w	r2, [r4, #61]	; 0x3d
      hi2c->Mode                = HAL_I2C_MODE_NONE;
 8004114:	f884 303e 	strb.w	r3, [r4, #62]	; 0x3e
      hi2c->ErrorCode           |= HAL_I2C_ERROR_AF;
 8004118:	6c22      	ldr	r2, [r4, #64]	; 0x40
 800411a:	f042 0204 	orr.w	r2, r2, #4
 800411e:	6422      	str	r2, [r4, #64]	; 0x40
      __HAL_UNLOCK(hi2c);
 8004120:	f884 303c 	strb.w	r3, [r4, #60]	; 0x3c
      return HAL_ERROR;
 8004124:	2001      	movs	r0, #1
 8004126:	e033      	b.n	8004190 <I2C_WaitOnMasterAddressFlagUntilTimeout+0xa2>
      if (((HAL_GetTick() - Tickstart) > Timeout) || (Timeout == 0U))
 8004128:	f7ff fab6 	bl	8003698 <HAL_GetTick>
 800412c:	1bc0      	subs	r0, r0, r7
 800412e:	42b0      	cmp	r0, r6
 8004130:	d800      	bhi.n	8004134 <I2C_WaitOnMasterAddressFlagUntilTimeout+0x46>
 8004132:	b9fe      	cbnz	r6, 8004174 <I2C_WaitOnMasterAddressFlagUntilTimeout+0x86>
        hi2c->PreviousState       = I2C_STATE_NONE;
 8004134:	2300      	movs	r3, #0
 8004136:	6323      	str	r3, [r4, #48]	; 0x30
        hi2c->State               = HAL_I2C_STATE_READY;
 8004138:	2220      	movs	r2, #32
 800413a:	f884 203d 	strb.w	r2, [r4, #61]	; 0x3d
        hi2c->Mode                = HAL_I2C_MODE_NONE;
 800413e:	f884 303e 	strb.w	r3, [r4, #62]	; 0x3e
        hi2c->ErrorCode           |= HAL_I2C_ERROR_TIMEOUT;
 8004142:	6c22      	ldr	r2, [r4, #64]	; 0x40
 8004144:	f042 0220 	orr.w	r2, r2, #32
 8004148:	6422      	str	r2, [r4, #64]	; 0x40
        __HAL_UNLOCK(hi2c);
 800414a:	f884 303c 	strb.w	r3, [r4, #60]	; 0x3c
        return HAL_ERROR;
 800414e:	2001      	movs	r0, #1
 8004150:	e01e      	b.n	8004190 <I2C_WaitOnMasterAddressFlagUntilTimeout+0xa2>
  while (__HAL_I2C_GET_FLAG(hi2c, Flag) == RESET)
 8004152:	6823      	ldr	r3, [r4, #0]
 8004154:	695b      	ldr	r3, [r3, #20]
 8004156:	ea25 0303 	bic.w	r3, r5, r3
 800415a:	b29b      	uxth	r3, r3
 800415c:	3300      	adds	r3, #0
 800415e:	bf18      	it	ne
 8004160:	2301      	movne	r3, #1
 8004162:	b1a3      	cbz	r3, 800418e <I2C_WaitOnMasterAddressFlagUntilTimeout+0xa0>
    if (__HAL_I2C_GET_FLAG(hi2c, I2C_FLAG_AF) == SET)
 8004164:	6823      	ldr	r3, [r4, #0]
 8004166:	695a      	ldr	r2, [r3, #20]
 8004168:	f412 6f80 	tst.w	r2, #1024	; 0x400
 800416c:	d1c5      	bne.n	80040fa <I2C_WaitOnMasterAddressFlagUntilTimeout+0xc>
    if (Timeout != HAL_MAX_DELAY)
 800416e:	f1b6 3fff 	cmp.w	r6, #4294967295	; 0xffffffff
 8004172:	d1d9      	bne.n	8004128 <I2C_WaitOnMasterAddressFlagUntilTimeout+0x3a>
  while (__HAL_I2C_GET_FLAG(hi2c, Flag) == RESET)
 8004174:	f3c5 4307 	ubfx	r3, r5, #16, #8
 8004178:	2b01      	cmp	r3, #1
 800417a:	d0ea      	beq.n	8004152 <I2C_WaitOnMasterAddressFlagUntilTimeout+0x64>
 800417c:	6823      	ldr	r3, [r4, #0]
 800417e:	699b      	ldr	r3, [r3, #24]
 8004180:	ea25 0303 	bic.w	r3, r5, r3
 8004184:	b29b      	uxth	r3, r3
 8004186:	3300      	adds	r3, #0
 8004188:	bf18      	it	ne
 800418a:	2301      	movne	r3, #1
 800418c:	e7e9      	b.n	8004162 <I2C_WaitOnMasterAddressFlagUntilTimeout+0x74>
  return HAL_OK;
 800418e:	2000      	movs	r0, #0
}
 8004190:	bdf8      	pop	{r3, r4, r5, r6, r7, pc}
	...

08004194 <I2C_MasterRequestWrite>:
{
 8004194:	b5f0      	push	{r4, r5, r6, r7, lr}
 8004196:	b083      	sub	sp, #12
 8004198:	4604      	mov	r4, r0
 800419a:	460f      	mov	r7, r1
 800419c:	4615      	mov	r5, r2
 800419e:	461e      	mov	r6, r3
  uint32_t CurrentXferOptions = hi2c->XferOptions;
 80041a0:	6ac3      	ldr	r3, [r0, #44]	; 0x2c
  if ((CurrentXferOptions == I2C_FIRST_AND_LAST_FRAME) || (CurrentXferOptions == I2C_FIRST_FRAME) || (CurrentXferOptions == I2C_NO_OPTION_FRAME))
 80041a2:	2b08      	cmp	r3, #8
 80041a4:	d00d      	beq.n	80041c2 <I2C_MasterRequestWrite+0x2e>
 80041a6:	2b01      	cmp	r3, #1
 80041a8:	d00b      	beq.n	80041c2 <I2C_MasterRequestWrite+0x2e>
 80041aa:	f513 3f80 	cmn.w	r3, #65536	; 0x10000
 80041ae:	d008      	beq.n	80041c2 <I2C_MasterRequestWrite+0x2e>
  else if (hi2c->PreviousState == I2C_STATE_MASTER_BUSY_RX)
 80041b0:	6b03      	ldr	r3, [r0, #48]	; 0x30
 80041b2:	2b12      	cmp	r3, #18
 80041b4:	d10a      	bne.n	80041cc <I2C_MasterRequestWrite+0x38>
    SET_BIT(hi2c->Instance->CR1, I2C_CR1_START);
 80041b6:	6802      	ldr	r2, [r0, #0]
 80041b8:	6813      	ldr	r3, [r2, #0]
 80041ba:	f443 7380 	orr.w	r3, r3, #256	; 0x100
 80041be:	6013      	str	r3, [r2, #0]
 80041c0:	e004      	b.n	80041cc <I2C_MasterRequestWrite+0x38>
    SET_BIT(hi2c->Instance->CR1, I2C_CR1_START);
 80041c2:	6822      	ldr	r2, [r4, #0]
 80041c4:	6813      	ldr	r3, [r2, #0]
 80041c6:	f443 7380 	orr.w	r3, r3, #256	; 0x100
 80041ca:	6013      	str	r3, [r2, #0]
  if (I2C_WaitOnFlagUntilTimeout(hi2c, I2C_FLAG_SB, RESET, Timeout, Tickstart) != HAL_OK)
 80041cc:	9600      	str	r6, [sp, #0]
 80041ce:	462b      	mov	r3, r5
 80041d0:	2200      	movs	r2, #0
 80041d2:	f04f 1101 	mov.w	r1, #65537	; 0x10001
 80041d6:	4620      	mov	r0, r4
 80041d8:	f7ff ff51 	bl	800407e <I2C_WaitOnFlagUntilTimeout>
 80041dc:	bb18      	cbnz	r0, 8004226 <I2C_MasterRequestWrite+0x92>
  if (hi2c->Init.AddressingMode == I2C_ADDRESSINGMODE_7BIT)
 80041de:	6923      	ldr	r3, [r4, #16]
 80041e0:	f5b3 4f80 	cmp.w	r3, #16384	; 0x4000
 80041e4:	d10d      	bne.n	8004202 <I2C_MasterRequestWrite+0x6e>
    hi2c->Instance->DR = I2C_7BIT_ADD_WRITE(DevAddress);
 80041e6:	6823      	ldr	r3, [r4, #0]
 80041e8:	f007 07fe 	and.w	r7, r7, #254	; 0xfe
 80041ec:	611f      	str	r7, [r3, #16]
  if (I2C_WaitOnMasterAddressFlagUntilTimeout(hi2c, I2C_FLAG_ADDR, Timeout, Tickstart) != HAL_OK)
 80041ee:	4633      	mov	r3, r6
 80041f0:	462a      	mov	r2, r5
 80041f2:	4910      	ldr	r1, [pc, #64]	; (8004234 <I2C_MasterRequestWrite+0xa0>)
 80041f4:	4620      	mov	r0, r4
 80041f6:	f7ff ff7a 	bl	80040ee <I2C_WaitOnMasterAddressFlagUntilTimeout>
 80041fa:	4603      	mov	r3, r0
 80041fc:	b1a0      	cbz	r0, 8004228 <I2C_MasterRequestWrite+0x94>
    return HAL_ERROR;
 80041fe:	2301      	movs	r3, #1
 8004200:	e012      	b.n	8004228 <I2C_MasterRequestWrite+0x94>
    hi2c->Instance->DR = I2C_10BIT_HEADER_WRITE(DevAddress);
 8004202:	11fb      	asrs	r3, r7, #7
 8004204:	6822      	ldr	r2, [r4, #0]
 8004206:	f003 0306 	and.w	r3, r3, #6
 800420a:	f043 03f0 	orr.w	r3, r3, #240	; 0xf0
 800420e:	6113      	str	r3, [r2, #16]
    if (I2C_WaitOnMasterAddressFlagUntilTimeout(hi2c, I2C_FLAG_ADD10, Timeout, Tickstart) != HAL_OK)
 8004210:	4633      	mov	r3, r6
 8004212:	462a      	mov	r2, r5
 8004214:	4908      	ldr	r1, [pc, #32]	; (8004238 <I2C_MasterRequestWrite+0xa4>)
 8004216:	4620      	mov	r0, r4
 8004218:	f7ff ff69 	bl	80040ee <I2C_WaitOnMasterAddressFlagUntilTimeout>
 800421c:	b938      	cbnz	r0, 800422e <I2C_MasterRequestWrite+0x9a>
    hi2c->Instance->DR = I2C_10BIT_ADDRESS(DevAddress);
 800421e:	6823      	ldr	r3, [r4, #0]
 8004220:	b2ff      	uxtb	r7, r7
 8004222:	611f      	str	r7, [r3, #16]
 8004224:	e7e3      	b.n	80041ee <I2C_MasterRequestWrite+0x5a>
    return HAL_ERROR;
 8004226:	2301      	movs	r3, #1
}
 8004228:	4618      	mov	r0, r3
 800422a:	b003      	add	sp, #12
 800422c:	bdf0      	pop	{r4, r5, r6, r7, pc}
      return HAL_ERROR;
 800422e:	2301      	movs	r3, #1
 8004230:	e7fa      	b.n	8004228 <I2C_MasterRequestWrite+0x94>
 8004232:	bf00      	nop
 8004234:	00010002 	.word	0x00010002
 8004238:	00010008 	.word	0x00010008

0800423c <I2C_MasterRequestRead>:
{
 800423c:	e92d 41f0 	stmdb	sp!, {r4, r5, r6, r7, r8, lr}
 8004240:	b084      	sub	sp, #16
 8004242:	4604      	mov	r4, r0
 8004244:	460d      	mov	r5, r1
 8004246:	4616      	mov	r6, r2
 8004248:	461f      	mov	r7, r3
  uint32_t CurrentXferOptions = hi2c->XferOptions;
 800424a:	6ac2      	ldr	r2, [r0, #44]	; 0x2c
  SET_BIT(hi2c->Instance->CR1, I2C_CR1_ACK);
 800424c:	6801      	ldr	r1, [r0, #0]
 800424e:	680b      	ldr	r3, [r1, #0]
 8004250:	f443 6380 	orr.w	r3, r3, #1024	; 0x400
 8004254:	600b      	str	r3, [r1, #0]
  if ((CurrentXferOptions == I2C_FIRST_AND_LAST_FRAME) || (CurrentXferOptions == I2C_FIRST_FRAME)  || (CurrentXferOptions == I2C_NO_OPTION_FRAME))
 8004256:	2a08      	cmp	r2, #8
 8004258:	d00d      	beq.n	8004276 <I2C_MasterRequestRead+0x3a>
 800425a:	2a01      	cmp	r2, #1
 800425c:	d00b      	beq.n	8004276 <I2C_MasterRequestRead+0x3a>
 800425e:	f512 3f80 	cmn.w	r2, #65536	; 0x10000
 8004262:	d008      	beq.n	8004276 <I2C_MasterRequestRead+0x3a>
  else if (hi2c->PreviousState == I2C_STATE_MASTER_BUSY_TX)
 8004264:	6b03      	ldr	r3, [r0, #48]	; 0x30
 8004266:	2b11      	cmp	r3, #17
 8004268:	d10a      	bne.n	8004280 <I2C_MasterRequestRead+0x44>
    SET_BIT(hi2c->Instance->CR1, I2C_CR1_START);
 800426a:	6802      	ldr	r2, [r0, #0]
 800426c:	6813      	ldr	r3, [r2, #0]
 800426e:	f443 7380 	orr.w	r3, r3, #256	; 0x100
 8004272:	6013      	str	r3, [r2, #0]
 8004274:	e004      	b.n	8004280 <I2C_MasterRequestRead+0x44>
    SET_BIT(hi2c->Instance->CR1, I2C_CR1_START);
 8004276:	6822      	ldr	r2, [r4, #0]
 8004278:	6813      	ldr	r3, [r2, #0]
 800427a:	f443 7380 	orr.w	r3, r3, #256	; 0x100
 800427e:	6013      	str	r3, [r2, #0]
  if (I2C_WaitOnFlagUntilTimeout(hi2c, I2C_FLAG_SB, RESET, Timeout, Tickstart) != HAL_OK)
 8004280:	9700      	str	r7, [sp, #0]
 8004282:	4633      	mov	r3, r6
 8004284:	2200      	movs	r2, #0
 8004286:	f04f 1101 	mov.w	r1, #65537	; 0x10001
 800428a:	4620      	mov	r0, r4
 800428c:	f7ff fef7 	bl	800407e <I2C_WaitOnFlagUntilTimeout>
 8004290:	2800      	cmp	r0, #0
 8004292:	d149      	bne.n	8004328 <I2C_MasterRequestRead+0xec>
  if (hi2c->Init.AddressingMode == I2C_ADDRESSINGMODE_7BIT)
 8004294:	6923      	ldr	r3, [r4, #16]
 8004296:	f5b3 4f80 	cmp.w	r3, #16384	; 0x4000
 800429a:	d10f      	bne.n	80042bc <I2C_MasterRequestRead+0x80>
    hi2c->Instance->DR = I2C_7BIT_ADD_READ(DevAddress);
 800429c:	6823      	ldr	r3, [r4, #0]
 800429e:	f045 0501 	orr.w	r5, r5, #1
 80042a2:	b2ed      	uxtb	r5, r5
 80042a4:	611d      	str	r5, [r3, #16]
  if (I2C_WaitOnMasterAddressFlagUntilTimeout(hi2c, I2C_FLAG_ADDR, Timeout, Tickstart) != HAL_OK)
 80042a6:	463b      	mov	r3, r7
 80042a8:	4632      	mov	r2, r6
 80042aa:	4923      	ldr	r1, [pc, #140]	; (8004338 <I2C_MasterRequestRead+0xfc>)
 80042ac:	4620      	mov	r0, r4
 80042ae:	f7ff ff1e 	bl	80040ee <I2C_WaitOnMasterAddressFlagUntilTimeout>
 80042b2:	4603      	mov	r3, r0
 80042b4:	2800      	cmp	r0, #0
 80042b6:	d038      	beq.n	800432a <I2C_MasterRequestRead+0xee>
    return HAL_ERROR;
 80042b8:	2301      	movs	r3, #1
 80042ba:	e036      	b.n	800432a <I2C_MasterRequestRead+0xee>
    hi2c->Instance->DR = I2C_10BIT_HEADER_WRITE(DevAddress);
 80042bc:	ea4f 18e5 	mov.w	r8, r5, asr #7
 80042c0:	f008 0806 	and.w	r8, r8, #6
 80042c4:	6823      	ldr	r3, [r4, #0]
 80042c6:	f048 02f0 	orr.w	r2, r8, #240	; 0xf0
 80042ca:	611a      	str	r2, [r3, #16]
    if (I2C_WaitOnMasterAddressFlagUntilTimeout(hi2c, I2C_FLAG_ADD10, Timeout, Tickstart) != HAL_OK)
 80042cc:	463b      	mov	r3, r7
 80042ce:	4632      	mov	r2, r6
 80042d0:	491a      	ldr	r1, [pc, #104]	; (800433c <I2C_MasterRequestRead+0x100>)
 80042d2:	4620      	mov	r0, r4
 80042d4:	f7ff ff0b 	bl	80040ee <I2C_WaitOnMasterAddressFlagUntilTimeout>
 80042d8:	b108      	cbz	r0, 80042de <I2C_MasterRequestRead+0xa2>
      return HAL_ERROR;
 80042da:	2301      	movs	r3, #1
 80042dc:	e025      	b.n	800432a <I2C_MasterRequestRead+0xee>
    hi2c->Instance->DR = I2C_10BIT_ADDRESS(DevAddress);
 80042de:	6823      	ldr	r3, [r4, #0]
 80042e0:	b2ed      	uxtb	r5, r5
 80042e2:	611d      	str	r5, [r3, #16]
    if (I2C_WaitOnMasterAddressFlagUntilTimeout(hi2c, I2C_FLAG_ADDR, Timeout, Tickstart) != HAL_OK)
 80042e4:	463b      	mov	r3, r7
 80042e6:	4632      	mov	r2, r6
 80042e8:	4913      	ldr	r1, [pc, #76]	; (8004338 <I2C_MasterRequestRead+0xfc>)
 80042ea:	4620      	mov	r0, r4
 80042ec:	f7ff feff 	bl	80040ee <I2C_WaitOnMasterAddressFlagUntilTimeout>
 80042f0:	b108      	cbz	r0, 80042f6 <I2C_MasterRequestRead+0xba>
      return HAL_ERROR;
 80042f2:	2301      	movs	r3, #1
 80042f4:	e019      	b.n	800432a <I2C_MasterRequestRead+0xee>
    __HAL_I2C_CLEAR_ADDRFLAG(hi2c);
 80042f6:	2200      	movs	r2, #0
 80042f8:	9203      	str	r2, [sp, #12]
 80042fa:	6823      	ldr	r3, [r4, #0]
 80042fc:	6959      	ldr	r1, [r3, #20]
 80042fe:	9103      	str	r1, [sp, #12]
 8004300:	6999      	ldr	r1, [r3, #24]
 8004302:	9103      	str	r1, [sp, #12]
 8004304:	9903      	ldr	r1, [sp, #12]
    SET_BIT(hi2c->Instance->CR1, I2C_CR1_START);
 8004306:	6819      	ldr	r1, [r3, #0]
 8004308:	f441 7180 	orr.w	r1, r1, #256	; 0x100
 800430c:	6019      	str	r1, [r3, #0]
    if (I2C_WaitOnFlagUntilTimeout(hi2c, I2C_FLAG_SB, RESET, Timeout, Tickstart) != HAL_OK)
 800430e:	9700      	str	r7, [sp, #0]
 8004310:	4633      	mov	r3, r6
 8004312:	f04f 1101 	mov.w	r1, #65537	; 0x10001
 8004316:	4620      	mov	r0, r4
 8004318:	f7ff feb1 	bl	800407e <I2C_WaitOnFlagUntilTimeout>
 800431c:	b948      	cbnz	r0, 8004332 <I2C_MasterRequestRead+0xf6>
    hi2c->Instance->DR = I2C_10BIT_HEADER_READ(DevAddress);
 800431e:	6822      	ldr	r2, [r4, #0]
 8004320:	f048 03f1 	orr.w	r3, r8, #241	; 0xf1
 8004324:	6113      	str	r3, [r2, #16]
 8004326:	e7be      	b.n	80042a6 <I2C_MasterRequestRead+0x6a>
    return HAL_ERROR;
 8004328:	2301      	movs	r3, #1
}
 800432a:	4618      	mov	r0, r3
 800432c:	b004      	add	sp, #16
 800432e:	e8bd 81f0 	ldmia.w	sp!, {r4, r5, r6, r7, r8, pc}
      return HAL_ERROR;
 8004332:	2301      	movs	r3, #1
 8004334:	e7f9      	b.n	800432a <I2C_MasterRequestRead+0xee>
 8004336:	bf00      	nop
 8004338:	00010002 	.word	0x00010002
 800433c:	00010008 	.word	0x00010008

08004340 <I2C_WaitOnTXEFlagUntilTimeout>:
{
 8004340:	b570      	push	{r4, r5, r6, lr}
 8004342:	4604      	mov	r4, r0
 8004344:	460d      	mov	r5, r1
 8004346:	4616      	mov	r6, r2
  while (__HAL_I2C_GET_FLAG(hi2c, I2C_FLAG_TXE) == RESET)
 8004348:	6823      	ldr	r3, [r4, #0]
 800434a:	695b      	ldr	r3, [r3, #20]
 800434c:	f013 0f80 	tst.w	r3, #128	; 0x80
 8004350:	d11c      	bne.n	800438c <I2C_WaitOnTXEFlagUntilTimeout+0x4c>
    if (I2C_IsAcknowledgeFailed(hi2c) != HAL_OK)
 8004352:	4620      	mov	r0, r4
 8004354:	f7ff fe7a 	bl	800404c <I2C_IsAcknowledgeFailed>
 8004358:	b9d0      	cbnz	r0, 8004390 <I2C_WaitOnTXEFlagUntilTimeout+0x50>
    if (Timeout != HAL_MAX_DELAY)
 800435a:	f1b5 3fff 	cmp.w	r5, #4294967295	; 0xffffffff
 800435e:	d0f3      	beq.n	8004348 <I2C_WaitOnTXEFlagUntilTimeout+0x8>
      if (((HAL_GetTick() - Tickstart) > Timeout) || (Timeout == 0U))
 8004360:	f7ff f99a 	bl	8003698 <HAL_GetTick>
 8004364:	1b80      	subs	r0, r0, r6
 8004366:	42a8      	cmp	r0, r5
 8004368:	d801      	bhi.n	800436e <I2C_WaitOnTXEFlagUntilTimeout+0x2e>
 800436a:	2d00      	cmp	r5, #0
 800436c:	d1ec      	bne.n	8004348 <I2C_WaitOnTXEFlagUntilTimeout+0x8>
        hi2c->PreviousState       = I2C_STATE_NONE;
 800436e:	2300      	movs	r3, #0
 8004370:	6323      	str	r3, [r4, #48]	; 0x30
        hi2c->State               = HAL_I2C_STATE_READY;
 8004372:	2220      	movs	r2, #32
 8004374:	f884 203d 	strb.w	r2, [r4, #61]	; 0x3d
        hi2c->Mode                = HAL_I2C_MODE_NONE;
 8004378:	f884 303e 	strb.w	r3, [r4, #62]	; 0x3e
        hi2c->ErrorCode           |= HAL_I2C_ERROR_TIMEOUT;
 800437c:	6c22      	ldr	r2, [r4, #64]	; 0x40
 800437e:	f042 0220 	orr.w	r2, r2, #32
 8004382:	6422      	str	r2, [r4, #64]	; 0x40
        __HAL_UNLOCK(hi2c);
 8004384:	f884 303c 	strb.w	r3, [r4, #60]	; 0x3c
        return HAL_ERROR;
 8004388:	2001      	movs	r0, #1
 800438a:	e000      	b.n	800438e <I2C_WaitOnTXEFlagUntilTimeout+0x4e>
  return HAL_OK;
 800438c:	2000      	movs	r0, #0
}
 800438e:	bd70      	pop	{r4, r5, r6, pc}
      return HAL_ERROR;
 8004390:	2001      	movs	r0, #1
 8004392:	e7fc      	b.n	800438e <I2C_WaitOnTXEFlagUntilTimeout+0x4e>

08004394 <I2C_WaitOnBTFFlagUntilTimeout>:
{
 8004394:	b570      	push	{r4, r5, r6, lr}
 8004396:	4604      	mov	r4, r0
 8004398:	460d      	mov	r5, r1
 800439a:	4616      	mov	r6, r2
  while (__HAL_I2C_GET_FLAG(hi2c, I2C_FLAG_BTF) == RESET)
 800439c:	6823      	ldr	r3, [r4, #0]
 800439e:	695b      	ldr	r3, [r3, #20]
 80043a0:	f013 0f04 	tst.w	r3, #4
 80043a4:	d11c      	bne.n	80043e0 <I2C_WaitOnBTFFlagUntilTimeout+0x4c>
    if (I2C_IsAcknowledgeFailed(hi2c) != HAL_OK)
 80043a6:	4620      	mov	r0, r4
 80043a8:	f7ff fe50 	bl	800404c <I2C_IsAcknowledgeFailed>
 80043ac:	b9d0      	cbnz	r0, 80043e4 <I2C_WaitOnBTFFlagUntilTimeout+0x50>
    if (Timeout != HAL_MAX_DELAY)
 80043ae:	f1b5 3fff 	cmp.w	r5, #4294967295	; 0xffffffff
 80043b2:	d0f3      	beq.n	800439c <I2C_WaitOnBTFFlagUntilTimeout+0x8>
      if (((HAL_GetTick() - Tickstart) > Timeout) || (Timeout == 0U))
 80043b4:	f7ff f970 	bl	8003698 <HAL_GetTick>
 80043b8:	1b80      	subs	r0, r0, r6
 80043ba:	42a8      	cmp	r0, r5
 80043bc:	d801      	bhi.n	80043c2 <I2C_WaitOnBTFFlagUntilTimeout+0x2e>
 80043be:	2d00      	cmp	r5, #0
 80043c0:	d1ec      	bne.n	800439c <I2C_WaitOnBTFFlagUntilTimeout+0x8>
        hi2c->PreviousState       = I2C_STATE_NONE;
 80043c2:	2300      	movs	r3, #0
 80043c4:	6323      	str	r3, [r4, #48]	; 0x30
        hi2c->State               = HAL_I2C_STATE_READY;
 80043c6:	2220      	movs	r2, #32
 80043c8:	f884 203d 	strb.w	r2, [r4, #61]	; 0x3d
        hi2c->Mode                = HAL_I2C_MODE_NONE;
 80043cc:	f884 303e 	strb.w	r3, [r4, #62]	; 0x3e
        hi2c->ErrorCode           |= HAL_I2C_ERROR_TIMEOUT;
 80043d0:	6c22      	ldr	r2, [r4, #64]	; 0x40
 80043d2:	f042 0220 	orr.w	r2, r2, #32
 80043d6:	6422      	str	r2, [r4, #64]	; 0x40
        __HAL_UNLOCK(hi2c);
 80043d8:	f884 303c 	strb.w	r3, [r4, #60]	; 0x3c
        return HAL_ERROR;
 80043dc:	2001      	movs	r0, #1
 80043de:	e000      	b.n	80043e2 <I2C_WaitOnBTFFlagUntilTimeout+0x4e>
  return HAL_OK;
 80043e0:	2000      	movs	r0, #0
}
 80043e2:	bd70      	pop	{r4, r5, r6, pc}
      return HAL_ERROR;
 80043e4:	2001      	movs	r0, #1
 80043e6:	e7fc      	b.n	80043e2 <I2C_WaitOnBTFFlagUntilTimeout+0x4e>

080043e8 <I2C_WaitOnRXNEFlagUntilTimeout>:
{
 80043e8:	b570      	push	{r4, r5, r6, lr}
 80043ea:	4605      	mov	r5, r0
 80043ec:	460c      	mov	r4, r1
 80043ee:	4616      	mov	r6, r2
  while (__HAL_I2C_GET_FLAG(hi2c, I2C_FLAG_RXNE) == RESET)
 80043f0:	682b      	ldr	r3, [r5, #0]
 80043f2:	695a      	ldr	r2, [r3, #20]
 80043f4:	f012 0f40 	tst.w	r2, #64	; 0x40
 80043f8:	d129      	bne.n	800444e <I2C_WaitOnRXNEFlagUntilTimeout+0x66>
    if (__HAL_I2C_GET_FLAG(hi2c, I2C_FLAG_STOPF) == SET)
 80043fa:	695a      	ldr	r2, [r3, #20]
 80043fc:	f012 0f10 	tst.w	r2, #16
 8004400:	d115      	bne.n	800442e <I2C_WaitOnRXNEFlagUntilTimeout+0x46>
    if (((HAL_GetTick() - Tickstart) > Timeout) || (Timeout == 0U))
 8004402:	f7ff f949 	bl	8003698 <HAL_GetTick>
 8004406:	1b80      	subs	r0, r0, r6
 8004408:	42a0      	cmp	r0, r4
 800440a:	d801      	bhi.n	8004410 <I2C_WaitOnRXNEFlagUntilTimeout+0x28>
 800440c:	2c00      	cmp	r4, #0
 800440e:	d1ef      	bne.n	80043f0 <I2C_WaitOnRXNEFlagUntilTimeout+0x8>
      hi2c->PreviousState       = I2C_STATE_NONE;
 8004410:	2300      	movs	r3, #0
 8004412:	632b      	str	r3, [r5, #48]	; 0x30
      hi2c->State               = HAL_I2C_STATE_READY;
 8004414:	2220      	movs	r2, #32
 8004416:	f885 203d 	strb.w	r2, [r5, #61]	; 0x3d
      hi2c->Mode                = HAL_I2C_MODE_NONE;
 800441a:	f885 303e 	strb.w	r3, [r5, #62]	; 0x3e
      hi2c->ErrorCode           |= HAL_I2C_ERROR_TIMEOUT;
 800441e:	6c2a      	ldr	r2, [r5, #64]	; 0x40
 8004420:	f042 0220 	orr.w	r2, r2, #32
 8004424:	642a      	str	r2, [r5, #64]	; 0x40
      __HAL_UNLOCK(hi2c);
 8004426:	f885 303c 	strb.w	r3, [r5, #60]	; 0x3c
      return HAL_ERROR;
 800442a:	2001      	movs	r0, #1
}
 800442c:	bd70      	pop	{r4, r5, r6, pc}
      __HAL_I2C_CLEAR_FLAG(hi2c, I2C_FLAG_STOPF);
 800442e:	f06f 0210 	mvn.w	r2, #16
 8004432:	615a      	str	r2, [r3, #20]
      hi2c->PreviousState       = I2C_STATE_NONE;
 8004434:	2300      	movs	r3, #0
 8004436:	632b      	str	r3, [r5, #48]	; 0x30
      hi2c->State               = HAL_I2C_STATE_READY;
 8004438:	2220      	movs	r2, #32
 800443a:	f885 203d 	strb.w	r2, [r5, #61]	; 0x3d
      hi2c->Mode                = HAL_I2C_MODE_NONE;
 800443e:	f885 303e 	strb.w	r3, [r5, #62]	; 0x3e
      hi2c->ErrorCode           |= HAL_I2C_ERROR_NONE;
 8004442:	6c2a      	ldr	r2, [r5, #64]	; 0x40
 8004444:	642a      	str	r2, [r5, #64]	; 0x40
      __HAL_UNLOCK(hi2c);
 8004446:	f885 303c 	strb.w	r3, [r5, #60]	; 0x3c
      return HAL_ERROR;
 800444a:	2001      	movs	r0, #1
 800444c:	e7ee      	b.n	800442c <I2C_WaitOnRXNEFlagUntilTimeout+0x44>
  return HAL_OK;
 800444e:	2000      	movs	r0, #0
 8004450:	e7ec      	b.n	800442c <I2C_WaitOnRXNEFlagUntilTimeout+0x44>
	...

08004454 <HAL_I2C_Init>:
  if (hi2c == NULL)
 8004454:	2800      	cmp	r0, #0
 8004456:	f000 80be 	beq.w	80045d6 <HAL_I2C_Init+0x182>
{
 800445a:	b5f8      	push	{r3, r4, r5, r6, r7, lr}
 800445c:	4604      	mov	r4, r0
  if (hi2c->State == HAL_I2C_STATE_RESET)
 800445e:	f890 303d 	ldrb.w	r3, [r0, #61]	; 0x3d
 8004462:	2b00      	cmp	r3, #0
 8004464:	d06b      	beq.n	800453e <HAL_I2C_Init+0xea>
  hi2c->State = HAL_I2C_STATE_BUSY;
 8004466:	2324      	movs	r3, #36	; 0x24
 8004468:	f884 303d 	strb.w	r3, [r4, #61]	; 0x3d
  __HAL_I2C_DISABLE(hi2c);
 800446c:	6822      	ldr	r2, [r4, #0]
 800446e:	6813      	ldr	r3, [r2, #0]
 8004470:	f023 0301 	bic.w	r3, r3, #1
 8004474:	6013      	str	r3, [r2, #0]
  pclk1 = HAL_RCC_GetPCLK1Freq();
 8004476:	f000 fe8b 	bl	8005190 <HAL_RCC_GetPCLK1Freq>
  if (I2C_MIN_PCLK_FREQ(pclk1, hi2c->Init.ClockSpeed) == 1U)
 800447a:	6862      	ldr	r2, [r4, #4]
 800447c:	4b58      	ldr	r3, [pc, #352]	; (80045e0 <HAL_I2C_Init+0x18c>)
 800447e:	429a      	cmp	r2, r3
 8004480:	d862      	bhi.n	8004548 <HAL_I2C_Init+0xf4>
 8004482:	4b58      	ldr	r3, [pc, #352]	; (80045e4 <HAL_I2C_Init+0x190>)
 8004484:	4298      	cmp	r0, r3
 8004486:	bf8c      	ite	hi
 8004488:	2300      	movhi	r3, #0
 800448a:	2301      	movls	r3, #1
 800448c:	2b00      	cmp	r3, #0
 800448e:	f040 80a4 	bne.w	80045da <HAL_I2C_Init+0x186>
  freqrange = I2C_FREQRANGE(pclk1);
 8004492:	4b55      	ldr	r3, [pc, #340]	; (80045e8 <HAL_I2C_Init+0x194>)
 8004494:	fba3 2300 	umull	r2, r3, r3, r0
 8004498:	0c9b      	lsrs	r3, r3, #18
  MODIFY_REG(hi2c->Instance->CR2, I2C_CR2_FREQ, freqrange);
 800449a:	6821      	ldr	r1, [r4, #0]
 800449c:	684a      	ldr	r2, [r1, #4]
 800449e:	f022 023f 	bic.w	r2, r2, #63	; 0x3f
 80044a2:	431a      	orrs	r2, r3
 80044a4:	604a      	str	r2, [r1, #4]
  MODIFY_REG(hi2c->Instance->TRISE, I2C_TRISE_TRISE, I2C_RISE_TIME(freqrange, hi2c->Init.ClockSpeed));
 80044a6:	6825      	ldr	r5, [r4, #0]
 80044a8:	6a2a      	ldr	r2, [r5, #32]
 80044aa:	f022 023f 	bic.w	r2, r2, #63	; 0x3f
 80044ae:	6866      	ldr	r6, [r4, #4]
 80044b0:	494b      	ldr	r1, [pc, #300]	; (80045e0 <HAL_I2C_Init+0x18c>)
 80044b2:	428e      	cmp	r6, r1
 80044b4:	d84e      	bhi.n	8004554 <HAL_I2C_Init+0x100>
 80044b6:	3301      	adds	r3, #1
 80044b8:	4313      	orrs	r3, r2
 80044ba:	622b      	str	r3, [r5, #32]
  MODIFY_REG(hi2c->Instance->CCR, (I2C_CCR_FS | I2C_CCR_DUTY | I2C_CCR_CCR), I2C_SPEED(pclk1, hi2c->Init.ClockSpeed, hi2c->Init.DutyCycle));
 80044bc:	6825      	ldr	r5, [r4, #0]
 80044be:	69e9      	ldr	r1, [r5, #28]
 80044c0:	f421 414f 	bic.w	r1, r1, #52992	; 0xcf00
 80044c4:	f021 01ff 	bic.w	r1, r1, #255	; 0xff
 80044c8:	6863      	ldr	r3, [r4, #4]
 80044ca:	4a45      	ldr	r2, [pc, #276]	; (80045e0 <HAL_I2C_Init+0x18c>)
 80044cc:	4293      	cmp	r3, r2
 80044ce:	d84b      	bhi.n	8004568 <HAL_I2C_Init+0x114>
 80044d0:	3801      	subs	r0, #1
 80044d2:	005b      	lsls	r3, r3, #1
 80044d4:	fbb0 f3f3 	udiv	r3, r0, r3
 80044d8:	3301      	adds	r3, #1
 80044da:	f3c3 030b 	ubfx	r3, r3, #0, #12
 80044de:	2b04      	cmp	r3, #4
 80044e0:	bf38      	it	cc
 80044e2:	2304      	movcc	r3, #4
 80044e4:	430b      	orrs	r3, r1
 80044e6:	61eb      	str	r3, [r5, #28]
  MODIFY_REG(hi2c->Instance->CR1, (I2C_CR1_ENGC | I2C_CR1_NOSTRETCH), (hi2c->Init.GeneralCallMode | hi2c->Init.NoStretchMode));
 80044e8:	6821      	ldr	r1, [r4, #0]
 80044ea:	680b      	ldr	r3, [r1, #0]
 80044ec:	f023 03c0 	bic.w	r3, r3, #192	; 0xc0
 80044f0:	69e2      	ldr	r2, [r4, #28]
 80044f2:	6a20      	ldr	r0, [r4, #32]
 80044f4:	4302      	orrs	r2, r0
 80044f6:	4313      	orrs	r3, r2
 80044f8:	600b      	str	r3, [r1, #0]
  MODIFY_REG(hi2c->Instance->OAR1, (I2C_OAR1_ADDMODE | I2C_OAR1_ADD8_9 | I2C_OAR1_ADD1_7 | I2C_OAR1_ADD0), (hi2c->Init.AddressingMode | hi2c->Init.OwnAddress1));
 80044fa:	6821      	ldr	r1, [r4, #0]
 80044fc:	688b      	ldr	r3, [r1, #8]
 80044fe:	f423 4303 	bic.w	r3, r3, #33536	; 0x8300
 8004502:	f023 03ff 	bic.w	r3, r3, #255	; 0xff
 8004506:	6922      	ldr	r2, [r4, #16]
 8004508:	68e0      	ldr	r0, [r4, #12]
 800450a:	4302      	orrs	r2, r0
 800450c:	4313      	orrs	r3, r2
 800450e:	608b      	str	r3, [r1, #8]
  MODIFY_REG(hi2c->Instance->OAR2, (I2C_OAR2_ENDUAL | I2C_OAR2_ADD2), (hi2c->Init.DualAddressMode | hi2c->Init.OwnAddress2));
 8004510:	6821      	ldr	r1, [r4, #0]
 8004512:	68cb      	ldr	r3, [r1, #12]
 8004514:	f023 03ff 	bic.w	r3, r3, #255	; 0xff
 8004518:	6962      	ldr	r2, [r4, #20]
 800451a:	69a0      	ldr	r0, [r4, #24]
 800451c:	4302      	orrs	r2, r0
 800451e:	4313      	orrs	r3, r2
 8004520:	60cb      	str	r3, [r1, #12]
  __HAL_I2C_ENABLE(hi2c);
 8004522:	6822      	ldr	r2, [r4, #0]
 8004524:	6813      	ldr	r3, [r2, #0]
 8004526:	f043 0301 	orr.w	r3, r3, #1
 800452a:	6013      	str	r3, [r2, #0]
  hi2c->ErrorCode = HAL_I2C_ERROR_NONE;
 800452c:	2000      	movs	r0, #0
 800452e:	6420      	str	r0, [r4, #64]	; 0x40
  hi2c->State = HAL_I2C_STATE_READY;
 8004530:	2320      	movs	r3, #32
 8004532:	f884 303d 	strb.w	r3, [r4, #61]	; 0x3d
  hi2c->PreviousState = I2C_STATE_NONE;
 8004536:	6320      	str	r0, [r4, #48]	; 0x30
  hi2c->Mode = HAL_I2C_MODE_NONE;
 8004538:	f884 003e 	strb.w	r0, [r4, #62]	; 0x3e
}
 800453c:	bdf8      	pop	{r3, r4, r5, r6, r7, pc}
    hi2c->Lock = HAL_UNLOCKED;
 800453e:	f880 303c 	strb.w	r3, [r0, #60]	; 0x3c
    HAL_I2C_MspInit(hi2c);
 8004542:	f002 fdb3 	bl	80070ac <HAL_I2C_MspInit>
 8004546:	e78e      	b.n	8004466 <HAL_I2C_Init+0x12>
  if (I2C_MIN_PCLK_FREQ(pclk1, hi2c->Init.ClockSpeed) == 1U)
 8004548:	4b28      	ldr	r3, [pc, #160]	; (80045ec <HAL_I2C_Init+0x198>)
 800454a:	4298      	cmp	r0, r3
 800454c:	bf8c      	ite	hi
 800454e:	2300      	movhi	r3, #0
 8004550:	2301      	movls	r3, #1
 8004552:	e79b      	b.n	800448c <HAL_I2C_Init+0x38>
  MODIFY_REG(hi2c->Instance->TRISE, I2C_TRISE_TRISE, I2C_RISE_TIME(freqrange, hi2c->Init.ClockSpeed));
 8004554:	f44f 7196 	mov.w	r1, #300	; 0x12c
 8004558:	fb01 f303 	mul.w	r3, r1, r3
 800455c:	4924      	ldr	r1, [pc, #144]	; (80045f0 <HAL_I2C_Init+0x19c>)
 800455e:	fba1 1303 	umull	r1, r3, r1, r3
 8004562:	099b      	lsrs	r3, r3, #6
 8004564:	3301      	adds	r3, #1
 8004566:	e7a7      	b.n	80044b8 <HAL_I2C_Init+0x64>
  MODIFY_REG(hi2c->Instance->CCR, (I2C_CCR_FS | I2C_CCR_DUTY | I2C_CCR_CCR), I2C_SPEED(pclk1, hi2c->Init.ClockSpeed, hi2c->Init.DutyCycle));
 8004568:	68a2      	ldr	r2, [r4, #8]
 800456a:	b9ba      	cbnz	r2, 800459c <HAL_I2C_Init+0x148>
 800456c:	1e46      	subs	r6, r0, #1
 800456e:	eb03 0743 	add.w	r7, r3, r3, lsl #1
 8004572:	fbb6 f6f7 	udiv	r6, r6, r7
 8004576:	3601      	adds	r6, #1
 8004578:	f3c6 060b 	ubfx	r6, r6, #0, #12
 800457c:	fab6 f686 	clz	r6, r6
 8004580:	0976      	lsrs	r6, r6, #5
 8004582:	bb36      	cbnz	r6, 80045d2 <HAL_I2C_Init+0x17e>
 8004584:	b9c2      	cbnz	r2, 80045b8 <HAL_I2C_Init+0x164>
 8004586:	3801      	subs	r0, #1
 8004588:	eb03 0343 	add.w	r3, r3, r3, lsl #1
 800458c:	fbb0 f3f3 	udiv	r3, r0, r3
 8004590:	3301      	adds	r3, #1
 8004592:	f3c3 020b 	ubfx	r2, r3, #0, #12
 8004596:	f442 4300 	orr.w	r3, r2, #32768	; 0x8000
 800459a:	e7a3      	b.n	80044e4 <HAL_I2C_Init+0x90>
 800459c:	1e46      	subs	r6, r0, #1
 800459e:	eb03 0783 	add.w	r7, r3, r3, lsl #2
 80045a2:	eb07 0787 	add.w	r7, r7, r7, lsl #2
 80045a6:	fbb6 f6f7 	udiv	r6, r6, r7
 80045aa:	3601      	adds	r6, #1
 80045ac:	f3c6 060b 	ubfx	r6, r6, #0, #12
 80045b0:	fab6 f686 	clz	r6, r6
 80045b4:	0976      	lsrs	r6, r6, #5
 80045b6:	e7e4      	b.n	8004582 <HAL_I2C_Init+0x12e>
 80045b8:	3801      	subs	r0, #1
 80045ba:	eb03 0383 	add.w	r3, r3, r3, lsl #2
 80045be:	eb03 0383 	add.w	r3, r3, r3, lsl #2
 80045c2:	fbb0 f2f3 	udiv	r2, r0, r3
 80045c6:	3201      	adds	r2, #1
 80045c8:	f3c2 020b 	ubfx	r2, r2, #0, #12
 80045cc:	f442 4340 	orr.w	r3, r2, #49152	; 0xc000
 80045d0:	e788      	b.n	80044e4 <HAL_I2C_Init+0x90>
 80045d2:	2301      	movs	r3, #1
 80045d4:	e786      	b.n	80044e4 <HAL_I2C_Init+0x90>
    return HAL_ERROR;
 80045d6:	2001      	movs	r0, #1
}
 80045d8:	4770      	bx	lr
    return HAL_ERROR;
 80045da:	2001      	movs	r0, #1
 80045dc:	e7ae      	b.n	800453c <HAL_I2C_Init+0xe8>
 80045de:	bf00      	nop
 80045e0:	000186a0 	.word	0x000186a0
 80045e4:	001e847f 	.word	0x001e847f
 80045e8:	431bde83 	.word	0x431bde83
 80045ec:	003d08ff 	.word	0x003d08ff
 80045f0:	10624dd3 	.word	0x10624dd3

080045f4 <HAL_I2C_Master_Transmit>:
{
 80045f4:	e92d 41f0 	stmdb	sp!, {r4, r5, r6, r7, r8, lr}
 80045f8:	b084      	sub	sp, #16
 80045fa:	4604      	mov	r4, r0
 80045fc:	460e      	mov	r6, r1
 80045fe:	4690      	mov	r8, r2
 8004600:	461f      	mov	r7, r3
  uint32_t tickstart = HAL_GetTick();
 8004602:	f7ff f849 	bl	8003698 <HAL_GetTick>
  if (hi2c->State == HAL_I2C_STATE_READY)
 8004606:	f894 303d 	ldrb.w	r3, [r4, #61]	; 0x3d
 800460a:	b2db      	uxtb	r3, r3
 800460c:	2b20      	cmp	r3, #32
 800460e:	d004      	beq.n	800461a <HAL_I2C_Master_Transmit+0x26>
    return HAL_BUSY;
 8004610:	2602      	movs	r6, #2
}
 8004612:	4630      	mov	r0, r6
 8004614:	b004      	add	sp, #16
 8004616:	e8bd 81f0 	ldmia.w	sp!, {r4, r5, r6, r7, r8, pc}
 800461a:	4605      	mov	r5, r0
    if (I2C_WaitOnFlagUntilTimeout(hi2c, I2C_FLAG_BUSY, SET, I2C_TIMEOUT_BUSY_FLAG, tickstart) != HAL_OK)
 800461c:	9000      	str	r0, [sp, #0]
 800461e:	2319      	movs	r3, #25
 8004620:	2201      	movs	r2, #1
 8004622:	494f      	ldr	r1, [pc, #316]	; (8004760 <HAL_I2C_Master_Transmit+0x16c>)
 8004624:	4620      	mov	r0, r4
 8004626:	f7ff fd2a 	bl	800407e <I2C_WaitOnFlagUntilTimeout>
 800462a:	2800      	cmp	r0, #0
 800462c:	f040 8091 	bne.w	8004752 <HAL_I2C_Master_Transmit+0x15e>
    __HAL_LOCK(hi2c);
 8004630:	f894 303c 	ldrb.w	r3, [r4, #60]	; 0x3c
 8004634:	2b01      	cmp	r3, #1
 8004636:	f000 808e 	beq.w	8004756 <HAL_I2C_Master_Transmit+0x162>
 800463a:	2301      	movs	r3, #1
 800463c:	f884 303c 	strb.w	r3, [r4, #60]	; 0x3c
    if ((hi2c->Instance->CR1 & I2C_CR1_PE) != I2C_CR1_PE)
 8004640:	6823      	ldr	r3, [r4, #0]
 8004642:	681a      	ldr	r2, [r3, #0]
 8004644:	f012 0f01 	tst.w	r2, #1
 8004648:	d103      	bne.n	8004652 <HAL_I2C_Master_Transmit+0x5e>
      __HAL_I2C_ENABLE(hi2c);
 800464a:	681a      	ldr	r2, [r3, #0]
 800464c:	f042 0201 	orr.w	r2, r2, #1
 8004650:	601a      	str	r2, [r3, #0]
    CLEAR_BIT(hi2c->Instance->CR1, I2C_CR1_POS);
 8004652:	6822      	ldr	r2, [r4, #0]
 8004654:	6813      	ldr	r3, [r2, #0]
 8004656:	f423 6300 	bic.w	r3, r3, #2048	; 0x800
 800465a:	6013      	str	r3, [r2, #0]
    hi2c->State       = HAL_I2C_STATE_BUSY_TX;
 800465c:	2321      	movs	r3, #33	; 0x21
 800465e:	f884 303d 	strb.w	r3, [r4, #61]	; 0x3d
    hi2c->Mode        = HAL_I2C_MODE_MASTER;
 8004662:	2310      	movs	r3, #16
 8004664:	f884 303e 	strb.w	r3, [r4, #62]	; 0x3e
    hi2c->ErrorCode   = HAL_I2C_ERROR_NONE;
 8004668:	2300      	movs	r3, #0
 800466a:	6423      	str	r3, [r4, #64]	; 0x40
    hi2c->pBuffPtr    = pData;
 800466c:	f8c4 8024 	str.w	r8, [r4, #36]	; 0x24
    hi2c->XferCount   = Size;
 8004670:	8567      	strh	r7, [r4, #42]	; 0x2a
    hi2c->XferSize    = hi2c->XferCount;
 8004672:	8d63      	ldrh	r3, [r4, #42]	; 0x2a
 8004674:	8523      	strh	r3, [r4, #40]	; 0x28
    hi2c->XferOptions = I2C_NO_OPTION_FRAME;
 8004676:	4b3b      	ldr	r3, [pc, #236]	; (8004764 <HAL_I2C_Master_Transmit+0x170>)
 8004678:	62e3      	str	r3, [r4, #44]	; 0x2c
    if (I2C_MasterRequestWrite(hi2c, DevAddress, Timeout, tickstart) != HAL_OK)
 800467a:	462b      	mov	r3, r5
 800467c:	9a0a      	ldr	r2, [sp, #40]	; 0x28
 800467e:	4631      	mov	r1, r6
 8004680:	4620      	mov	r0, r4
 8004682:	f7ff fd87 	bl	8004194 <I2C_MasterRequestWrite>
 8004686:	4606      	mov	r6, r0
 8004688:	2800      	cmp	r0, #0
 800468a:	d166      	bne.n	800475a <HAL_I2C_Master_Transmit+0x166>
    __HAL_I2C_CLEAR_ADDRFLAG(hi2c);
 800468c:	2300      	movs	r3, #0
 800468e:	9303      	str	r3, [sp, #12]
 8004690:	6823      	ldr	r3, [r4, #0]
 8004692:	695a      	ldr	r2, [r3, #20]
 8004694:	9203      	str	r2, [sp, #12]
 8004696:	699b      	ldr	r3, [r3, #24]
 8004698:	9303      	str	r3, [sp, #12]
 800469a:	9b03      	ldr	r3, [sp, #12]
    while (hi2c->XferSize > 0U)
 800469c:	e012      	b.n	80046c4 <HAL_I2C_Master_Transmit+0xd0>
        if (hi2c->ErrorCode == HAL_I2C_ERROR_AF)
 800469e:	6c23      	ldr	r3, [r4, #64]	; 0x40
 80046a0:	2b04      	cmp	r3, #4
 80046a2:	d001      	beq.n	80046a8 <HAL_I2C_Master_Transmit+0xb4>
        return HAL_ERROR;
 80046a4:	2601      	movs	r6, #1
 80046a6:	e7b4      	b.n	8004612 <HAL_I2C_Master_Transmit+0x1e>
          SET_BIT(hi2c->Instance->CR1, I2C_CR1_STOP);
 80046a8:	6822      	ldr	r2, [r4, #0]
 80046aa:	6813      	ldr	r3, [r2, #0]
 80046ac:	f443 7300 	orr.w	r3, r3, #512	; 0x200
 80046b0:	6013      	str	r3, [r2, #0]
        return HAL_ERROR;
 80046b2:	2601      	movs	r6, #1
 80046b4:	e7ad      	b.n	8004612 <HAL_I2C_Master_Transmit+0x1e>
      if (I2C_WaitOnBTFFlagUntilTimeout(hi2c, Timeout, tickstart) != HAL_OK)
 80046b6:	462a      	mov	r2, r5
 80046b8:	990a      	ldr	r1, [sp, #40]	; 0x28
 80046ba:	4620      	mov	r0, r4
 80046bc:	f7ff fe6a 	bl	8004394 <I2C_WaitOnBTFFlagUntilTimeout>
 80046c0:	2800      	cmp	r0, #0
 80046c2:	d12c      	bne.n	800471e <HAL_I2C_Master_Transmit+0x12a>
    while (hi2c->XferSize > 0U)
 80046c4:	8d23      	ldrh	r3, [r4, #40]	; 0x28
 80046c6:	2b00      	cmp	r3, #0
 80046c8:	d035      	beq.n	8004736 <HAL_I2C_Master_Transmit+0x142>
      if (I2C_WaitOnTXEFlagUntilTimeout(hi2c, Timeout, tickstart) != HAL_OK)
 80046ca:	462a      	mov	r2, r5
 80046cc:	990a      	ldr	r1, [sp, #40]	; 0x28
 80046ce:	4620      	mov	r0, r4
 80046d0:	f7ff fe36 	bl	8004340 <I2C_WaitOnTXEFlagUntilTimeout>
 80046d4:	2800      	cmp	r0, #0
 80046d6:	d1e2      	bne.n	800469e <HAL_I2C_Master_Transmit+0xaa>
      hi2c->Instance->DR = *hi2c->pBuffPtr;
 80046d8:	6a62      	ldr	r2, [r4, #36]	; 0x24
 80046da:	6823      	ldr	r3, [r4, #0]
 80046dc:	7812      	ldrb	r2, [r2, #0]
 80046de:	611a      	str	r2, [r3, #16]
      hi2c->pBuffPtr++;
 80046e0:	6a61      	ldr	r1, [r4, #36]	; 0x24
 80046e2:	1c4b      	adds	r3, r1, #1
 80046e4:	6263      	str	r3, [r4, #36]	; 0x24
      hi2c->XferCount--;
 80046e6:	8d63      	ldrh	r3, [r4, #42]	; 0x2a
 80046e8:	3b01      	subs	r3, #1
 80046ea:	b29b      	uxth	r3, r3
 80046ec:	8563      	strh	r3, [r4, #42]	; 0x2a
      hi2c->XferSize--;
 80046ee:	8d23      	ldrh	r3, [r4, #40]	; 0x28
 80046f0:	3b01      	subs	r3, #1
 80046f2:	b29b      	uxth	r3, r3
 80046f4:	8523      	strh	r3, [r4, #40]	; 0x28
      if ((__HAL_I2C_GET_FLAG(hi2c, I2C_FLAG_BTF) == SET) && (hi2c->XferSize != 0U))
 80046f6:	6822      	ldr	r2, [r4, #0]
 80046f8:	6950      	ldr	r0, [r2, #20]
 80046fa:	f010 0f04 	tst.w	r0, #4
 80046fe:	d0da      	beq.n	80046b6 <HAL_I2C_Master_Transmit+0xc2>
 8004700:	2b00      	cmp	r3, #0
 8004702:	d0d8      	beq.n	80046b6 <HAL_I2C_Master_Transmit+0xc2>
        hi2c->Instance->DR = *hi2c->pBuffPtr;
 8004704:	784b      	ldrb	r3, [r1, #1]
 8004706:	6113      	str	r3, [r2, #16]
        hi2c->pBuffPtr++;
 8004708:	6a63      	ldr	r3, [r4, #36]	; 0x24
 800470a:	3301      	adds	r3, #1
 800470c:	6263      	str	r3, [r4, #36]	; 0x24
        hi2c->XferCount--;
 800470e:	8d63      	ldrh	r3, [r4, #42]	; 0x2a
 8004710:	3b01      	subs	r3, #1
 8004712:	b29b      	uxth	r3, r3
 8004714:	8563      	strh	r3, [r4, #42]	; 0x2a
        hi2c->XferSize--;
 8004716:	8d23      	ldrh	r3, [r4, #40]	; 0x28
 8004718:	3b01      	subs	r3, #1
 800471a:	8523      	strh	r3, [r4, #40]	; 0x28
 800471c:	e7cb      	b.n	80046b6 <HAL_I2C_Master_Transmit+0xc2>
        if (hi2c->ErrorCode == HAL_I2C_ERROR_AF)
 800471e:	6c23      	ldr	r3, [r4, #64]	; 0x40
 8004720:	2b04      	cmp	r3, #4
 8004722:	d001      	beq.n	8004728 <HAL_I2C_Master_Transmit+0x134>
        return HAL_ERROR;
 8004724:	2601      	movs	r6, #1
 8004726:	e774      	b.n	8004612 <HAL_I2C_Master_Transmit+0x1e>
          SET_BIT(hi2c->Instance->CR1, I2C_CR1_STOP);
 8004728:	6822      	ldr	r2, [r4, #0]
 800472a:	6813      	ldr	r3, [r2, #0]
 800472c:	f443 7300 	orr.w	r3, r3, #512	; 0x200
 8004730:	6013      	str	r3, [r2, #0]
        return HAL_ERROR;
 8004732:	2601      	movs	r6, #1
 8004734:	e76d      	b.n	8004612 <HAL_I2C_Master_Transmit+0x1e>
    SET_BIT(hi2c->Instance->CR1, I2C_CR1_STOP);
 8004736:	6822      	ldr	r2, [r4, #0]
 8004738:	6813      	ldr	r3, [r2, #0]
 800473a:	f443 7300 	orr.w	r3, r3, #512	; 0x200
 800473e:	6013      	str	r3, [r2, #0]
    hi2c->State = HAL_I2C_STATE_READY;
 8004740:	2320      	movs	r3, #32
 8004742:	f884 303d 	strb.w	r3, [r4, #61]	; 0x3d
    hi2c->Mode = HAL_I2C_MODE_NONE;
 8004746:	2300      	movs	r3, #0
 8004748:	f884 303e 	strb.w	r3, [r4, #62]	; 0x3e
    __HAL_UNLOCK(hi2c);
 800474c:	f884 303c 	strb.w	r3, [r4, #60]	; 0x3c
    return HAL_OK;
 8004750:	e75f      	b.n	8004612 <HAL_I2C_Master_Transmit+0x1e>
      return HAL_BUSY;
 8004752:	2602      	movs	r6, #2
 8004754:	e75d      	b.n	8004612 <HAL_I2C_Master_Transmit+0x1e>
    __HAL_LOCK(hi2c);
 8004756:	2602      	movs	r6, #2
 8004758:	e75b      	b.n	8004612 <HAL_I2C_Master_Transmit+0x1e>
      return HAL_ERROR;
 800475a:	2601      	movs	r6, #1
 800475c:	e759      	b.n	8004612 <HAL_I2C_Master_Transmit+0x1e>
 800475e:	bf00      	nop
 8004760:	00100002 	.word	0x00100002
 8004764:	ffff0000 	.word	0xffff0000

08004768 <HAL_I2C_Master_Receive>:
{
 8004768:	e92d 41f0 	stmdb	sp!, {r4, r5, r6, r7, r8, lr}
 800476c:	b086      	sub	sp, #24
 800476e:	4604      	mov	r4, r0
 8004770:	460e      	mov	r6, r1
 8004772:	4690      	mov	r8, r2
 8004774:	461f      	mov	r7, r3
  uint32_t tickstart = HAL_GetTick();
 8004776:	f7fe ff8f 	bl	8003698 <HAL_GetTick>
  if (hi2c->State == HAL_I2C_STATE_READY)
 800477a:	f894 303d 	ldrb.w	r3, [r4, #61]	; 0x3d
 800477e:	b2db      	uxtb	r3, r3
 8004780:	2b20      	cmp	r3, #32
 8004782:	d004      	beq.n	800478e <HAL_I2C_Master_Receive+0x26>
    return HAL_BUSY;
 8004784:	2602      	movs	r6, #2
}
 8004786:	4630      	mov	r0, r6
 8004788:	b006      	add	sp, #24
 800478a:	e8bd 81f0 	ldmia.w	sp!, {r4, r5, r6, r7, r8, pc}
 800478e:	4605      	mov	r5, r0
    if (I2C_WaitOnFlagUntilTimeout(hi2c, I2C_FLAG_BUSY, SET, I2C_TIMEOUT_BUSY_FLAG, tickstart) != HAL_OK)
 8004790:	9000      	str	r0, [sp, #0]
 8004792:	2319      	movs	r3, #25
 8004794:	2201      	movs	r2, #1
 8004796:	499e      	ldr	r1, [pc, #632]	; (8004a10 <HAL_I2C_Master_Receive+0x2a8>)
 8004798:	4620      	mov	r0, r4
 800479a:	f7ff fc70 	bl	800407e <I2C_WaitOnFlagUntilTimeout>
 800479e:	2800      	cmp	r0, #0
 80047a0:	f040 8134 	bne.w	8004a0c <HAL_I2C_Master_Receive+0x2a4>
    __HAL_LOCK(hi2c);
 80047a4:	f894 303c 	ldrb.w	r3, [r4, #60]	; 0x3c
 80047a8:	2b01      	cmp	r3, #1
 80047aa:	f000 8137 	beq.w	8004a1c <HAL_I2C_Master_Receive+0x2b4>
 80047ae:	2301      	movs	r3, #1
 80047b0:	f884 303c 	strb.w	r3, [r4, #60]	; 0x3c
    if ((hi2c->Instance->CR1 & I2C_CR1_PE) != I2C_CR1_PE)
 80047b4:	6823      	ldr	r3, [r4, #0]
 80047b6:	681a      	ldr	r2, [r3, #0]
 80047b8:	f012 0f01 	tst.w	r2, #1
 80047bc:	d103      	bne.n	80047c6 <HAL_I2C_Master_Receive+0x5e>
      __HAL_I2C_ENABLE(hi2c);
 80047be:	681a      	ldr	r2, [r3, #0]
 80047c0:	f042 0201 	orr.w	r2, r2, #1
 80047c4:	601a      	str	r2, [r3, #0]
    CLEAR_BIT(hi2c->Instance->CR1, I2C_CR1_POS);
 80047c6:	6822      	ldr	r2, [r4, #0]
 80047c8:	6813      	ldr	r3, [r2, #0]
 80047ca:	f423 6300 	bic.w	r3, r3, #2048	; 0x800
 80047ce:	6013      	str	r3, [r2, #0]
    hi2c->State       = HAL_I2C_STATE_BUSY_RX;
 80047d0:	2322      	movs	r3, #34	; 0x22
 80047d2:	f884 303d 	strb.w	r3, [r4, #61]	; 0x3d
    hi2c->Mode        = HAL_I2C_MODE_MASTER;
 80047d6:	2310      	movs	r3, #16
 80047d8:	f884 303e 	strb.w	r3, [r4, #62]	; 0x3e
    hi2c->ErrorCode   = HAL_I2C_ERROR_NONE;
 80047dc:	2300      	movs	r3, #0
 80047de:	6423      	str	r3, [r4, #64]	; 0x40
    hi2c->pBuffPtr    = pData;
 80047e0:	f8c4 8024 	str.w	r8, [r4, #36]	; 0x24
    hi2c->XferCount   = Size;
 80047e4:	8567      	strh	r7, [r4, #42]	; 0x2a
    hi2c->XferSize    = hi2c->XferCount;
 80047e6:	8d63      	ldrh	r3, [r4, #42]	; 0x2a
 80047e8:	8523      	strh	r3, [r4, #40]	; 0x28
    hi2c->XferOptions = I2C_NO_OPTION_FRAME;
 80047ea:	4b8a      	ldr	r3, [pc, #552]	; (8004a14 <HAL_I2C_Master_Receive+0x2ac>)
 80047ec:	62e3      	str	r3, [r4, #44]	; 0x2c
    if (I2C_MasterRequestRead(hi2c, DevAddress, Timeout, tickstart) != HAL_OK)
 80047ee:	462b      	mov	r3, r5
 80047f0:	9a0c      	ldr	r2, [sp, #48]	; 0x30
 80047f2:	4631      	mov	r1, r6
 80047f4:	4620      	mov	r0, r4
 80047f6:	f7ff fd21 	bl	800423c <I2C_MasterRequestRead>
 80047fa:	4606      	mov	r6, r0
 80047fc:	2800      	cmp	r0, #0
 80047fe:	f040 810f 	bne.w	8004a20 <HAL_I2C_Master_Receive+0x2b8>
    if (hi2c->XferSize == 0U)
 8004802:	8d23      	ldrh	r3, [r4, #40]	; 0x28
 8004804:	b95b      	cbnz	r3, 800481e <HAL_I2C_Master_Receive+0xb6>
      __HAL_I2C_CLEAR_ADDRFLAG(hi2c);
 8004806:	9302      	str	r3, [sp, #8]
 8004808:	6823      	ldr	r3, [r4, #0]
 800480a:	695a      	ldr	r2, [r3, #20]
 800480c:	9202      	str	r2, [sp, #8]
 800480e:	699a      	ldr	r2, [r3, #24]
 8004810:	9202      	str	r2, [sp, #8]
 8004812:	9a02      	ldr	r2, [sp, #8]
      SET_BIT(hi2c->Instance->CR1, I2C_CR1_STOP);
 8004814:	681a      	ldr	r2, [r3, #0]
 8004816:	f442 7200 	orr.w	r2, r2, #512	; 0x200
 800481a:	601a      	str	r2, [r3, #0]
 800481c:	e077      	b.n	800490e <HAL_I2C_Master_Receive+0x1a6>
    else if (hi2c->XferSize == 1U)
 800481e:	2b01      	cmp	r3, #1
 8004820:	d00f      	beq.n	8004842 <HAL_I2C_Master_Receive+0xda>
    else if (hi2c->XferSize == 2U)
 8004822:	2b02      	cmp	r3, #2
 8004824:	d01f      	beq.n	8004866 <HAL_I2C_Master_Receive+0xfe>
      SET_BIT(hi2c->Instance->CR1, I2C_CR1_ACK);
 8004826:	6822      	ldr	r2, [r4, #0]
 8004828:	6813      	ldr	r3, [r2, #0]
 800482a:	f443 6380 	orr.w	r3, r3, #1024	; 0x400
 800482e:	6013      	str	r3, [r2, #0]
      __HAL_I2C_CLEAR_ADDRFLAG(hi2c);
 8004830:	2300      	movs	r3, #0
 8004832:	9305      	str	r3, [sp, #20]
 8004834:	6823      	ldr	r3, [r4, #0]
 8004836:	695a      	ldr	r2, [r3, #20]
 8004838:	9205      	str	r2, [sp, #20]
 800483a:	699b      	ldr	r3, [r3, #24]
 800483c:	9305      	str	r3, [sp, #20]
 800483e:	9b05      	ldr	r3, [sp, #20]
 8004840:	e065      	b.n	800490e <HAL_I2C_Master_Receive+0x1a6>
      CLEAR_BIT(hi2c->Instance->CR1, I2C_CR1_ACK);
 8004842:	6822      	ldr	r2, [r4, #0]
 8004844:	6813      	ldr	r3, [r2, #0]
 8004846:	f423 6380 	bic.w	r3, r3, #1024	; 0x400
 800484a:	6013      	str	r3, [r2, #0]
      __HAL_I2C_CLEAR_ADDRFLAG(hi2c);
 800484c:	2300      	movs	r3, #0
 800484e:	9303      	str	r3, [sp, #12]
 8004850:	6823      	ldr	r3, [r4, #0]
 8004852:	695a      	ldr	r2, [r3, #20]
 8004854:	9203      	str	r2, [sp, #12]
 8004856:	699a      	ldr	r2, [r3, #24]
 8004858:	9203      	str	r2, [sp, #12]
 800485a:	9a03      	ldr	r2, [sp, #12]
      SET_BIT(hi2c->Instance->CR1, I2C_CR1_STOP);
 800485c:	681a      	ldr	r2, [r3, #0]
 800485e:	f442 7200 	orr.w	r2, r2, #512	; 0x200
 8004862:	601a      	str	r2, [r3, #0]
 8004864:	e053      	b.n	800490e <HAL_I2C_Master_Receive+0x1a6>
      CLEAR_BIT(hi2c->Instance->CR1, I2C_CR1_ACK);
 8004866:	6822      	ldr	r2, [r4, #0]
 8004868:	6813      	ldr	r3, [r2, #0]
 800486a:	f423 6380 	bic.w	r3, r3, #1024	; 0x400
 800486e:	6013      	str	r3, [r2, #0]
      SET_BIT(hi2c->Instance->CR1, I2C_CR1_POS);
 8004870:	6822      	ldr	r2, [r4, #0]
 8004872:	6813      	ldr	r3, [r2, #0]
 8004874:	f443 6300 	orr.w	r3, r3, #2048	; 0x800
 8004878:	6013      	str	r3, [r2, #0]
      __HAL_I2C_CLEAR_ADDRFLAG(hi2c);
 800487a:	2300      	movs	r3, #0
 800487c:	9304      	str	r3, [sp, #16]
 800487e:	6823      	ldr	r3, [r4, #0]
 8004880:	695a      	ldr	r2, [r3, #20]
 8004882:	9204      	str	r2, [sp, #16]
 8004884:	699b      	ldr	r3, [r3, #24]
 8004886:	9304      	str	r3, [sp, #16]
 8004888:	9b04      	ldr	r3, [sp, #16]
 800488a:	e040      	b.n	800490e <HAL_I2C_Master_Receive+0x1a6>
          if (I2C_WaitOnRXNEFlagUntilTimeout(hi2c, Timeout, tickstart) != HAL_OK)
 800488c:	462a      	mov	r2, r5
 800488e:	990c      	ldr	r1, [sp, #48]	; 0x30
 8004890:	4620      	mov	r0, r4
 8004892:	f7ff fda9 	bl	80043e8 <I2C_WaitOnRXNEFlagUntilTimeout>
 8004896:	2800      	cmp	r0, #0
 8004898:	f040 80c4 	bne.w	8004a24 <HAL_I2C_Master_Receive+0x2bc>
          *hi2c->pBuffPtr = (uint8_t)hi2c->Instance->DR;
 800489c:	6823      	ldr	r3, [r4, #0]
 800489e:	691a      	ldr	r2, [r3, #16]
 80048a0:	6a63      	ldr	r3, [r4, #36]	; 0x24
 80048a2:	701a      	strb	r2, [r3, #0]
          hi2c->pBuffPtr++;
 80048a4:	6a63      	ldr	r3, [r4, #36]	; 0x24
 80048a6:	3301      	adds	r3, #1
 80048a8:	6263      	str	r3, [r4, #36]	; 0x24
          hi2c->XferSize--;
 80048aa:	8d23      	ldrh	r3, [r4, #40]	; 0x28
 80048ac:	3b01      	subs	r3, #1
 80048ae:	8523      	strh	r3, [r4, #40]	; 0x28
          hi2c->XferCount--;
 80048b0:	8d63      	ldrh	r3, [r4, #42]	; 0x2a
 80048b2:	3b01      	subs	r3, #1
 80048b4:	b29b      	uxth	r3, r3
 80048b6:	8563      	strh	r3, [r4, #42]	; 0x2a
 80048b8:	e029      	b.n	800490e <HAL_I2C_Master_Receive+0x1a6>
          if (I2C_WaitOnFlagUntilTimeout(hi2c, I2C_FLAG_BTF, RESET, Timeout, tickstart) != HAL_OK)
 80048ba:	9500      	str	r5, [sp, #0]
 80048bc:	9b0c      	ldr	r3, [sp, #48]	; 0x30
 80048be:	2200      	movs	r2, #0
 80048c0:	4955      	ldr	r1, [pc, #340]	; (8004a18 <HAL_I2C_Master_Receive+0x2b0>)
 80048c2:	4620      	mov	r0, r4
 80048c4:	f7ff fbdb 	bl	800407e <I2C_WaitOnFlagUntilTimeout>
 80048c8:	2800      	cmp	r0, #0
 80048ca:	f040 80ad 	bne.w	8004a28 <HAL_I2C_Master_Receive+0x2c0>
          SET_BIT(hi2c->Instance->CR1, I2C_CR1_STOP);
 80048ce:	6822      	ldr	r2, [r4, #0]
 80048d0:	6813      	ldr	r3, [r2, #0]
 80048d2:	f443 7300 	orr.w	r3, r3, #512	; 0x200
 80048d6:	6013      	str	r3, [r2, #0]
          *hi2c->pBuffPtr = (uint8_t)hi2c->Instance->DR;
 80048d8:	6823      	ldr	r3, [r4, #0]
 80048da:	691a      	ldr	r2, [r3, #16]
 80048dc:	6a63      	ldr	r3, [r4, #36]	; 0x24
 80048de:	701a      	strb	r2, [r3, #0]
          hi2c->pBuffPtr++;
 80048e0:	6a62      	ldr	r2, [r4, #36]	; 0x24
 80048e2:	1c53      	adds	r3, r2, #1
 80048e4:	6263      	str	r3, [r4, #36]	; 0x24
          hi2c->XferSize--;
 80048e6:	8d23      	ldrh	r3, [r4, #40]	; 0x28
 80048e8:	3b01      	subs	r3, #1
 80048ea:	8523      	strh	r3, [r4, #40]	; 0x28
          hi2c->XferCount--;
 80048ec:	8d63      	ldrh	r3, [r4, #42]	; 0x2a
 80048ee:	3b01      	subs	r3, #1
 80048f0:	b29b      	uxth	r3, r3
 80048f2:	8563      	strh	r3, [r4, #42]	; 0x2a
          *hi2c->pBuffPtr = (uint8_t)hi2c->Instance->DR;
 80048f4:	6823      	ldr	r3, [r4, #0]
 80048f6:	691b      	ldr	r3, [r3, #16]
 80048f8:	7053      	strb	r3, [r2, #1]
          hi2c->pBuffPtr++;
 80048fa:	6a63      	ldr	r3, [r4, #36]	; 0x24
 80048fc:	3301      	adds	r3, #1
 80048fe:	6263      	str	r3, [r4, #36]	; 0x24
          hi2c->XferSize--;
 8004900:	8d23      	ldrh	r3, [r4, #40]	; 0x28
 8004902:	3b01      	subs	r3, #1
 8004904:	8523      	strh	r3, [r4, #40]	; 0x28
          hi2c->XferCount--;
 8004906:	8d63      	ldrh	r3, [r4, #42]	; 0x2a
 8004908:	3b01      	subs	r3, #1
 800490a:	b29b      	uxth	r3, r3
 800490c:	8563      	strh	r3, [r4, #42]	; 0x2a
    while (hi2c->XferSize > 0U)
 800490e:	8d23      	ldrh	r3, [r4, #40]	; 0x28
 8004910:	2b00      	cmp	r3, #0
 8004912:	d072      	beq.n	80049fa <HAL_I2C_Master_Receive+0x292>
      if (hi2c->XferSize <= 3U)
 8004914:	2b03      	cmp	r3, #3
 8004916:	d849      	bhi.n	80049ac <HAL_I2C_Master_Receive+0x244>
        if (hi2c->XferSize == 1U)
 8004918:	2b01      	cmp	r3, #1
 800491a:	d0b7      	beq.n	800488c <HAL_I2C_Master_Receive+0x124>
        else if (hi2c->XferSize == 2U)
 800491c:	2b02      	cmp	r3, #2
 800491e:	d0cc      	beq.n	80048ba <HAL_I2C_Master_Receive+0x152>
          if (I2C_WaitOnFlagUntilTimeout(hi2c, I2C_FLAG_BTF, RESET, Timeout, tickstart) != HAL_OK)
 8004920:	9500      	str	r5, [sp, #0]
 8004922:	9b0c      	ldr	r3, [sp, #48]	; 0x30
 8004924:	2200      	movs	r2, #0
 8004926:	493c      	ldr	r1, [pc, #240]	; (8004a18 <HAL_I2C_Master_Receive+0x2b0>)
 8004928:	4620      	mov	r0, r4
 800492a:	f7ff fba8 	bl	800407e <I2C_WaitOnFlagUntilTimeout>
 800492e:	2800      	cmp	r0, #0
 8004930:	d17c      	bne.n	8004a2c <HAL_I2C_Master_Receive+0x2c4>
          CLEAR_BIT(hi2c->Instance->CR1, I2C_CR1_ACK);
 8004932:	6822      	ldr	r2, [r4, #0]
 8004934:	6813      	ldr	r3, [r2, #0]
 8004936:	f423 6380 	bic.w	r3, r3, #1024	; 0x400
 800493a:	6013      	str	r3, [r2, #0]
          *hi2c->pBuffPtr = (uint8_t)hi2c->Instance->DR;
 800493c:	6823      	ldr	r3, [r4, #0]
 800493e:	691a      	ldr	r2, [r3, #16]
 8004940:	6a63      	ldr	r3, [r4, #36]	; 0x24
 8004942:	701a      	strb	r2, [r3, #0]
          hi2c->pBuffPtr++;
 8004944:	6a63      	ldr	r3, [r4, #36]	; 0x24
 8004946:	3301      	adds	r3, #1
 8004948:	6263      	str	r3, [r4, #36]	; 0x24
          hi2c->XferSize--;
 800494a:	8d23      	ldrh	r3, [r4, #40]	; 0x28
 800494c:	3b01      	subs	r3, #1
 800494e:	8523      	strh	r3, [r4, #40]	; 0x28
          hi2c->XferCount--;
 8004950:	8d63      	ldrh	r3, [r4, #42]	; 0x2a
 8004952:	3b01      	subs	r3, #1
 8004954:	b29b      	uxth	r3, r3
 8004956:	8563      	strh	r3, [r4, #42]	; 0x2a
          if (I2C_WaitOnFlagUntilTimeout(hi2c, I2C_FLAG_BTF, RESET, Timeout, tickstart) != HAL_OK)
 8004958:	9500      	str	r5, [sp, #0]
 800495a:	9b0c      	ldr	r3, [sp, #48]	; 0x30
 800495c:	2200      	movs	r2, #0
 800495e:	492e      	ldr	r1, [pc, #184]	; (8004a18 <HAL_I2C_Master_Receive+0x2b0>)
 8004960:	4620      	mov	r0, r4
 8004962:	f7ff fb8c 	bl	800407e <I2C_WaitOnFlagUntilTimeout>
 8004966:	2800      	cmp	r0, #0
 8004968:	d162      	bne.n	8004a30 <HAL_I2C_Master_Receive+0x2c8>
          SET_BIT(hi2c->Instance->CR1, I2C_CR1_STOP);
 800496a:	6822      	ldr	r2, [r4, #0]
 800496c:	6813      	ldr	r3, [r2, #0]
 800496e:	f443 7300 	orr.w	r3, r3, #512	; 0x200
 8004972:	6013      	str	r3, [r2, #0]
          *hi2c->pBuffPtr = (uint8_t)hi2c->Instance->DR;
 8004974:	6823      	ldr	r3, [r4, #0]
 8004976:	691a      	ldr	r2, [r3, #16]
 8004978:	6a63      	ldr	r3, [r4, #36]	; 0x24
 800497a:	701a      	strb	r2, [r3, #0]
          hi2c->pBuffPtr++;
 800497c:	6a62      	ldr	r2, [r4, #36]	; 0x24
 800497e:	1c53      	adds	r3, r2, #1
 8004980:	6263      	str	r3, [r4, #36]	; 0x24
          hi2c->XferSize--;
 8004982:	8d23      	ldrh	r3, [r4, #40]	; 0x28
 8004984:	3b01      	subs	r3, #1
 8004986:	8523      	strh	r3, [r4, #40]	; 0x28
          hi2c->XferCount--;
 8004988:	8d63      	ldrh	r3, [r4, #42]	; 0x2a
 800498a:	3b01      	subs	r3, #1
 800498c:	b29b      	uxth	r3, r3
 800498e:	8563      	strh	r3, [r4, #42]	; 0x2a
          *hi2c->pBuffPtr = (uint8_t)hi2c->Instance->DR;
 8004990:	6823      	ldr	r3, [r4, #0]
 8004992:	691b      	ldr	r3, [r3, #16]
 8004994:	7053      	strb	r3, [r2, #1]
          hi2c->pBuffPtr++;
 8004996:	6a63      	ldr	r3, [r4, #36]	; 0x24
 8004998:	3301      	adds	r3, #1
 800499a:	6263      	str	r3, [r4, #36]	; 0x24
          hi2c->XferSize--;
 800499c:	8d23      	ldrh	r3, [r4, #40]	; 0x28
 800499e:	3b01      	subs	r3, #1
 80049a0:	8523      	strh	r3, [r4, #40]	; 0x28
          hi2c->XferCount--;
 80049a2:	8d63      	ldrh	r3, [r4, #42]	; 0x2a
 80049a4:	3b01      	subs	r3, #1
 80049a6:	b29b      	uxth	r3, r3
 80049a8:	8563      	strh	r3, [r4, #42]	; 0x2a
 80049aa:	e7b0      	b.n	800490e <HAL_I2C_Master_Receive+0x1a6>
        if (I2C_WaitOnRXNEFlagUntilTimeout(hi2c, Timeout, tickstart) != HAL_OK)
 80049ac:	462a      	mov	r2, r5
 80049ae:	990c      	ldr	r1, [sp, #48]	; 0x30
 80049b0:	4620      	mov	r0, r4
 80049b2:	f7ff fd19 	bl	80043e8 <I2C_WaitOnRXNEFlagUntilTimeout>
 80049b6:	2800      	cmp	r0, #0
 80049b8:	d13c      	bne.n	8004a34 <HAL_I2C_Master_Receive+0x2cc>
        *hi2c->pBuffPtr = (uint8_t)hi2c->Instance->DR;
 80049ba:	6823      	ldr	r3, [r4, #0]
 80049bc:	691a      	ldr	r2, [r3, #16]
 80049be:	6a63      	ldr	r3, [r4, #36]	; 0x24
 80049c0:	701a      	strb	r2, [r3, #0]
        hi2c->pBuffPtr++;
 80049c2:	6a62      	ldr	r2, [r4, #36]	; 0x24
 80049c4:	1c53      	adds	r3, r2, #1
 80049c6:	6263      	str	r3, [r4, #36]	; 0x24
        hi2c->XferSize--;
 80049c8:	8d23      	ldrh	r3, [r4, #40]	; 0x28
 80049ca:	3b01      	subs	r3, #1
 80049cc:	8523      	strh	r3, [r4, #40]	; 0x28
        hi2c->XferCount--;
 80049ce:	8d63      	ldrh	r3, [r4, #42]	; 0x2a
 80049d0:	3b01      	subs	r3, #1
 80049d2:	b29b      	uxth	r3, r3
 80049d4:	8563      	strh	r3, [r4, #42]	; 0x2a
        if (__HAL_I2C_GET_FLAG(hi2c, I2C_FLAG_BTF) == SET)
 80049d6:	6823      	ldr	r3, [r4, #0]
 80049d8:	6959      	ldr	r1, [r3, #20]
 80049da:	f011 0f04 	tst.w	r1, #4
 80049de:	d096      	beq.n	800490e <HAL_I2C_Master_Receive+0x1a6>
          *hi2c->pBuffPtr = (uint8_t)hi2c->Instance->DR;
 80049e0:	691b      	ldr	r3, [r3, #16]
 80049e2:	7053      	strb	r3, [r2, #1]
          hi2c->pBuffPtr++;
 80049e4:	6a63      	ldr	r3, [r4, #36]	; 0x24
 80049e6:	3301      	adds	r3, #1
 80049e8:	6263      	str	r3, [r4, #36]	; 0x24
          hi2c->XferSize--;
 80049ea:	8d23      	ldrh	r3, [r4, #40]	; 0x28
 80049ec:	3b01      	subs	r3, #1
 80049ee:	8523      	strh	r3, [r4, #40]	; 0x28
          hi2c->XferCount--;
 80049f0:	8d63      	ldrh	r3, [r4, #42]	; 0x2a
 80049f2:	3b01      	subs	r3, #1
 80049f4:	b29b      	uxth	r3, r3
 80049f6:	8563      	strh	r3, [r4, #42]	; 0x2a
 80049f8:	e789      	b.n	800490e <HAL_I2C_Master_Receive+0x1a6>
    hi2c->State = HAL_I2C_STATE_READY;
 80049fa:	2320      	movs	r3, #32
 80049fc:	f884 303d 	strb.w	r3, [r4, #61]	; 0x3d
    hi2c->Mode = HAL_I2C_MODE_NONE;
 8004a00:	2300      	movs	r3, #0
 8004a02:	f884 303e 	strb.w	r3, [r4, #62]	; 0x3e
    __HAL_UNLOCK(hi2c);
 8004a06:	f884 303c 	strb.w	r3, [r4, #60]	; 0x3c
    return HAL_OK;
 8004a0a:	e6bc      	b.n	8004786 <HAL_I2C_Master_Receive+0x1e>
      return HAL_BUSY;
 8004a0c:	2602      	movs	r6, #2
 8004a0e:	e6ba      	b.n	8004786 <HAL_I2C_Master_Receive+0x1e>
 8004a10:	00100002 	.word	0x00100002
 8004a14:	ffff0000 	.word	0xffff0000
 8004a18:	00010004 	.word	0x00010004
    __HAL_LOCK(hi2c);
 8004a1c:	2602      	movs	r6, #2
 8004a1e:	e6b2      	b.n	8004786 <HAL_I2C_Master_Receive+0x1e>
      return HAL_ERROR;
 8004a20:	2601      	movs	r6, #1
 8004a22:	e6b0      	b.n	8004786 <HAL_I2C_Master_Receive+0x1e>
            return HAL_ERROR;
 8004a24:	2601      	movs	r6, #1
 8004a26:	e6ae      	b.n	8004786 <HAL_I2C_Master_Receive+0x1e>
            return HAL_ERROR;
 8004a28:	2601      	movs	r6, #1
 8004a2a:	e6ac      	b.n	8004786 <HAL_I2C_Master_Receive+0x1e>
            return HAL_ERROR;
 8004a2c:	2601      	movs	r6, #1
 8004a2e:	e6aa      	b.n	8004786 <HAL_I2C_Master_Receive+0x1e>
            return HAL_ERROR;
 8004a30:	2601      	movs	r6, #1
 8004a32:	e6a8      	b.n	8004786 <HAL_I2C_Master_Receive+0x1e>
          return HAL_ERROR;
 8004a34:	2601      	movs	r6, #1
 8004a36:	e6a6      	b.n	8004786 <HAL_I2C_Master_Receive+0x1e>

08004a38 <HAL_I2C_IsDeviceReady>:
{
 8004a38:	e92d 43f0 	stmdb	sp!, {r4, r5, r6, r7, r8, r9, lr}
 8004a3c:	b085      	sub	sp, #20
 8004a3e:	4604      	mov	r4, r0
 8004a40:	4688      	mov	r8, r1
 8004a42:	4691      	mov	r9, r2
 8004a44:	461d      	mov	r5, r3
  uint32_t tickstart = HAL_GetTick();
 8004a46:	f7fe fe27 	bl	8003698 <HAL_GetTick>
  if (hi2c->State == HAL_I2C_STATE_READY)
 8004a4a:	f894 303d 	ldrb.w	r3, [r4, #61]	; 0x3d
 8004a4e:	b2db      	uxtb	r3, r3
 8004a50:	2b20      	cmp	r3, #32
 8004a52:	d004      	beq.n	8004a5e <HAL_I2C_IsDeviceReady+0x26>
    return HAL_BUSY;
 8004a54:	2302      	movs	r3, #2
}
 8004a56:	4618      	mov	r0, r3
 8004a58:	b005      	add	sp, #20
 8004a5a:	e8bd 83f0 	ldmia.w	sp!, {r4, r5, r6, r7, r8, r9, pc}
 8004a5e:	4606      	mov	r6, r0
    if (I2C_WaitOnFlagUntilTimeout(hi2c, I2C_FLAG_BUSY, SET, I2C_TIMEOUT_BUSY_FLAG, tickstart) != HAL_OK)
 8004a60:	9000      	str	r0, [sp, #0]
 8004a62:	2319      	movs	r3, #25
 8004a64:	2201      	movs	r2, #1
 8004a66:	4954      	ldr	r1, [pc, #336]	; (8004bb8 <HAL_I2C_IsDeviceReady+0x180>)
 8004a68:	4620      	mov	r0, r4
 8004a6a:	f7ff fb08 	bl	800407e <I2C_WaitOnFlagUntilTimeout>
 8004a6e:	2800      	cmp	r0, #0
 8004a70:	f040 8097 	bne.w	8004ba2 <HAL_I2C_IsDeviceReady+0x16a>
    __HAL_LOCK(hi2c);
 8004a74:	f894 303c 	ldrb.w	r3, [r4, #60]	; 0x3c
 8004a78:	2b01      	cmp	r3, #1
 8004a7a:	f000 8094 	beq.w	8004ba6 <HAL_I2C_IsDeviceReady+0x16e>
 8004a7e:	2301      	movs	r3, #1
 8004a80:	f884 303c 	strb.w	r3, [r4, #60]	; 0x3c
    if ((hi2c->Instance->CR1 & I2C_CR1_PE) != I2C_CR1_PE)
 8004a84:	6823      	ldr	r3, [r4, #0]
 8004a86:	681a      	ldr	r2, [r3, #0]
 8004a88:	f012 0f01 	tst.w	r2, #1
 8004a8c:	d103      	bne.n	8004a96 <HAL_I2C_IsDeviceReady+0x5e>
      __HAL_I2C_ENABLE(hi2c);
 8004a8e:	681a      	ldr	r2, [r3, #0]
 8004a90:	f042 0201 	orr.w	r2, r2, #1
 8004a94:	601a      	str	r2, [r3, #0]
    CLEAR_BIT(hi2c->Instance->CR1, I2C_CR1_POS);
 8004a96:	6822      	ldr	r2, [r4, #0]
 8004a98:	6813      	ldr	r3, [r2, #0]
 8004a9a:	f423 6300 	bic.w	r3, r3, #2048	; 0x800
 8004a9e:	6013      	str	r3, [r2, #0]
    hi2c->State = HAL_I2C_STATE_BUSY;
 8004aa0:	2324      	movs	r3, #36	; 0x24
 8004aa2:	f884 303d 	strb.w	r3, [r4, #61]	; 0x3d
    hi2c->ErrorCode = HAL_I2C_ERROR_NONE;
 8004aa6:	2300      	movs	r3, #0
 8004aa8:	6423      	str	r3, [r4, #64]	; 0x40
    hi2c->XferOptions = I2C_NO_OPTION_FRAME;
 8004aaa:	f5a3 3380 	sub.w	r3, r3, #65536	; 0x10000
 8004aae:	62e3      	str	r3, [r4, #44]	; 0x2c
  uint32_t I2C_Trials = 1U;
 8004ab0:	2701      	movs	r7, #1
 8004ab2:	e034      	b.n	8004b1e <HAL_I2C_IsDeviceReady+0xe6>
          hi2c->State = HAL_I2C_STATE_TIMEOUT;
 8004ab4:	23a0      	movs	r3, #160	; 0xa0
 8004ab6:	f884 303d 	strb.w	r3, [r4, #61]	; 0x3d
        tmp1 = __HAL_I2C_GET_FLAG(hi2c, I2C_FLAG_ADDR);
 8004aba:	6823      	ldr	r3, [r4, #0]
 8004abc:	695a      	ldr	r2, [r3, #20]
 8004abe:	f3c2 0240 	ubfx	r2, r2, #1, #1
        tmp2 = __HAL_I2C_GET_FLAG(hi2c, I2C_FLAG_AF);
 8004ac2:	6959      	ldr	r1, [r3, #20]
 8004ac4:	f3c1 2180 	ubfx	r1, r1, #10, #1
      while ((hi2c->State != HAL_I2C_STATE_TIMEOUT) && (tmp1 == RESET) && (tmp2 == RESET))
 8004ac8:	f894 303d 	ldrb.w	r3, [r4, #61]	; 0x3d
 8004acc:	b2db      	uxtb	r3, r3
 8004ace:	2ba0      	cmp	r3, #160	; 0xa0
 8004ad0:	d009      	beq.n	8004ae6 <HAL_I2C_IsDeviceReady+0xae>
 8004ad2:	b942      	cbnz	r2, 8004ae6 <HAL_I2C_IsDeviceReady+0xae>
 8004ad4:	b939      	cbnz	r1, 8004ae6 <HAL_I2C_IsDeviceReady+0xae>
        if (((HAL_GetTick() - tickstart) > Timeout) || (Timeout == 0U))
 8004ad6:	f7fe fddf 	bl	8003698 <HAL_GetTick>
 8004ada:	1b80      	subs	r0, r0, r6
 8004adc:	42a8      	cmp	r0, r5
 8004ade:	d8e9      	bhi.n	8004ab4 <HAL_I2C_IsDeviceReady+0x7c>
 8004ae0:	2d00      	cmp	r5, #0
 8004ae2:	d1ea      	bne.n	8004aba <HAL_I2C_IsDeviceReady+0x82>
 8004ae4:	e7e6      	b.n	8004ab4 <HAL_I2C_IsDeviceReady+0x7c>
      hi2c->State = HAL_I2C_STATE_READY;
 8004ae6:	2320      	movs	r3, #32
 8004ae8:	f884 303d 	strb.w	r3, [r4, #61]	; 0x3d
      if (__HAL_I2C_GET_FLAG(hi2c, I2C_FLAG_ADDR) == SET)
 8004aec:	6823      	ldr	r3, [r4, #0]
 8004aee:	695a      	ldr	r2, [r3, #20]
 8004af0:	f012 0f02 	tst.w	r2, #2
 8004af4:	d131      	bne.n	8004b5a <HAL_I2C_IsDeviceReady+0x122>
        SET_BIT(hi2c->Instance->CR1, I2C_CR1_STOP);
 8004af6:	681a      	ldr	r2, [r3, #0]
 8004af8:	f442 7200 	orr.w	r2, r2, #512	; 0x200
 8004afc:	601a      	str	r2, [r3, #0]
        __HAL_I2C_CLEAR_FLAG(hi2c, I2C_FLAG_AF);
 8004afe:	6823      	ldr	r3, [r4, #0]
 8004b00:	f46f 6280 	mvn.w	r2, #1024	; 0x400
 8004b04:	615a      	str	r2, [r3, #20]
        if (I2C_WaitOnFlagUntilTimeout(hi2c, I2C_FLAG_BUSY, SET, I2C_TIMEOUT_BUSY_FLAG, tickstart) != HAL_OK)
 8004b06:	9600      	str	r6, [sp, #0]
 8004b08:	2319      	movs	r3, #25
 8004b0a:	2201      	movs	r2, #1
 8004b0c:	492a      	ldr	r1, [pc, #168]	; (8004bb8 <HAL_I2C_IsDeviceReady+0x180>)
 8004b0e:	4620      	mov	r0, r4
 8004b10:	f7ff fab5 	bl	800407e <I2C_WaitOnFlagUntilTimeout>
 8004b14:	2800      	cmp	r0, #0
 8004b16:	d14c      	bne.n	8004bb2 <HAL_I2C_IsDeviceReady+0x17a>
      I2C_Trials++;
 8004b18:	3701      	adds	r7, #1
    while (I2C_Trials < Trials);
 8004b1a:	454f      	cmp	r7, r9
 8004b1c:	d239      	bcs.n	8004b92 <HAL_I2C_IsDeviceReady+0x15a>
      SET_BIT(hi2c->Instance->CR1, I2C_CR1_START);
 8004b1e:	6822      	ldr	r2, [r4, #0]
 8004b20:	6813      	ldr	r3, [r2, #0]
 8004b22:	f443 7380 	orr.w	r3, r3, #256	; 0x100
 8004b26:	6013      	str	r3, [r2, #0]
      if (I2C_WaitOnFlagUntilTimeout(hi2c, I2C_FLAG_SB, RESET, Timeout, tickstart) != HAL_OK)
 8004b28:	9600      	str	r6, [sp, #0]
 8004b2a:	462b      	mov	r3, r5
 8004b2c:	2200      	movs	r2, #0
 8004b2e:	f04f 1101 	mov.w	r1, #65537	; 0x10001
 8004b32:	4620      	mov	r0, r4
 8004b34:	f7ff faa3 	bl	800407e <I2C_WaitOnFlagUntilTimeout>
 8004b38:	2800      	cmp	r0, #0
 8004b3a:	d136      	bne.n	8004baa <HAL_I2C_IsDeviceReady+0x172>
      hi2c->Instance->DR = I2C_7BIT_ADD_WRITE(DevAddress);
 8004b3c:	6823      	ldr	r3, [r4, #0]
 8004b3e:	f008 02fe 	and.w	r2, r8, #254	; 0xfe
 8004b42:	611a      	str	r2, [r3, #16]
      tickstart = HAL_GetTick();
 8004b44:	f7fe fda8 	bl	8003698 <HAL_GetTick>
 8004b48:	4606      	mov	r6, r0
      tmp1 = __HAL_I2C_GET_FLAG(hi2c, I2C_FLAG_ADDR);
 8004b4a:	6823      	ldr	r3, [r4, #0]
 8004b4c:	695a      	ldr	r2, [r3, #20]
 8004b4e:	f3c2 0240 	ubfx	r2, r2, #1, #1
      tmp2 = __HAL_I2C_GET_FLAG(hi2c, I2C_FLAG_AF);
 8004b52:	6959      	ldr	r1, [r3, #20]
 8004b54:	f3c1 2180 	ubfx	r1, r1, #10, #1
      while ((hi2c->State != HAL_I2C_STATE_TIMEOUT) && (tmp1 == RESET) && (tmp2 == RESET))
 8004b58:	e7b6      	b.n	8004ac8 <HAL_I2C_IsDeviceReady+0x90>
        SET_BIT(hi2c->Instance->CR1, I2C_CR1_STOP);
 8004b5a:	681a      	ldr	r2, [r3, #0]
 8004b5c:	f442 7200 	orr.w	r2, r2, #512	; 0x200
 8004b60:	601a      	str	r2, [r3, #0]
        __HAL_I2C_CLEAR_ADDRFLAG(hi2c);
 8004b62:	2300      	movs	r3, #0
 8004b64:	9303      	str	r3, [sp, #12]
 8004b66:	6823      	ldr	r3, [r4, #0]
 8004b68:	695a      	ldr	r2, [r3, #20]
 8004b6a:	9203      	str	r2, [sp, #12]
 8004b6c:	699b      	ldr	r3, [r3, #24]
 8004b6e:	9303      	str	r3, [sp, #12]
 8004b70:	9b03      	ldr	r3, [sp, #12]
        if (I2C_WaitOnFlagUntilTimeout(hi2c, I2C_FLAG_BUSY, SET, I2C_TIMEOUT_BUSY_FLAG, tickstart) != HAL_OK)
 8004b72:	9600      	str	r6, [sp, #0]
 8004b74:	2319      	movs	r3, #25
 8004b76:	2201      	movs	r2, #1
 8004b78:	490f      	ldr	r1, [pc, #60]	; (8004bb8 <HAL_I2C_IsDeviceReady+0x180>)
 8004b7a:	4620      	mov	r0, r4
 8004b7c:	f7ff fa7f 	bl	800407e <I2C_WaitOnFlagUntilTimeout>
 8004b80:	4603      	mov	r3, r0
 8004b82:	b9a0      	cbnz	r0, 8004bae <HAL_I2C_IsDeviceReady+0x176>
        hi2c->State = HAL_I2C_STATE_READY;
 8004b84:	2220      	movs	r2, #32
 8004b86:	f884 203d 	strb.w	r2, [r4, #61]	; 0x3d
        __HAL_UNLOCK(hi2c);
 8004b8a:	2200      	movs	r2, #0
 8004b8c:	f884 203c 	strb.w	r2, [r4, #60]	; 0x3c
        return HAL_OK;
 8004b90:	e761      	b.n	8004a56 <HAL_I2C_IsDeviceReady+0x1e>
    hi2c->State = HAL_I2C_STATE_READY;
 8004b92:	2320      	movs	r3, #32
 8004b94:	f884 303d 	strb.w	r3, [r4, #61]	; 0x3d
    __HAL_UNLOCK(hi2c);
 8004b98:	2300      	movs	r3, #0
 8004b9a:	f884 303c 	strb.w	r3, [r4, #60]	; 0x3c
    return HAL_ERROR;
 8004b9e:	2301      	movs	r3, #1
 8004ba0:	e759      	b.n	8004a56 <HAL_I2C_IsDeviceReady+0x1e>
      return HAL_BUSY;
 8004ba2:	2302      	movs	r3, #2
 8004ba4:	e757      	b.n	8004a56 <HAL_I2C_IsDeviceReady+0x1e>
    __HAL_LOCK(hi2c);
 8004ba6:	2302      	movs	r3, #2
 8004ba8:	e755      	b.n	8004a56 <HAL_I2C_IsDeviceReady+0x1e>
        return HAL_ERROR;
 8004baa:	2301      	movs	r3, #1
 8004bac:	e753      	b.n	8004a56 <HAL_I2C_IsDeviceReady+0x1e>
          return HAL_ERROR;
 8004bae:	2301      	movs	r3, #1
 8004bb0:	e751      	b.n	8004a56 <HAL_I2C_IsDeviceReady+0x1e>
          return HAL_ERROR;
 8004bb2:	2301      	movs	r3, #1
 8004bb4:	e74f      	b.n	8004a56 <HAL_I2C_IsDeviceReady+0x1e>
 8004bb6:	bf00      	nop
 8004bb8:	00100002 	.word	0x00100002

08004bbc <HAL_RCC_OscConfig>:
__weak HAL_StatusTypeDef HAL_RCC_OscConfig(RCC_OscInitTypeDef  *RCC_OscInitStruct)
{
  uint32_t tickstart;

  /* Check Null pointer */
  if(RCC_OscInitStruct == NULL)
 8004bbc:	2800      	cmp	r0, #0
 8004bbe:	f000 81bb 	beq.w	8004f38 <HAL_RCC_OscConfig+0x37c>
{
 8004bc2:	b570      	push	{r4, r5, r6, lr}
 8004bc4:	b082      	sub	sp, #8
 8004bc6:	4604      	mov	r4, r0
  }

  /* Check the parameters */
  assert_param(IS_RCC_OSCILLATORTYPE(RCC_OscInitStruct->OscillatorType));
  /*------------------------------- HSE Configuration ------------------------*/
  if(((RCC_OscInitStruct->OscillatorType) & RCC_OSCILLATORTYPE_HSE) == RCC_OSCILLATORTYPE_HSE)
 8004bc8:	6803      	ldr	r3, [r0, #0]
 8004bca:	f013 0f01 	tst.w	r3, #1
 8004bce:	d03b      	beq.n	8004c48 <HAL_RCC_OscConfig+0x8c>
  {
    /* Check the parameters */
    assert_param(IS_RCC_HSE(RCC_OscInitStruct->HSEState));
    /* When the HSE is used as system clock or clock source for PLL in these cases HSE will not disabled */
    if((__HAL_RCC_GET_SYSCLK_SOURCE() == RCC_CFGR_SWS_HSE) ||\
 8004bd0:	4ba7      	ldr	r3, [pc, #668]	; (8004e70 <HAL_RCC_OscConfig+0x2b4>)
 8004bd2:	689b      	ldr	r3, [r3, #8]
 8004bd4:	f003 030c 	and.w	r3, r3, #12
 8004bd8:	2b04      	cmp	r3, #4
 8004bda:	d02c      	beq.n	8004c36 <HAL_RCC_OscConfig+0x7a>
      ((__HAL_RCC_GET_SYSCLK_SOURCE() == RCC_CFGR_SWS_PLL) && ((RCC->PLLCFGR & RCC_PLLCFGR_PLLSRC) == RCC_PLLCFGR_PLLSRC_HSE)))
 8004bdc:	4ba4      	ldr	r3, [pc, #656]	; (8004e70 <HAL_RCC_OscConfig+0x2b4>)
 8004bde:	689b      	ldr	r3, [r3, #8]
 8004be0:	f003 030c 	and.w	r3, r3, #12
    if((__HAL_RCC_GET_SYSCLK_SOURCE() == RCC_CFGR_SWS_HSE) ||\
 8004be4:	2b08      	cmp	r3, #8
 8004be6:	d021      	beq.n	8004c2c <HAL_RCC_OscConfig+0x70>
      }
    }
    else
    {
      /* Set the new HSE configuration ---------------------------------------*/
      __HAL_RCC_HSE_CONFIG(RCC_OscInitStruct->HSEState);
 8004be8:	6863      	ldr	r3, [r4, #4]
 8004bea:	f5b3 3f80 	cmp.w	r3, #65536	; 0x10000
 8004bee:	d04f      	beq.n	8004c90 <HAL_RCC_OscConfig+0xd4>
 8004bf0:	f5b3 2fa0 	cmp.w	r3, #327680	; 0x50000
 8004bf4:	d052      	beq.n	8004c9c <HAL_RCC_OscConfig+0xe0>
 8004bf6:	4b9e      	ldr	r3, [pc, #632]	; (8004e70 <HAL_RCC_OscConfig+0x2b4>)
 8004bf8:	681a      	ldr	r2, [r3, #0]
 8004bfa:	f422 3280 	bic.w	r2, r2, #65536	; 0x10000
 8004bfe:	601a      	str	r2, [r3, #0]
 8004c00:	681a      	ldr	r2, [r3, #0]
 8004c02:	f422 2280 	bic.w	r2, r2, #262144	; 0x40000
 8004c06:	601a      	str	r2, [r3, #0]

      /* Check the HSE State */
      if((RCC_OscInitStruct->HSEState) != RCC_HSE_OFF)
 8004c08:	6863      	ldr	r3, [r4, #4]
 8004c0a:	2b00      	cmp	r3, #0
 8004c0c:	d050      	beq.n	8004cb0 <HAL_RCC_OscConfig+0xf4>
      {
        /* Get Start Tick */
        tickstart = HAL_GetTick();
 8004c0e:	f7fe fd43 	bl	8003698 <HAL_GetTick>
 8004c12:	4605      	mov	r5, r0

        /* Wait till HSE is ready */
        while(__HAL_RCC_GET_FLAG(RCC_FLAG_HSERDY) == RESET)
 8004c14:	4b96      	ldr	r3, [pc, #600]	; (8004e70 <HAL_RCC_OscConfig+0x2b4>)
 8004c16:	681b      	ldr	r3, [r3, #0]
 8004c18:	f413 3f00 	tst.w	r3, #131072	; 0x20000
 8004c1c:	d114      	bne.n	8004c48 <HAL_RCC_OscConfig+0x8c>
        {
          if((HAL_GetTick() - tickstart ) > HSE_TIMEOUT_VALUE)
 8004c1e:	f7fe fd3b 	bl	8003698 <HAL_GetTick>
 8004c22:	1b40      	subs	r0, r0, r5
 8004c24:	2864      	cmp	r0, #100	; 0x64
 8004c26:	d9f5      	bls.n	8004c14 <HAL_RCC_OscConfig+0x58>
          {
            return HAL_TIMEOUT;
 8004c28:	2003      	movs	r0, #3
 8004c2a:	e18a      	b.n	8004f42 <HAL_RCC_OscConfig+0x386>
      ((__HAL_RCC_GET_SYSCLK_SOURCE() == RCC_CFGR_SWS_PLL) && ((RCC->PLLCFGR & RCC_PLLCFGR_PLLSRC) == RCC_PLLCFGR_PLLSRC_HSE)))
 8004c2c:	4b90      	ldr	r3, [pc, #576]	; (8004e70 <HAL_RCC_OscConfig+0x2b4>)
 8004c2e:	685b      	ldr	r3, [r3, #4]
 8004c30:	f413 0f80 	tst.w	r3, #4194304	; 0x400000
 8004c34:	d0d8      	beq.n	8004be8 <HAL_RCC_OscConfig+0x2c>
      if((__HAL_RCC_GET_FLAG(RCC_FLAG_HSERDY) != RESET) && (RCC_OscInitStruct->HSEState == RCC_HSE_OFF))
 8004c36:	4b8e      	ldr	r3, [pc, #568]	; (8004e70 <HAL_RCC_OscConfig+0x2b4>)
 8004c38:	681b      	ldr	r3, [r3, #0]
 8004c3a:	f413 3f00 	tst.w	r3, #131072	; 0x20000
 8004c3e:	d003      	beq.n	8004c48 <HAL_RCC_OscConfig+0x8c>
 8004c40:	6863      	ldr	r3, [r4, #4]
 8004c42:	2b00      	cmp	r3, #0
 8004c44:	f000 817a 	beq.w	8004f3c <HAL_RCC_OscConfig+0x380>
        }
      }
    }
  }
  /*----------------------------- HSI Configuration --------------------------*/
  if(((RCC_OscInitStruct->OscillatorType) & RCC_OSCILLATORTYPE_HSI) == RCC_OSCILLATORTYPE_HSI)
 8004c48:	6823      	ldr	r3, [r4, #0]
 8004c4a:	f013 0f02 	tst.w	r3, #2
 8004c4e:	d055      	beq.n	8004cfc <HAL_RCC_OscConfig+0x140>
    /* Check the parameters */
    assert_param(IS_RCC_HSI(RCC_OscInitStruct->HSIState));
    assert_param(IS_RCC_CALIBRATION_VALUE(RCC_OscInitStruct->HSICalibrationValue));

    /* Check if HSI is used as system clock or as PLL source when PLL is selected as system clock */
    if((__HAL_RCC_GET_SYSCLK_SOURCE() == RCC_CFGR_SWS_HSI) ||\
 8004c50:	4b87      	ldr	r3, [pc, #540]	; (8004e70 <HAL_RCC_OscConfig+0x2b4>)
 8004c52:	689b      	ldr	r3, [r3, #8]
 8004c54:	f013 0f0c 	tst.w	r3, #12
 8004c58:	d03e      	beq.n	8004cd8 <HAL_RCC_OscConfig+0x11c>
      ((__HAL_RCC_GET_SYSCLK_SOURCE() == RCC_CFGR_SWS_PLL) && ((RCC->PLLCFGR & RCC_PLLCFGR_PLLSRC) == RCC_PLLCFGR_PLLSRC_HSI)))
 8004c5a:	4b85      	ldr	r3, [pc, #532]	; (8004e70 <HAL_RCC_OscConfig+0x2b4>)
 8004c5c:	689b      	ldr	r3, [r3, #8]
 8004c5e:	f003 030c 	and.w	r3, r3, #12
    if((__HAL_RCC_GET_SYSCLK_SOURCE() == RCC_CFGR_SWS_HSI) ||\
 8004c62:	2b08      	cmp	r3, #8
 8004c64:	d033      	beq.n	8004cce <HAL_RCC_OscConfig+0x112>
      }
    }
    else
    {
      /* Check the HSI State */
      if((RCC_OscInitStruct->HSIState)!= RCC_HSI_OFF)
 8004c66:	68e3      	ldr	r3, [r4, #12]
 8004c68:	2b00      	cmp	r3, #0
 8004c6a:	d068      	beq.n	8004d3e <HAL_RCC_OscConfig+0x182>
      {
        /* Enable the Internal High Speed oscillator (HSI). */
        __HAL_RCC_HSI_ENABLE();
 8004c6c:	4b81      	ldr	r3, [pc, #516]	; (8004e74 <HAL_RCC_OscConfig+0x2b8>)
 8004c6e:	2201      	movs	r2, #1
 8004c70:	601a      	str	r2, [r3, #0]

        /* Get Start Tick*/
        tickstart = HAL_GetTick();
 8004c72:	f7fe fd11 	bl	8003698 <HAL_GetTick>
 8004c76:	4605      	mov	r5, r0

        /* Wait till HSI is ready */
        while(__HAL_RCC_GET_FLAG(RCC_FLAG_HSIRDY) == RESET)
 8004c78:	4b7d      	ldr	r3, [pc, #500]	; (8004e70 <HAL_RCC_OscConfig+0x2b4>)
 8004c7a:	681b      	ldr	r3, [r3, #0]
 8004c7c:	f013 0f02 	tst.w	r3, #2
 8004c80:	d154      	bne.n	8004d2c <HAL_RCC_OscConfig+0x170>
        {
          if((HAL_GetTick() - tickstart ) > HSI_TIMEOUT_VALUE)
 8004c82:	f7fe fd09 	bl	8003698 <HAL_GetTick>
 8004c86:	1b40      	subs	r0, r0, r5
 8004c88:	2802      	cmp	r0, #2
 8004c8a:	d9f5      	bls.n	8004c78 <HAL_RCC_OscConfig+0xbc>
          {
            return HAL_TIMEOUT;
 8004c8c:	2003      	movs	r0, #3
 8004c8e:	e158      	b.n	8004f42 <HAL_RCC_OscConfig+0x386>
      __HAL_RCC_HSE_CONFIG(RCC_OscInitStruct->HSEState);
 8004c90:	4a77      	ldr	r2, [pc, #476]	; (8004e70 <HAL_RCC_OscConfig+0x2b4>)
 8004c92:	6813      	ldr	r3, [r2, #0]
 8004c94:	f443 3380 	orr.w	r3, r3, #65536	; 0x10000
 8004c98:	6013      	str	r3, [r2, #0]
 8004c9a:	e7b5      	b.n	8004c08 <HAL_RCC_OscConfig+0x4c>
 8004c9c:	4b74      	ldr	r3, [pc, #464]	; (8004e70 <HAL_RCC_OscConfig+0x2b4>)
 8004c9e:	681a      	ldr	r2, [r3, #0]
 8004ca0:	f442 2280 	orr.w	r2, r2, #262144	; 0x40000
 8004ca4:	601a      	str	r2, [r3, #0]
 8004ca6:	681a      	ldr	r2, [r3, #0]
 8004ca8:	f442 3280 	orr.w	r2, r2, #65536	; 0x10000
 8004cac:	601a      	str	r2, [r3, #0]
 8004cae:	e7ab      	b.n	8004c08 <HAL_RCC_OscConfig+0x4c>
        tickstart = HAL_GetTick();
 8004cb0:	f7fe fcf2 	bl	8003698 <HAL_GetTick>
 8004cb4:	4605      	mov	r5, r0
        while(__HAL_RCC_GET_FLAG(RCC_FLAG_HSERDY) != RESET)
 8004cb6:	4b6e      	ldr	r3, [pc, #440]	; (8004e70 <HAL_RCC_OscConfig+0x2b4>)
 8004cb8:	681b      	ldr	r3, [r3, #0]
 8004cba:	f413 3f00 	tst.w	r3, #131072	; 0x20000
 8004cbe:	d0c3      	beq.n	8004c48 <HAL_RCC_OscConfig+0x8c>
          if((HAL_GetTick() - tickstart ) > HSE_TIMEOUT_VALUE)
 8004cc0:	f7fe fcea 	bl	8003698 <HAL_GetTick>
 8004cc4:	1b40      	subs	r0, r0, r5
 8004cc6:	2864      	cmp	r0, #100	; 0x64
 8004cc8:	d9f5      	bls.n	8004cb6 <HAL_RCC_OscConfig+0xfa>
            return HAL_TIMEOUT;
 8004cca:	2003      	movs	r0, #3
 8004ccc:	e139      	b.n	8004f42 <HAL_RCC_OscConfig+0x386>
      ((__HAL_RCC_GET_SYSCLK_SOURCE() == RCC_CFGR_SWS_PLL) && ((RCC->PLLCFGR & RCC_PLLCFGR_PLLSRC) == RCC_PLLCFGR_PLLSRC_HSI)))
 8004cce:	4b68      	ldr	r3, [pc, #416]	; (8004e70 <HAL_RCC_OscConfig+0x2b4>)
 8004cd0:	685b      	ldr	r3, [r3, #4]
 8004cd2:	f413 0f80 	tst.w	r3, #4194304	; 0x400000
 8004cd6:	d1c6      	bne.n	8004c66 <HAL_RCC_OscConfig+0xaa>
      if((__HAL_RCC_GET_FLAG(RCC_FLAG_HSIRDY) != RESET) && (RCC_OscInitStruct->HSIState != RCC_HSI_ON))
 8004cd8:	4b65      	ldr	r3, [pc, #404]	; (8004e70 <HAL_RCC_OscConfig+0x2b4>)
 8004cda:	681b      	ldr	r3, [r3, #0]
 8004cdc:	f013 0f02 	tst.w	r3, #2
 8004ce0:	d004      	beq.n	8004cec <HAL_RCC_OscConfig+0x130>
 8004ce2:	68e3      	ldr	r3, [r4, #12]
 8004ce4:	2b01      	cmp	r3, #1
 8004ce6:	d001      	beq.n	8004cec <HAL_RCC_OscConfig+0x130>
        return HAL_ERROR;
 8004ce8:	2001      	movs	r0, #1
 8004cea:	e12a      	b.n	8004f42 <HAL_RCC_OscConfig+0x386>
        __HAL_RCC_HSI_CALIBRATIONVALUE_ADJUST(RCC_OscInitStruct->HSICalibrationValue);
 8004cec:	4a60      	ldr	r2, [pc, #384]	; (8004e70 <HAL_RCC_OscConfig+0x2b4>)
 8004cee:	6813      	ldr	r3, [r2, #0]
 8004cf0:	f023 03f8 	bic.w	r3, r3, #248	; 0xf8
 8004cf4:	6921      	ldr	r1, [r4, #16]
 8004cf6:	ea43 03c1 	orr.w	r3, r3, r1, lsl #3
 8004cfa:	6013      	str	r3, [r2, #0]
        }
      }
    }
  }
  /*------------------------------ LSI Configuration -------------------------*/
  if(((RCC_OscInitStruct->OscillatorType) & RCC_OSCILLATORTYPE_LSI) == RCC_OSCILLATORTYPE_LSI)
 8004cfc:	6823      	ldr	r3, [r4, #0]
 8004cfe:	f013 0f08 	tst.w	r3, #8
 8004d02:	d040      	beq.n	8004d86 <HAL_RCC_OscConfig+0x1ca>
  {
    /* Check the parameters */
    assert_param(IS_RCC_LSI(RCC_OscInitStruct->LSIState));

    /* Check the LSI State */
    if((RCC_OscInitStruct->LSIState)!= RCC_LSI_OFF)
 8004d04:	6963      	ldr	r3, [r4, #20]
 8004d06:	b363      	cbz	r3, 8004d62 <HAL_RCC_OscConfig+0x1a6>
    {
      /* Enable the Internal Low Speed oscillator (LSI). */
      __HAL_RCC_LSI_ENABLE();
 8004d08:	4b5b      	ldr	r3, [pc, #364]	; (8004e78 <HAL_RCC_OscConfig+0x2bc>)
 8004d0a:	2201      	movs	r2, #1
 8004d0c:	601a      	str	r2, [r3, #0]

      /* Get Start Tick*/
      tickstart = HAL_GetTick();
 8004d0e:	f7fe fcc3 	bl	8003698 <HAL_GetTick>
 8004d12:	4605      	mov	r5, r0

      /* Wait till LSI is ready */
      while(__HAL_RCC_GET_FLAG(RCC_FLAG_LSIRDY) == RESET)
 8004d14:	4b56      	ldr	r3, [pc, #344]	; (8004e70 <HAL_RCC_OscConfig+0x2b4>)
 8004d16:	6f5b      	ldr	r3, [r3, #116]	; 0x74
 8004d18:	f013 0f02 	tst.w	r3, #2
 8004d1c:	d133      	bne.n	8004d86 <HAL_RCC_OscConfig+0x1ca>
      {
        if((HAL_GetTick() - tickstart ) > LSI_TIMEOUT_VALUE)
 8004d1e:	f7fe fcbb 	bl	8003698 <HAL_GetTick>
 8004d22:	1b40      	subs	r0, r0, r5
 8004d24:	2802      	cmp	r0, #2
 8004d26:	d9f5      	bls.n	8004d14 <HAL_RCC_OscConfig+0x158>
        {
          return HAL_TIMEOUT;
 8004d28:	2003      	movs	r0, #3
 8004d2a:	e10a      	b.n	8004f42 <HAL_RCC_OscConfig+0x386>
        __HAL_RCC_HSI_CALIBRATIONVALUE_ADJUST(RCC_OscInitStruct->HSICalibrationValue);
 8004d2c:	4a50      	ldr	r2, [pc, #320]	; (8004e70 <HAL_RCC_OscConfig+0x2b4>)
 8004d2e:	6813      	ldr	r3, [r2, #0]
 8004d30:	f023 03f8 	bic.w	r3, r3, #248	; 0xf8
 8004d34:	6921      	ldr	r1, [r4, #16]
 8004d36:	ea43 03c1 	orr.w	r3, r3, r1, lsl #3
 8004d3a:	6013      	str	r3, [r2, #0]
 8004d3c:	e7de      	b.n	8004cfc <HAL_RCC_OscConfig+0x140>
        __HAL_RCC_HSI_DISABLE();
 8004d3e:	4b4d      	ldr	r3, [pc, #308]	; (8004e74 <HAL_RCC_OscConfig+0x2b8>)
 8004d40:	2200      	movs	r2, #0
 8004d42:	601a      	str	r2, [r3, #0]
        tickstart = HAL_GetTick();
 8004d44:	f7fe fca8 	bl	8003698 <HAL_GetTick>
 8004d48:	4605      	mov	r5, r0
        while(__HAL_RCC_GET_FLAG(RCC_FLAG_HSIRDY) != RESET)
 8004d4a:	4b49      	ldr	r3, [pc, #292]	; (8004e70 <HAL_RCC_OscConfig+0x2b4>)
 8004d4c:	681b      	ldr	r3, [r3, #0]
 8004d4e:	f013 0f02 	tst.w	r3, #2
 8004d52:	d0d3      	beq.n	8004cfc <HAL_RCC_OscConfig+0x140>
          if((HAL_GetTick() - tickstart ) > HSI_TIMEOUT_VALUE)
 8004d54:	f7fe fca0 	bl	8003698 <HAL_GetTick>
 8004d58:	1b40      	subs	r0, r0, r5
 8004d5a:	2802      	cmp	r0, #2
 8004d5c:	d9f5      	bls.n	8004d4a <HAL_RCC_OscConfig+0x18e>
            return HAL_TIMEOUT;
 8004d5e:	2003      	movs	r0, #3
 8004d60:	e0ef      	b.n	8004f42 <HAL_RCC_OscConfig+0x386>
      }
    }
    else
    {
      /* Disable the Internal Low Speed oscillator (LSI). */
      __HAL_RCC_LSI_DISABLE();
 8004d62:	4b45      	ldr	r3, [pc, #276]	; (8004e78 <HAL_RCC_OscConfig+0x2bc>)
 8004d64:	2200      	movs	r2, #0
 8004d66:	601a      	str	r2, [r3, #0]

      /* Get Start Tick */
      tickstart = HAL_GetTick();
 8004d68:	f7fe fc96 	bl	8003698 <HAL_GetTick>
 8004d6c:	4605      	mov	r5, r0

      /* Wait till LSI is ready */
      while(__HAL_RCC_GET_FLAG(RCC_FLAG_LSIRDY) != RESET)
 8004d6e:	4b40      	ldr	r3, [pc, #256]	; (8004e70 <HAL_RCC_OscConfig+0x2b4>)
 8004d70:	6f5b      	ldr	r3, [r3, #116]	; 0x74
 8004d72:	f013 0f02 	tst.w	r3, #2
 8004d76:	d006      	beq.n	8004d86 <HAL_RCC_OscConfig+0x1ca>
      {
        if((HAL_GetTick() - tickstart ) > LSI_TIMEOUT_VALUE)
 8004d78:	f7fe fc8e 	bl	8003698 <HAL_GetTick>
 8004d7c:	1b40      	subs	r0, r0, r5
 8004d7e:	2802      	cmp	r0, #2
 8004d80:	d9f5      	bls.n	8004d6e <HAL_RCC_OscConfig+0x1b2>
        {
          return HAL_TIMEOUT;
 8004d82:	2003      	movs	r0, #3
 8004d84:	e0dd      	b.n	8004f42 <HAL_RCC_OscConfig+0x386>
        }
      }
    }
  }
  /*------------------------------ LSE Configuration -------------------------*/
  if(((RCC_OscInitStruct->OscillatorType) & RCC_OSCILLATORTYPE_LSE) == RCC_OSCILLATORTYPE_LSE)
 8004d86:	6823      	ldr	r3, [r4, #0]
 8004d88:	f013 0f04 	tst.w	r3, #4
 8004d8c:	d079      	beq.n	8004e82 <HAL_RCC_OscConfig+0x2c6>
    /* Check the parameters */
    assert_param(IS_RCC_LSE(RCC_OscInitStruct->LSEState));

    /* Update LSE configuration in Backup Domain control register    */
    /* Requires to enable write access to Backup Domain of necessary */
    if(__HAL_RCC_PWR_IS_CLK_DISABLED())
 8004d8e:	4b38      	ldr	r3, [pc, #224]	; (8004e70 <HAL_RCC_OscConfig+0x2b4>)
 8004d90:	6c1b      	ldr	r3, [r3, #64]	; 0x40
 8004d92:	f013 5f80 	tst.w	r3, #268435456	; 0x10000000
 8004d96:	d133      	bne.n	8004e00 <HAL_RCC_OscConfig+0x244>
    {
      __HAL_RCC_PWR_CLK_ENABLE();
 8004d98:	2300      	movs	r3, #0
 8004d9a:	9301      	str	r3, [sp, #4]
 8004d9c:	4b34      	ldr	r3, [pc, #208]	; (8004e70 <HAL_RCC_OscConfig+0x2b4>)
 8004d9e:	6c1a      	ldr	r2, [r3, #64]	; 0x40
 8004da0:	f042 5280 	orr.w	r2, r2, #268435456	; 0x10000000
 8004da4:	641a      	str	r2, [r3, #64]	; 0x40
 8004da6:	6c1b      	ldr	r3, [r3, #64]	; 0x40
 8004da8:	f003 5380 	and.w	r3, r3, #268435456	; 0x10000000
 8004dac:	9301      	str	r3, [sp, #4]
 8004dae:	9b01      	ldr	r3, [sp, #4]
      pwrclkchanged = SET;
 8004db0:	2501      	movs	r5, #1
    }

    if(HAL_IS_BIT_CLR(PWR->CR, PWR_CR_DBP))
 8004db2:	4b32      	ldr	r3, [pc, #200]	; (8004e7c <HAL_RCC_OscConfig+0x2c0>)
 8004db4:	681b      	ldr	r3, [r3, #0]
 8004db6:	f413 7f80 	tst.w	r3, #256	; 0x100
 8004dba:	d023      	beq.n	8004e04 <HAL_RCC_OscConfig+0x248>
        }
      }
    }

    /* Set the new LSE configuration -----------------------------------------*/
    __HAL_RCC_LSE_CONFIG(RCC_OscInitStruct->LSEState);
 8004dbc:	68a3      	ldr	r3, [r4, #8]
 8004dbe:	2b01      	cmp	r3, #1
 8004dc0:	d034      	beq.n	8004e2c <HAL_RCC_OscConfig+0x270>
 8004dc2:	2b05      	cmp	r3, #5
 8004dc4:	d038      	beq.n	8004e38 <HAL_RCC_OscConfig+0x27c>
 8004dc6:	4b2a      	ldr	r3, [pc, #168]	; (8004e70 <HAL_RCC_OscConfig+0x2b4>)
 8004dc8:	6f1a      	ldr	r2, [r3, #112]	; 0x70
 8004dca:	f022 0201 	bic.w	r2, r2, #1
 8004dce:	671a      	str	r2, [r3, #112]	; 0x70
 8004dd0:	6f1a      	ldr	r2, [r3, #112]	; 0x70
 8004dd2:	f022 0204 	bic.w	r2, r2, #4
 8004dd6:	671a      	str	r2, [r3, #112]	; 0x70
    /* Check the LSE State */
    if((RCC_OscInitStruct->LSEState) != RCC_LSE_OFF)
 8004dd8:	68a3      	ldr	r3, [r4, #8]
 8004dda:	2b00      	cmp	r3, #0
 8004ddc:	d036      	beq.n	8004e4c <HAL_RCC_OscConfig+0x290>
    {
      /* Get Start Tick*/
      tickstart = HAL_GetTick();
 8004dde:	f7fe fc5b 	bl	8003698 <HAL_GetTick>
 8004de2:	4606      	mov	r6, r0

      /* Wait till LSE is ready */
      while(__HAL_RCC_GET_FLAG(RCC_FLAG_LSERDY) == RESET)
 8004de4:	4b22      	ldr	r3, [pc, #136]	; (8004e70 <HAL_RCC_OscConfig+0x2b4>)
 8004de6:	6f1b      	ldr	r3, [r3, #112]	; 0x70
 8004de8:	f013 0f02 	tst.w	r3, #2
 8004dec:	d148      	bne.n	8004e80 <HAL_RCC_OscConfig+0x2c4>
      {
        if((HAL_GetTick() - tickstart ) > RCC_LSE_TIMEOUT_VALUE)
 8004dee:	f7fe fc53 	bl	8003698 <HAL_GetTick>
 8004df2:	1b80      	subs	r0, r0, r6
 8004df4:	f241 3388 	movw	r3, #5000	; 0x1388
 8004df8:	4298      	cmp	r0, r3
 8004dfa:	d9f3      	bls.n	8004de4 <HAL_RCC_OscConfig+0x228>
        {
          return HAL_TIMEOUT;
 8004dfc:	2003      	movs	r0, #3
 8004dfe:	e0a0      	b.n	8004f42 <HAL_RCC_OscConfig+0x386>
    FlagStatus       pwrclkchanged = RESET;
 8004e00:	2500      	movs	r5, #0
 8004e02:	e7d6      	b.n	8004db2 <HAL_RCC_OscConfig+0x1f6>
      SET_BIT(PWR->CR, PWR_CR_DBP);
 8004e04:	4a1d      	ldr	r2, [pc, #116]	; (8004e7c <HAL_RCC_OscConfig+0x2c0>)
 8004e06:	6813      	ldr	r3, [r2, #0]
 8004e08:	f443 7380 	orr.w	r3, r3, #256	; 0x100
 8004e0c:	6013      	str	r3, [r2, #0]
      tickstart = HAL_GetTick();
 8004e0e:	f7fe fc43 	bl	8003698 <HAL_GetTick>
 8004e12:	4606      	mov	r6, r0
      while(HAL_IS_BIT_CLR(PWR->CR, PWR_CR_DBP))
 8004e14:	4b19      	ldr	r3, [pc, #100]	; (8004e7c <HAL_RCC_OscConfig+0x2c0>)
 8004e16:	681b      	ldr	r3, [r3, #0]
 8004e18:	f413 7f80 	tst.w	r3, #256	; 0x100
 8004e1c:	d1ce      	bne.n	8004dbc <HAL_RCC_OscConfig+0x200>
        if((HAL_GetTick() - tickstart) > RCC_DBP_TIMEOUT_VALUE)
 8004e1e:	f7fe fc3b 	bl	8003698 <HAL_GetTick>
 8004e22:	1b80      	subs	r0, r0, r6
 8004e24:	2802      	cmp	r0, #2
 8004e26:	d9f5      	bls.n	8004e14 <HAL_RCC_OscConfig+0x258>
          return HAL_TIMEOUT;
 8004e28:	2003      	movs	r0, #3
 8004e2a:	e08a      	b.n	8004f42 <HAL_RCC_OscConfig+0x386>
    __HAL_RCC_LSE_CONFIG(RCC_OscInitStruct->LSEState);
 8004e2c:	4a10      	ldr	r2, [pc, #64]	; (8004e70 <HAL_RCC_OscConfig+0x2b4>)
 8004e2e:	6f13      	ldr	r3, [r2, #112]	; 0x70
 8004e30:	f043 0301 	orr.w	r3, r3, #1
 8004e34:	6713      	str	r3, [r2, #112]	; 0x70
 8004e36:	e7cf      	b.n	8004dd8 <HAL_RCC_OscConfig+0x21c>
 8004e38:	4b0d      	ldr	r3, [pc, #52]	; (8004e70 <HAL_RCC_OscConfig+0x2b4>)
 8004e3a:	6f1a      	ldr	r2, [r3, #112]	; 0x70
 8004e3c:	f042 0204 	orr.w	r2, r2, #4
 8004e40:	671a      	str	r2, [r3, #112]	; 0x70
 8004e42:	6f1a      	ldr	r2, [r3, #112]	; 0x70
 8004e44:	f042 0201 	orr.w	r2, r2, #1
 8004e48:	671a      	str	r2, [r3, #112]	; 0x70
 8004e4a:	e7c5      	b.n	8004dd8 <HAL_RCC_OscConfig+0x21c>
      }
    }
    else
    {
      /* Get Start Tick */
      tickstart = HAL_GetTick();
 8004e4c:	f7fe fc24 	bl	8003698 <HAL_GetTick>
 8004e50:	4606      	mov	r6, r0

      /* Wait till LSE is ready */
      while(__HAL_RCC_GET_FLAG(RCC_FLAG_LSERDY) != RESET)
 8004e52:	4b07      	ldr	r3, [pc, #28]	; (8004e70 <HAL_RCC_OscConfig+0x2b4>)
 8004e54:	6f1b      	ldr	r3, [r3, #112]	; 0x70
 8004e56:	f013 0f02 	tst.w	r3, #2
 8004e5a:	d011      	beq.n	8004e80 <HAL_RCC_OscConfig+0x2c4>
      {
        if((HAL_GetTick() - tickstart ) > RCC_LSE_TIMEOUT_VALUE)
 8004e5c:	f7fe fc1c 	bl	8003698 <HAL_GetTick>
 8004e60:	1b80      	subs	r0, r0, r6
 8004e62:	f241 3388 	movw	r3, #5000	; 0x1388
 8004e66:	4298      	cmp	r0, r3
 8004e68:	d9f3      	bls.n	8004e52 <HAL_RCC_OscConfig+0x296>
        {
          return HAL_TIMEOUT;
 8004e6a:	2003      	movs	r0, #3
 8004e6c:	e069      	b.n	8004f42 <HAL_RCC_OscConfig+0x386>
 8004e6e:	bf00      	nop
 8004e70:	40023800 	.word	0x40023800
 8004e74:	42470000 	.word	0x42470000
 8004e78:	42470e80 	.word	0x42470e80
 8004e7c:	40007000 	.word	0x40007000
        }
      }
    }

    /* Restore clock configuration if changed */
    if(pwrclkchanged == SET)
 8004e80:	b9e5      	cbnz	r5, 8004ebc <HAL_RCC_OscConfig+0x300>
    }
  }
  /*-------------------------------- PLL Configuration -----------------------*/
  /* Check the parameters */
  assert_param(IS_RCC_PLL(RCC_OscInitStruct->PLL.PLLState));
  if ((RCC_OscInitStruct->PLL.PLLState) != RCC_PLL_NONE)
 8004e82:	69a3      	ldr	r3, [r4, #24]
 8004e84:	2b00      	cmp	r3, #0
 8004e86:	d05b      	beq.n	8004f40 <HAL_RCC_OscConfig+0x384>
  {
    /* Check if the PLL is used as system clock or not */
    if(__HAL_RCC_GET_SYSCLK_SOURCE() != RCC_CFGR_SWS_PLL)
 8004e88:	4a30      	ldr	r2, [pc, #192]	; (8004f4c <HAL_RCC_OscConfig+0x390>)
 8004e8a:	6892      	ldr	r2, [r2, #8]
 8004e8c:	f002 020c 	and.w	r2, r2, #12
 8004e90:	2a08      	cmp	r2, #8
 8004e92:	d058      	beq.n	8004f46 <HAL_RCC_OscConfig+0x38a>
    {
      if((RCC_OscInitStruct->PLL.PLLState) == RCC_PLL_ON)
 8004e94:	2b02      	cmp	r3, #2
 8004e96:	d017      	beq.n	8004ec8 <HAL_RCC_OscConfig+0x30c>
        }
      }
      else
      {
        /* Disable the main PLL. */
        __HAL_RCC_PLL_DISABLE();
 8004e98:	4b2d      	ldr	r3, [pc, #180]	; (8004f50 <HAL_RCC_OscConfig+0x394>)
 8004e9a:	2200      	movs	r2, #0
 8004e9c:	601a      	str	r2, [r3, #0]

        /* Get Start Tick */
        tickstart = HAL_GetTick();
 8004e9e:	f7fe fbfb 	bl	8003698 <HAL_GetTick>
 8004ea2:	4604      	mov	r4, r0

        /* Wait till PLL is ready */
        while(__HAL_RCC_GET_FLAG(RCC_FLAG_PLLRDY) != RESET)
 8004ea4:	4b29      	ldr	r3, [pc, #164]	; (8004f4c <HAL_RCC_OscConfig+0x390>)
 8004ea6:	681b      	ldr	r3, [r3, #0]
 8004ea8:	f013 7f00 	tst.w	r3, #33554432	; 0x2000000
 8004eac:	d042      	beq.n	8004f34 <HAL_RCC_OscConfig+0x378>
        {
          if((HAL_GetTick() - tickstart ) > PLL_TIMEOUT_VALUE)
 8004eae:	f7fe fbf3 	bl	8003698 <HAL_GetTick>
 8004eb2:	1b00      	subs	r0, r0, r4
 8004eb4:	2802      	cmp	r0, #2
 8004eb6:	d9f5      	bls.n	8004ea4 <HAL_RCC_OscConfig+0x2e8>
          {
            return HAL_TIMEOUT;
 8004eb8:	2003      	movs	r0, #3
 8004eba:	e042      	b.n	8004f42 <HAL_RCC_OscConfig+0x386>
      __HAL_RCC_PWR_CLK_DISABLE();
 8004ebc:	4a23      	ldr	r2, [pc, #140]	; (8004f4c <HAL_RCC_OscConfig+0x390>)
 8004ebe:	6c13      	ldr	r3, [r2, #64]	; 0x40
 8004ec0:	f023 5380 	bic.w	r3, r3, #268435456	; 0x10000000
 8004ec4:	6413      	str	r3, [r2, #64]	; 0x40
 8004ec6:	e7dc      	b.n	8004e82 <HAL_RCC_OscConfig+0x2c6>
        __HAL_RCC_PLL_DISABLE();
 8004ec8:	4b21      	ldr	r3, [pc, #132]	; (8004f50 <HAL_RCC_OscConfig+0x394>)
 8004eca:	2200      	movs	r2, #0
 8004ecc:	601a      	str	r2, [r3, #0]
        tickstart = HAL_GetTick();
 8004ece:	f7fe fbe3 	bl	8003698 <HAL_GetTick>
 8004ed2:	4605      	mov	r5, r0
        while(__HAL_RCC_GET_FLAG(RCC_FLAG_PLLRDY) != RESET)
 8004ed4:	4b1d      	ldr	r3, [pc, #116]	; (8004f4c <HAL_RCC_OscConfig+0x390>)
 8004ed6:	681b      	ldr	r3, [r3, #0]
 8004ed8:	f013 7f00 	tst.w	r3, #33554432	; 0x2000000
 8004edc:	d006      	beq.n	8004eec <HAL_RCC_OscConfig+0x330>
          if((HAL_GetTick() - tickstart ) > PLL_TIMEOUT_VALUE)
 8004ede:	f7fe fbdb 	bl	8003698 <HAL_GetTick>
 8004ee2:	1b40      	subs	r0, r0, r5
 8004ee4:	2802      	cmp	r0, #2
 8004ee6:	d9f5      	bls.n	8004ed4 <HAL_RCC_OscConfig+0x318>
            return HAL_TIMEOUT;
 8004ee8:	2003      	movs	r0, #3
 8004eea:	e02a      	b.n	8004f42 <HAL_RCC_OscConfig+0x386>
        WRITE_REG(RCC->PLLCFGR, (RCC_OscInitStruct->PLL.PLLSource                                            | \
 8004eec:	69e3      	ldr	r3, [r4, #28]
 8004eee:	6a22      	ldr	r2, [r4, #32]
 8004ef0:	4313      	orrs	r3, r2
 8004ef2:	6a62      	ldr	r2, [r4, #36]	; 0x24
 8004ef4:	ea43 1382 	orr.w	r3, r3, r2, lsl #6
 8004ef8:	6aa2      	ldr	r2, [r4, #40]	; 0x28
 8004efa:	0852      	lsrs	r2, r2, #1
 8004efc:	3a01      	subs	r2, #1
 8004efe:	ea43 4302 	orr.w	r3, r3, r2, lsl #16
 8004f02:	6ae2      	ldr	r2, [r4, #44]	; 0x2c
 8004f04:	ea43 6302 	orr.w	r3, r3, r2, lsl #24
 8004f08:	4a10      	ldr	r2, [pc, #64]	; (8004f4c <HAL_RCC_OscConfig+0x390>)
 8004f0a:	6053      	str	r3, [r2, #4]
        __HAL_RCC_PLL_ENABLE();
 8004f0c:	4b10      	ldr	r3, [pc, #64]	; (8004f50 <HAL_RCC_OscConfig+0x394>)
 8004f0e:	2201      	movs	r2, #1
 8004f10:	601a      	str	r2, [r3, #0]
        tickstart = HAL_GetTick();
 8004f12:	f7fe fbc1 	bl	8003698 <HAL_GetTick>
 8004f16:	4604      	mov	r4, r0
        while(__HAL_RCC_GET_FLAG(RCC_FLAG_PLLRDY) == RESET)
 8004f18:	4b0c      	ldr	r3, [pc, #48]	; (8004f4c <HAL_RCC_OscConfig+0x390>)
 8004f1a:	681b      	ldr	r3, [r3, #0]
 8004f1c:	f013 7f00 	tst.w	r3, #33554432	; 0x2000000
 8004f20:	d106      	bne.n	8004f30 <HAL_RCC_OscConfig+0x374>
          if((HAL_GetTick() - tickstart ) > PLL_TIMEOUT_VALUE)
 8004f22:	f7fe fbb9 	bl	8003698 <HAL_GetTick>
 8004f26:	1b00      	subs	r0, r0, r4
 8004f28:	2802      	cmp	r0, #2
 8004f2a:	d9f5      	bls.n	8004f18 <HAL_RCC_OscConfig+0x35c>
            return HAL_TIMEOUT;
 8004f2c:	2003      	movs	r0, #3
 8004f2e:	e008      	b.n	8004f42 <HAL_RCC_OscConfig+0x386>
    else
    {
      return HAL_ERROR;
    }
  }
  return HAL_OK;
 8004f30:	2000      	movs	r0, #0
 8004f32:	e006      	b.n	8004f42 <HAL_RCC_OscConfig+0x386>
 8004f34:	2000      	movs	r0, #0
 8004f36:	e004      	b.n	8004f42 <HAL_RCC_OscConfig+0x386>
    return HAL_ERROR;
 8004f38:	2001      	movs	r0, #1
}
 8004f3a:	4770      	bx	lr
        return HAL_ERROR;
 8004f3c:	2001      	movs	r0, #1
 8004f3e:	e000      	b.n	8004f42 <HAL_RCC_OscConfig+0x386>
  return HAL_OK;
 8004f40:	2000      	movs	r0, #0
}
 8004f42:	b002      	add	sp, #8
 8004f44:	bd70      	pop	{r4, r5, r6, pc}
      return HAL_ERROR;
 8004f46:	2001      	movs	r0, #1
 8004f48:	e7fb      	b.n	8004f42 <HAL_RCC_OscConfig+0x386>
 8004f4a:	bf00      	nop
 8004f4c:	40023800 	.word	0x40023800
 8004f50:	42470060 	.word	0x42470060

08004f54 <HAL_RCC_GetSysClockFreq>:
{
  uint32_t pllm = 0U, pllvco = 0U, pllp = 0U;
  uint32_t sysclockfreq = 0U;

  /* Get SYSCLK source -------------------------------------------------------*/
  switch (RCC->CFGR & RCC_CFGR_SWS)
 8004f54:	4b32      	ldr	r3, [pc, #200]	; (8005020 <HAL_RCC_GetSysClockFreq+0xcc>)
 8004f56:	689b      	ldr	r3, [r3, #8]
 8004f58:	f003 030c 	and.w	r3, r3, #12
 8004f5c:	2b04      	cmp	r3, #4
 8004f5e:	d05c      	beq.n	800501a <HAL_RCC_GetSysClockFreq+0xc6>
 8004f60:	2b08      	cmp	r3, #8
 8004f62:	d001      	beq.n	8004f68 <HAL_RCC_GetSysClockFreq+0x14>
  {
    case RCC_CFGR_SWS_HSI:  /* HSI used as system clock source */
    {
      sysclockfreq = HSI_VALUE;
 8004f64:	482f      	ldr	r0, [pc, #188]	; (8005024 <HAL_RCC_GetSysClockFreq+0xd0>)
 8004f66:	4770      	bx	lr
{
 8004f68:	e92d 4bf0 	stmdb	sp!, {r4, r5, r6, r7, r8, r9, fp, lr}
    }
    case RCC_CFGR_SWS_PLL:  /* PLL used as system clock  source */
    {
      /* PLL_VCO = (HSE_VALUE or HSI_VALUE / PLLM) * PLLN
      SYSCLK = PLL_VCO / PLLP */
      pllm = RCC->PLLCFGR & RCC_PLLCFGR_PLLM;
 8004f6c:	4b2c      	ldr	r3, [pc, #176]	; (8005020 <HAL_RCC_GetSysClockFreq+0xcc>)
 8004f6e:	685a      	ldr	r2, [r3, #4]
 8004f70:	f002 023f 	and.w	r2, r2, #63	; 0x3f
      if(__HAL_RCC_GET_PLL_OSCSOURCE() != RCC_PLLSOURCE_HSI)
 8004f74:	685b      	ldr	r3, [r3, #4]
 8004f76:	f413 0f80 	tst.w	r3, #4194304	; 0x400000
 8004f7a:	d02b      	beq.n	8004fd4 <HAL_RCC_GetSysClockFreq+0x80>
      {
        /* HSE used as PLL clock source */
        pllvco = (uint32_t) ((((uint64_t) HSE_VALUE * ((uint64_t) ((RCC->PLLCFGR & RCC_PLLCFGR_PLLN) >> RCC_PLLCFGR_PLLN_Pos)))) / (uint64_t)pllm);
 8004f7c:	4b28      	ldr	r3, [pc, #160]	; (8005020 <HAL_RCC_GetSysClockFreq+0xcc>)
 8004f7e:	685b      	ldr	r3, [r3, #4]
 8004f80:	f3c3 1388 	ubfx	r3, r3, #6, #9
 8004f84:	461e      	mov	r6, r3
 8004f86:	2700      	movs	r7, #0
 8004f88:	015c      	lsls	r4, r3, #5
 8004f8a:	2500      	movs	r5, #0
 8004f8c:	1ae4      	subs	r4, r4, r3
 8004f8e:	eb65 0507 	sbc.w	r5, r5, r7
 8004f92:	01a9      	lsls	r1, r5, #6
 8004f94:	ea41 6194 	orr.w	r1, r1, r4, lsr #26
 8004f98:	01a0      	lsls	r0, r4, #6
 8004f9a:	1b00      	subs	r0, r0, r4
 8004f9c:	eb61 0105 	sbc.w	r1, r1, r5
 8004fa0:	00cb      	lsls	r3, r1, #3
 8004fa2:	ea43 7350 	orr.w	r3, r3, r0, lsr #29
 8004fa6:	00c4      	lsls	r4, r0, #3
 8004fa8:	19a0      	adds	r0, r4, r6
 8004faa:	eb43 0107 	adc.w	r1, r3, r7
 8004fae:	024b      	lsls	r3, r1, #9
 8004fb0:	ea43 53d0 	orr.w	r3, r3, r0, lsr #23
 8004fb4:	0244      	lsls	r4, r0, #9
 8004fb6:	4620      	mov	r0, r4
 8004fb8:	4619      	mov	r1, r3
 8004fba:	2300      	movs	r3, #0
 8004fbc:	f7fb fd2e 	bl	8000a1c <__aeabi_uldivmod>
      else
      {
        /* HSI used as PLL clock source */
        pllvco = (uint32_t) ((((uint64_t) HSI_VALUE * ((uint64_t) ((RCC->PLLCFGR & RCC_PLLCFGR_PLLN) >> RCC_PLLCFGR_PLLN_Pos)))) / (uint64_t)pllm);
      }
      pllp = ((((RCC->PLLCFGR & RCC_PLLCFGR_PLLP) >> RCC_PLLCFGR_PLLP_Pos) + 1U) *2U);
 8004fc0:	4b17      	ldr	r3, [pc, #92]	; (8005020 <HAL_RCC_GetSysClockFreq+0xcc>)
 8004fc2:	685b      	ldr	r3, [r3, #4]
 8004fc4:	f3c3 4301 	ubfx	r3, r3, #16, #2
 8004fc8:	3301      	adds	r3, #1
 8004fca:	005b      	lsls	r3, r3, #1

      sysclockfreq = pllvco/pllp;
 8004fcc:	fbb0 f0f3 	udiv	r0, r0, r3
      sysclockfreq = HSI_VALUE;
      break;
    }
  }
  return sysclockfreq;
}
 8004fd0:	e8bd 8bf0 	ldmia.w	sp!, {r4, r5, r6, r7, r8, r9, fp, pc}
        pllvco = (uint32_t) ((((uint64_t) HSI_VALUE * ((uint64_t) ((RCC->PLLCFGR & RCC_PLLCFGR_PLLN) >> RCC_PLLCFGR_PLLN_Pos)))) / (uint64_t)pllm);
 8004fd4:	4b12      	ldr	r3, [pc, #72]	; (8005020 <HAL_RCC_GetSysClockFreq+0xcc>)
 8004fd6:	685b      	ldr	r3, [r3, #4]
 8004fd8:	f3c3 1388 	ubfx	r3, r3, #6, #9
 8004fdc:	461e      	mov	r6, r3
 8004fde:	2700      	movs	r7, #0
 8004fe0:	015c      	lsls	r4, r3, #5
 8004fe2:	2500      	movs	r5, #0
 8004fe4:	1ae4      	subs	r4, r4, r3
 8004fe6:	eb65 0507 	sbc.w	r5, r5, r7
 8004fea:	01a9      	lsls	r1, r5, #6
 8004fec:	ea41 6194 	orr.w	r1, r1, r4, lsr #26
 8004ff0:	01a0      	lsls	r0, r4, #6
 8004ff2:	1b00      	subs	r0, r0, r4
 8004ff4:	eb61 0105 	sbc.w	r1, r1, r5
 8004ff8:	00cb      	lsls	r3, r1, #3
 8004ffa:	ea43 7350 	orr.w	r3, r3, r0, lsr #29
 8004ffe:	00c4      	lsls	r4, r0, #3
 8005000:	19a0      	adds	r0, r4, r6
 8005002:	eb43 0107 	adc.w	r1, r3, r7
 8005006:	028b      	lsls	r3, r1, #10
 8005008:	ea43 5390 	orr.w	r3, r3, r0, lsr #22
 800500c:	0284      	lsls	r4, r0, #10
 800500e:	4620      	mov	r0, r4
 8005010:	4619      	mov	r1, r3
 8005012:	2300      	movs	r3, #0
 8005014:	f7fb fd02 	bl	8000a1c <__aeabi_uldivmod>
 8005018:	e7d2      	b.n	8004fc0 <HAL_RCC_GetSysClockFreq+0x6c>
      sysclockfreq = HSE_VALUE;
 800501a:	4803      	ldr	r0, [pc, #12]	; (8005028 <HAL_RCC_GetSysClockFreq+0xd4>)
}
 800501c:	4770      	bx	lr
 800501e:	bf00      	nop
 8005020:	40023800 	.word	0x40023800
 8005024:	00f42400 	.word	0x00f42400
 8005028:	007a1200 	.word	0x007a1200

0800502c <HAL_RCC_ClockConfig>:
  if(RCC_ClkInitStruct == NULL)
 800502c:	2800      	cmp	r0, #0
 800502e:	f000 809d 	beq.w	800516c <HAL_RCC_ClockConfig+0x140>
{
 8005032:	b570      	push	{r4, r5, r6, lr}
 8005034:	4604      	mov	r4, r0
  if(FLatency > __HAL_FLASH_GET_LATENCY())
 8005036:	4b4f      	ldr	r3, [pc, #316]	; (8005174 <HAL_RCC_ClockConfig+0x148>)
 8005038:	681b      	ldr	r3, [r3, #0]
 800503a:	f003 030f 	and.w	r3, r3, #15
 800503e:	428b      	cmp	r3, r1
 8005040:	d209      	bcs.n	8005056 <HAL_RCC_ClockConfig+0x2a>
    __HAL_FLASH_SET_LATENCY(FLatency);
 8005042:	b2cb      	uxtb	r3, r1
 8005044:	4a4b      	ldr	r2, [pc, #300]	; (8005174 <HAL_RCC_ClockConfig+0x148>)
 8005046:	7013      	strb	r3, [r2, #0]
    if(__HAL_FLASH_GET_LATENCY() != FLatency)
 8005048:	6813      	ldr	r3, [r2, #0]
 800504a:	f003 030f 	and.w	r3, r3, #15
 800504e:	428b      	cmp	r3, r1
 8005050:	d001      	beq.n	8005056 <HAL_RCC_ClockConfig+0x2a>
      return HAL_ERROR;
 8005052:	2001      	movs	r0, #1
}
 8005054:	bd70      	pop	{r4, r5, r6, pc}
  if(((RCC_ClkInitStruct->ClockType) & RCC_CLOCKTYPE_HCLK) == RCC_CLOCKTYPE_HCLK)
 8005056:	6823      	ldr	r3, [r4, #0]
 8005058:	f013 0f02 	tst.w	r3, #2
 800505c:	d017      	beq.n	800508e <HAL_RCC_ClockConfig+0x62>
    if(((RCC_ClkInitStruct->ClockType) & RCC_CLOCKTYPE_PCLK1) == RCC_CLOCKTYPE_PCLK1)
 800505e:	f013 0f04 	tst.w	r3, #4
 8005062:	d004      	beq.n	800506e <HAL_RCC_ClockConfig+0x42>
      MODIFY_REG(RCC->CFGR, RCC_CFGR_PPRE1, RCC_HCLK_DIV16);
 8005064:	4a44      	ldr	r2, [pc, #272]	; (8005178 <HAL_RCC_ClockConfig+0x14c>)
 8005066:	6893      	ldr	r3, [r2, #8]
 8005068:	f443 53e0 	orr.w	r3, r3, #7168	; 0x1c00
 800506c:	6093      	str	r3, [r2, #8]
    if(((RCC_ClkInitStruct->ClockType) & RCC_CLOCKTYPE_PCLK2) == RCC_CLOCKTYPE_PCLK2)
 800506e:	6823      	ldr	r3, [r4, #0]
 8005070:	f013 0f08 	tst.w	r3, #8
 8005074:	d004      	beq.n	8005080 <HAL_RCC_ClockConfig+0x54>
      MODIFY_REG(RCC->CFGR, RCC_CFGR_PPRE2, (RCC_HCLK_DIV16 << 3));
 8005076:	4a40      	ldr	r2, [pc, #256]	; (8005178 <HAL_RCC_ClockConfig+0x14c>)
 8005078:	6893      	ldr	r3, [r2, #8]
 800507a:	f443 4360 	orr.w	r3, r3, #57344	; 0xe000
 800507e:	6093      	str	r3, [r2, #8]
    MODIFY_REG(RCC->CFGR, RCC_CFGR_HPRE, RCC_ClkInitStruct->AHBCLKDivider);
 8005080:	4a3d      	ldr	r2, [pc, #244]	; (8005178 <HAL_RCC_ClockConfig+0x14c>)
 8005082:	6893      	ldr	r3, [r2, #8]
 8005084:	f023 03f0 	bic.w	r3, r3, #240	; 0xf0
 8005088:	68a0      	ldr	r0, [r4, #8]
 800508a:	4303      	orrs	r3, r0
 800508c:	6093      	str	r3, [r2, #8]
 800508e:	460d      	mov	r5, r1
  if(((RCC_ClkInitStruct->ClockType) & RCC_CLOCKTYPE_SYSCLK) == RCC_CLOCKTYPE_SYSCLK)
 8005090:	6823      	ldr	r3, [r4, #0]
 8005092:	f013 0f01 	tst.w	r3, #1
 8005096:	d032      	beq.n	80050fe <HAL_RCC_ClockConfig+0xd2>
    if(RCC_ClkInitStruct->SYSCLKSource == RCC_SYSCLKSOURCE_HSE)
 8005098:	6863      	ldr	r3, [r4, #4]
 800509a:	2b01      	cmp	r3, #1
 800509c:	d021      	beq.n	80050e2 <HAL_RCC_ClockConfig+0xb6>
    else if((RCC_ClkInitStruct->SYSCLKSource == RCC_SYSCLKSOURCE_PLLCLK)   ||
 800509e:	1e9a      	subs	r2, r3, #2
 80050a0:	2a01      	cmp	r2, #1
 80050a2:	d925      	bls.n	80050f0 <HAL_RCC_ClockConfig+0xc4>
      if(__HAL_RCC_GET_FLAG(RCC_FLAG_HSIRDY) == RESET)
 80050a4:	4a34      	ldr	r2, [pc, #208]	; (8005178 <HAL_RCC_ClockConfig+0x14c>)
 80050a6:	6812      	ldr	r2, [r2, #0]
 80050a8:	f012 0f02 	tst.w	r2, #2
 80050ac:	d060      	beq.n	8005170 <HAL_RCC_ClockConfig+0x144>
    __HAL_RCC_SYSCLK_CONFIG(RCC_ClkInitStruct->SYSCLKSource);
 80050ae:	4932      	ldr	r1, [pc, #200]	; (8005178 <HAL_RCC_ClockConfig+0x14c>)
 80050b0:	688a      	ldr	r2, [r1, #8]
 80050b2:	f022 0203 	bic.w	r2, r2, #3
 80050b6:	4313      	orrs	r3, r2
 80050b8:	608b      	str	r3, [r1, #8]
    tickstart = HAL_GetTick();
 80050ba:	f7fe faed 	bl	8003698 <HAL_GetTick>
 80050be:	4606      	mov	r6, r0
    while (__HAL_RCC_GET_SYSCLK_SOURCE() != (RCC_ClkInitStruct->SYSCLKSource << RCC_CFGR_SWS_Pos))
 80050c0:	4b2d      	ldr	r3, [pc, #180]	; (8005178 <HAL_RCC_ClockConfig+0x14c>)
 80050c2:	689b      	ldr	r3, [r3, #8]
 80050c4:	f003 030c 	and.w	r3, r3, #12
 80050c8:	6862      	ldr	r2, [r4, #4]
 80050ca:	ebb3 0f82 	cmp.w	r3, r2, lsl #2
 80050ce:	d016      	beq.n	80050fe <HAL_RCC_ClockConfig+0xd2>
      if ((HAL_GetTick() - tickstart) > CLOCKSWITCH_TIMEOUT_VALUE)
 80050d0:	f7fe fae2 	bl	8003698 <HAL_GetTick>
 80050d4:	1b80      	subs	r0, r0, r6
 80050d6:	f241 3388 	movw	r3, #5000	; 0x1388
 80050da:	4298      	cmp	r0, r3
 80050dc:	d9f0      	bls.n	80050c0 <HAL_RCC_ClockConfig+0x94>
        return HAL_TIMEOUT;
 80050de:	2003      	movs	r0, #3
 80050e0:	e7b8      	b.n	8005054 <HAL_RCC_ClockConfig+0x28>
      if(__HAL_RCC_GET_FLAG(RCC_FLAG_HSERDY) == RESET)
 80050e2:	4a25      	ldr	r2, [pc, #148]	; (8005178 <HAL_RCC_ClockConfig+0x14c>)
 80050e4:	6812      	ldr	r2, [r2, #0]
 80050e6:	f412 3f00 	tst.w	r2, #131072	; 0x20000
 80050ea:	d1e0      	bne.n	80050ae <HAL_RCC_ClockConfig+0x82>
        return HAL_ERROR;
 80050ec:	2001      	movs	r0, #1
 80050ee:	e7b1      	b.n	8005054 <HAL_RCC_ClockConfig+0x28>
      if(__HAL_RCC_GET_FLAG(RCC_FLAG_PLLRDY) == RESET)
 80050f0:	4a21      	ldr	r2, [pc, #132]	; (8005178 <HAL_RCC_ClockConfig+0x14c>)
 80050f2:	6812      	ldr	r2, [r2, #0]
 80050f4:	f012 7f00 	tst.w	r2, #33554432	; 0x2000000
 80050f8:	d1d9      	bne.n	80050ae <HAL_RCC_ClockConfig+0x82>
        return HAL_ERROR;
 80050fa:	2001      	movs	r0, #1
 80050fc:	e7aa      	b.n	8005054 <HAL_RCC_ClockConfig+0x28>
  if(FLatency < __HAL_FLASH_GET_LATENCY())
 80050fe:	4b1d      	ldr	r3, [pc, #116]	; (8005174 <HAL_RCC_ClockConfig+0x148>)
 8005100:	681b      	ldr	r3, [r3, #0]
 8005102:	f003 030f 	and.w	r3, r3, #15
 8005106:	42ab      	cmp	r3, r5
 8005108:	d909      	bls.n	800511e <HAL_RCC_ClockConfig+0xf2>
    __HAL_FLASH_SET_LATENCY(FLatency);
 800510a:	b2ea      	uxtb	r2, r5
 800510c:	4b19      	ldr	r3, [pc, #100]	; (8005174 <HAL_RCC_ClockConfig+0x148>)
 800510e:	701a      	strb	r2, [r3, #0]
    if(__HAL_FLASH_GET_LATENCY() != FLatency)
 8005110:	681b      	ldr	r3, [r3, #0]
 8005112:	f003 030f 	and.w	r3, r3, #15
 8005116:	42ab      	cmp	r3, r5
 8005118:	d001      	beq.n	800511e <HAL_RCC_ClockConfig+0xf2>
      return HAL_ERROR;
 800511a:	2001      	movs	r0, #1
 800511c:	e79a      	b.n	8005054 <HAL_RCC_ClockConfig+0x28>
  if(((RCC_ClkInitStruct->ClockType) & RCC_CLOCKTYPE_PCLK1) == RCC_CLOCKTYPE_PCLK1)
 800511e:	6823      	ldr	r3, [r4, #0]
 8005120:	f013 0f04 	tst.w	r3, #4
 8005124:	d006      	beq.n	8005134 <HAL_RCC_ClockConfig+0x108>
    MODIFY_REG(RCC->CFGR, RCC_CFGR_PPRE1, RCC_ClkInitStruct->APB1CLKDivider);
 8005126:	4a14      	ldr	r2, [pc, #80]	; (8005178 <HAL_RCC_ClockConfig+0x14c>)
 8005128:	6893      	ldr	r3, [r2, #8]
 800512a:	f423 53e0 	bic.w	r3, r3, #7168	; 0x1c00
 800512e:	68e1      	ldr	r1, [r4, #12]
 8005130:	430b      	orrs	r3, r1
 8005132:	6093      	str	r3, [r2, #8]
  if(((RCC_ClkInitStruct->ClockType) & RCC_CLOCKTYPE_PCLK2) == RCC_CLOCKTYPE_PCLK2)
 8005134:	6823      	ldr	r3, [r4, #0]
 8005136:	f013 0f08 	tst.w	r3, #8
 800513a:	d007      	beq.n	800514c <HAL_RCC_ClockConfig+0x120>
    MODIFY_REG(RCC->CFGR, RCC_CFGR_PPRE2, ((RCC_ClkInitStruct->APB2CLKDivider) << 3U));
 800513c:	4a0e      	ldr	r2, [pc, #56]	; (8005178 <HAL_RCC_ClockConfig+0x14c>)
 800513e:	6893      	ldr	r3, [r2, #8]
 8005140:	f423 4360 	bic.w	r3, r3, #57344	; 0xe000
 8005144:	6921      	ldr	r1, [r4, #16]
 8005146:	ea43 03c1 	orr.w	r3, r3, r1, lsl #3
 800514a:	6093      	str	r3, [r2, #8]
  SystemCoreClock = HAL_RCC_GetSysClockFreq() >> AHBPrescTable[(RCC->CFGR & RCC_CFGR_HPRE)>> RCC_CFGR_HPRE_Pos];
 800514c:	f7ff ff02 	bl	8004f54 <HAL_RCC_GetSysClockFreq>
 8005150:	4b09      	ldr	r3, [pc, #36]	; (8005178 <HAL_RCC_ClockConfig+0x14c>)
 8005152:	689b      	ldr	r3, [r3, #8]
 8005154:	f3c3 1303 	ubfx	r3, r3, #4, #4
 8005158:	4a08      	ldr	r2, [pc, #32]	; (800517c <HAL_RCC_ClockConfig+0x150>)
 800515a:	5cd3      	ldrb	r3, [r2, r3]
 800515c:	40d8      	lsrs	r0, r3
 800515e:	4b08      	ldr	r3, [pc, #32]	; (8005180 <HAL_RCC_ClockConfig+0x154>)
 8005160:	6018      	str	r0, [r3, #0]
  HAL_InitTick (TICK_INT_PRIORITY);
 8005162:	2000      	movs	r0, #0
 8005164:	f7fe fa4c 	bl	8003600 <HAL_InitTick>
  return HAL_OK;
 8005168:	2000      	movs	r0, #0
 800516a:	e773      	b.n	8005054 <HAL_RCC_ClockConfig+0x28>
    return HAL_ERROR;
 800516c:	2001      	movs	r0, #1
}
 800516e:	4770      	bx	lr
        return HAL_ERROR;
 8005170:	2001      	movs	r0, #1
 8005172:	e76f      	b.n	8005054 <HAL_RCC_ClockConfig+0x28>
 8005174:	40023c00 	.word	0x40023c00
 8005178:	40023800 	.word	0x40023800
 800517c:	0800c2e8 	.word	0x0800c2e8
 8005180:	20000090 	.word	0x20000090

08005184 <HAL_RCC_GetHCLKFreq>:
  * @retval HCLK frequency
  */
uint32_t HAL_RCC_GetHCLKFreq(void)
{
  return SystemCoreClock;
}
 8005184:	4b01      	ldr	r3, [pc, #4]	; (800518c <HAL_RCC_GetHCLKFreq+0x8>)
 8005186:	6818      	ldr	r0, [r3, #0]
 8005188:	4770      	bx	lr
 800518a:	bf00      	nop
 800518c:	20000090 	.word	0x20000090

08005190 <HAL_RCC_GetPCLK1Freq>:
  * @note   Each time PCLK1 changes, this function must be called to update the
  *         right PCLK1 value. Otherwise, any configuration based on this function will be incorrect.
  * @retval PCLK1 frequency
  */
uint32_t HAL_RCC_GetPCLK1Freq(void)
{
 8005190:	b508      	push	{r3, lr}
  /* Get HCLK source and Compute PCLK1 frequency ---------------------------*/
  return (HAL_RCC_GetHCLKFreq() >> APBPrescTable[(RCC->CFGR & RCC_CFGR_PPRE1)>> RCC_CFGR_PPRE1_Pos]);
 8005192:	f7ff fff7 	bl	8005184 <HAL_RCC_GetHCLKFreq>
 8005196:	4b04      	ldr	r3, [pc, #16]	; (80051a8 <HAL_RCC_GetPCLK1Freq+0x18>)
 8005198:	689b      	ldr	r3, [r3, #8]
 800519a:	f3c3 2382 	ubfx	r3, r3, #10, #3
 800519e:	4a03      	ldr	r2, [pc, #12]	; (80051ac <HAL_RCC_GetPCLK1Freq+0x1c>)
 80051a0:	5cd3      	ldrb	r3, [r2, r3]
}
 80051a2:	40d8      	lsrs	r0, r3
 80051a4:	bd08      	pop	{r3, pc}
 80051a6:	bf00      	nop
 80051a8:	40023800 	.word	0x40023800
 80051ac:	0800c2f8 	.word	0x0800c2f8

080051b0 <HAL_RCC_GetPCLK2Freq>:
  * @note   Each time PCLK2 changes, this function must be called to update the
  *         right PCLK2 value. Otherwise, any configuration based on this function will be incorrect.
  * @retval PCLK2 frequency
  */
uint32_t HAL_RCC_GetPCLK2Freq(void)
{
 80051b0:	b508      	push	{r3, lr}
  /* Get HCLK source and Compute PCLK2 frequency ---------------------------*/
  return (HAL_RCC_GetHCLKFreq()>> APBPrescTable[(RCC->CFGR & RCC_CFGR_PPRE2)>> RCC_CFGR_PPRE2_Pos]);
 80051b2:	f7ff ffe7 	bl	8005184 <HAL_RCC_GetHCLKFreq>
 80051b6:	4b04      	ldr	r3, [pc, #16]	; (80051c8 <HAL_RCC_GetPCLK2Freq+0x18>)
 80051b8:	689b      	ldr	r3, [r3, #8]
 80051ba:	f3c3 3342 	ubfx	r3, r3, #13, #3
 80051be:	4a03      	ldr	r2, [pc, #12]	; (80051cc <HAL_RCC_GetPCLK2Freq+0x1c>)
 80051c0:	5cd3      	ldrb	r3, [r2, r3]
}
 80051c2:	40d8      	lsrs	r0, r3
 80051c4:	bd08      	pop	{r3, pc}
 80051c6:	bf00      	nop
 80051c8:	40023800 	.word	0x40023800
 80051cc:	0800c2f8 	.word	0x0800c2f8

080051d0 <SPI_WaitFlagStateUntilTimeout>:
  * @param  Tickstart tick start value
  * @retval HAL status
  */
static HAL_StatusTypeDef SPI_WaitFlagStateUntilTimeout(SPI_HandleTypeDef *hspi, uint32_t Flag, FlagStatus State,
                                                       uint32_t Timeout, uint32_t Tickstart)
{
 80051d0:	b5f8      	push	{r3, r4, r5, r6, r7, lr}
 80051d2:	4605      	mov	r5, r0
 80051d4:	460f      	mov	r7, r1
 80051d6:	4616      	mov	r6, r2
 80051d8:	461c      	mov	r4, r3
  while ((__HAL_SPI_GET_FLAG(hspi, Flag) ? SET : RESET) != State)
 80051da:	682b      	ldr	r3, [r5, #0]
 80051dc:	689b      	ldr	r3, [r3, #8]
 80051de:	ea37 0303 	bics.w	r3, r7, r3
 80051e2:	bf0c      	ite	eq
 80051e4:	2301      	moveq	r3, #1
 80051e6:	2300      	movne	r3, #0
 80051e8:	42b3      	cmp	r3, r6
 80051ea:	d037      	beq.n	800525c <SPI_WaitFlagStateUntilTimeout+0x8c>
  {
    if (Timeout != HAL_MAX_DELAY)
 80051ec:	f1b4 3fff 	cmp.w	r4, #4294967295	; 0xffffffff
 80051f0:	d0f3      	beq.n	80051da <SPI_WaitFlagStateUntilTimeout+0xa>
    {
      if (((HAL_GetTick() - Tickstart) >= Timeout) || (Timeout == 0U))
 80051f2:	f7fe fa51 	bl	8003698 <HAL_GetTick>
 80051f6:	9b06      	ldr	r3, [sp, #24]
 80051f8:	1ac0      	subs	r0, r0, r3
 80051fa:	42a0      	cmp	r0, r4
 80051fc:	d201      	bcs.n	8005202 <SPI_WaitFlagStateUntilTimeout+0x32>
 80051fe:	2c00      	cmp	r4, #0
 8005200:	d1eb      	bne.n	80051da <SPI_WaitFlagStateUntilTimeout+0xa>
        /* Disable the SPI and reset the CRC: the CRC value should be cleared
        on both master and slave sides in order to resynchronize the master
        and slave for their respective CRC calculation */

        /* Disable TXE, RXNE and ERR interrupts for the interrupt process */
        __HAL_SPI_DISABLE_IT(hspi, (SPI_IT_TXE | SPI_IT_RXNE | SPI_IT_ERR));
 8005202:	682a      	ldr	r2, [r5, #0]
 8005204:	6853      	ldr	r3, [r2, #4]
 8005206:	f023 03e0 	bic.w	r3, r3, #224	; 0xe0
 800520a:	6053      	str	r3, [r2, #4]

        if ((hspi->Init.Mode == SPI_MODE_MASTER) && ((hspi->Init.Direction == SPI_DIRECTION_1LINE)
 800520c:	686b      	ldr	r3, [r5, #4]
 800520e:	f5b3 7f82 	cmp.w	r3, #260	; 0x104
 8005212:	d00b      	beq.n	800522c <SPI_WaitFlagStateUntilTimeout+0x5c>
          /* Disable SPI peripheral */
          __HAL_SPI_DISABLE(hspi);
        }

        /* Reset CRC Calculation */
        if (hspi->Init.CRCCalculation == SPI_CRCCALCULATION_ENABLE)
 8005214:	6aab      	ldr	r3, [r5, #40]	; 0x28
 8005216:	f5b3 5f00 	cmp.w	r3, #8192	; 0x2000
 800521a:	d014      	beq.n	8005246 <SPI_WaitFlagStateUntilTimeout+0x76>
        {
          SPI_RESET_CRC(hspi);
        }

        hspi->State = HAL_SPI_STATE_READY;
 800521c:	2301      	movs	r3, #1
 800521e:	f885 3051 	strb.w	r3, [r5, #81]	; 0x51

        /* Process Unlocked */
        __HAL_UNLOCK(hspi);
 8005222:	2300      	movs	r3, #0
 8005224:	f885 3050 	strb.w	r3, [r5, #80]	; 0x50

        return HAL_TIMEOUT;
 8005228:	2003      	movs	r0, #3
 800522a:	e018      	b.n	800525e <SPI_WaitFlagStateUntilTimeout+0x8e>
        if ((hspi->Init.Mode == SPI_MODE_MASTER) && ((hspi->Init.Direction == SPI_DIRECTION_1LINE)
 800522c:	68ab      	ldr	r3, [r5, #8]
 800522e:	f5b3 4f00 	cmp.w	r3, #32768	; 0x8000
 8005232:	d002      	beq.n	800523a <SPI_WaitFlagStateUntilTimeout+0x6a>
                                                     || (hspi->Init.Direction == SPI_DIRECTION_2LINES_RXONLY)))
 8005234:	f5b3 6f80 	cmp.w	r3, #1024	; 0x400
 8005238:	d1ec      	bne.n	8005214 <SPI_WaitFlagStateUntilTimeout+0x44>
          __HAL_SPI_DISABLE(hspi);
 800523a:	682a      	ldr	r2, [r5, #0]
 800523c:	6813      	ldr	r3, [r2, #0]
 800523e:	f023 0340 	bic.w	r3, r3, #64	; 0x40
 8005242:	6013      	str	r3, [r2, #0]
 8005244:	e7e6      	b.n	8005214 <SPI_WaitFlagStateUntilTimeout+0x44>
          SPI_RESET_CRC(hspi);
 8005246:	682a      	ldr	r2, [r5, #0]
 8005248:	6813      	ldr	r3, [r2, #0]
 800524a:	f423 5300 	bic.w	r3, r3, #8192	; 0x2000
 800524e:	6013      	str	r3, [r2, #0]
 8005250:	682a      	ldr	r2, [r5, #0]
 8005252:	6813      	ldr	r3, [r2, #0]
 8005254:	f443 5300 	orr.w	r3, r3, #8192	; 0x2000
 8005258:	6013      	str	r3, [r2, #0]
 800525a:	e7df      	b.n	800521c <SPI_WaitFlagStateUntilTimeout+0x4c>
      }
    }
  }

  return HAL_OK;
 800525c:	2000      	movs	r0, #0
}
 800525e:	bdf8      	pop	{r3, r4, r5, r6, r7, pc}

08005260 <SPI_EndRxTxTransaction>:
  * @param  Timeout Timeout duration
  * @param  Tickstart tick start value
  * @retval HAL status
  */
static HAL_StatusTypeDef SPI_EndRxTxTransaction(SPI_HandleTypeDef *hspi, uint32_t Timeout, uint32_t Tickstart)
{
 8005260:	b530      	push	{r4, r5, lr}
 8005262:	b085      	sub	sp, #20
  /* Timeout in s */
  __IO uint32_t count = SPI_BSY_FLAG_WORKAROUND_TIMEOUT * (SystemCoreClock / 24U / 1000000U);
 8005264:	4c16      	ldr	r4, [pc, #88]	; (80052c0 <SPI_EndRxTxTransaction+0x60>)
 8005266:	6824      	ldr	r4, [r4, #0]
 8005268:	4d16      	ldr	r5, [pc, #88]	; (80052c4 <SPI_EndRxTxTransaction+0x64>)
 800526a:	fba5 3404 	umull	r3, r4, r5, r4
 800526e:	0d64      	lsrs	r4, r4, #21
 8005270:	f44f 757a 	mov.w	r5, #1000	; 0x3e8
 8005274:	fb05 f404 	mul.w	r4, r5, r4
 8005278:	9403      	str	r4, [sp, #12]
  /* Erratasheet: BSY bit may stay high at the end of a data transfer in Slave mode */
  if (hspi->Init.Mode == SPI_MODE_MASTER)
 800527a:	6844      	ldr	r4, [r0, #4]
 800527c:	f5b4 7f82 	cmp.w	r4, #260	; 0x104
 8005280:	d00b      	beq.n	800529a <SPI_EndRxTxTransaction+0x3a>
    * User have to calculate the timeout value to fit with the time of 1 byte transfer.
    * This time is directly link with the SPI clock from Master device.
    */
    do
    {
      if (count == 0U)
 8005282:	9b03      	ldr	r3, [sp, #12]
 8005284:	b1c3      	cbz	r3, 80052b8 <SPI_EndRxTxTransaction+0x58>
      {
        break;
      }
      count--;
 8005286:	9b03      	ldr	r3, [sp, #12]
 8005288:	3b01      	subs	r3, #1
 800528a:	9303      	str	r3, [sp, #12]
    } while (__HAL_SPI_GET_FLAG(hspi, SPI_FLAG_BSY) != RESET);
 800528c:	6803      	ldr	r3, [r0, #0]
 800528e:	689b      	ldr	r3, [r3, #8]
 8005290:	f013 0f80 	tst.w	r3, #128	; 0x80
 8005294:	d1f5      	bne.n	8005282 <SPI_EndRxTxTransaction+0x22>
  }

  return HAL_OK;
 8005296:	2300      	movs	r3, #0
 8005298:	e00f      	b.n	80052ba <SPI_EndRxTxTransaction+0x5a>
 800529a:	460b      	mov	r3, r1
 800529c:	4604      	mov	r4, r0
    if (SPI_WaitFlagStateUntilTimeout(hspi, SPI_FLAG_BSY, RESET, Timeout, Tickstart) != HAL_OK)
 800529e:	9200      	str	r2, [sp, #0]
 80052a0:	2200      	movs	r2, #0
 80052a2:	2180      	movs	r1, #128	; 0x80
 80052a4:	f7ff ff94 	bl	80051d0 <SPI_WaitFlagStateUntilTimeout>
 80052a8:	4603      	mov	r3, r0
 80052aa:	b130      	cbz	r0, 80052ba <SPI_EndRxTxTransaction+0x5a>
      SET_BIT(hspi->ErrorCode, HAL_SPI_ERROR_FLAG);
 80052ac:	6d63      	ldr	r3, [r4, #84]	; 0x54
 80052ae:	f043 0320 	orr.w	r3, r3, #32
 80052b2:	6563      	str	r3, [r4, #84]	; 0x54
      return HAL_TIMEOUT;
 80052b4:	2303      	movs	r3, #3
 80052b6:	e000      	b.n	80052ba <SPI_EndRxTxTransaction+0x5a>
  return HAL_OK;
 80052b8:	2300      	movs	r3, #0
}
 80052ba:	4618      	mov	r0, r3
 80052bc:	b005      	add	sp, #20
 80052be:	bd30      	pop	{r4, r5, pc}
 80052c0:	20000090 	.word	0x20000090
 80052c4:	165e9f81 	.word	0x165e9f81

080052c8 <SPI_EndRxTransaction>:
{
 80052c8:	b510      	push	{r4, lr}
 80052ca:	b082      	sub	sp, #8
 80052cc:	4604      	mov	r4, r0
  if ((hspi->Init.Mode == SPI_MODE_MASTER) && ((hspi->Init.Direction == SPI_DIRECTION_1LINE)
 80052ce:	6840      	ldr	r0, [r0, #4]
 80052d0:	f5b0 7f82 	cmp.w	r0, #260	; 0x104
 80052d4:	d016      	beq.n	8005304 <SPI_EndRxTransaction+0x3c>
  if (hspi->Init.Mode == SPI_MODE_MASTER)
 80052d6:	6860      	ldr	r0, [r4, #4]
 80052d8:	f5b0 7f82 	cmp.w	r0, #260	; 0x104
 80052dc:	d12e      	bne.n	800533c <SPI_EndRxTransaction+0x74>
    if (hspi->Init.Direction != SPI_DIRECTION_2LINES_RXONLY)
 80052de:	68a3      	ldr	r3, [r4, #8]
 80052e0:	f5b3 6f80 	cmp.w	r3, #1024	; 0x400
 80052e4:	d01b      	beq.n	800531e <SPI_EndRxTransaction+0x56>
      if (SPI_WaitFlagStateUntilTimeout(hspi, SPI_FLAG_BSY, RESET, Timeout, Tickstart) != HAL_OK)
 80052e6:	9200      	str	r2, [sp, #0]
 80052e8:	460b      	mov	r3, r1
 80052ea:	2200      	movs	r2, #0
 80052ec:	2180      	movs	r1, #128	; 0x80
 80052ee:	4620      	mov	r0, r4
 80052f0:	f7ff ff6e 	bl	80051d0 <SPI_WaitFlagStateUntilTimeout>
 80052f4:	4603      	mov	r3, r0
 80052f6:	b350      	cbz	r0, 800534e <SPI_EndRxTransaction+0x86>
        SET_BIT(hspi->ErrorCode, HAL_SPI_ERROR_FLAG);
 80052f8:	6d63      	ldr	r3, [r4, #84]	; 0x54
 80052fa:	f043 0320 	orr.w	r3, r3, #32
 80052fe:	6563      	str	r3, [r4, #84]	; 0x54
        return HAL_TIMEOUT;
 8005300:	2303      	movs	r3, #3
 8005302:	e024      	b.n	800534e <SPI_EndRxTransaction+0x86>
  if ((hspi->Init.Mode == SPI_MODE_MASTER) && ((hspi->Init.Direction == SPI_DIRECTION_1LINE)
 8005304:	68a3      	ldr	r3, [r4, #8]
 8005306:	f5b3 4f00 	cmp.w	r3, #32768	; 0x8000
 800530a:	d002      	beq.n	8005312 <SPI_EndRxTransaction+0x4a>
                                               || (hspi->Init.Direction == SPI_DIRECTION_2LINES_RXONLY)))
 800530c:	f5b3 6f80 	cmp.w	r3, #1024	; 0x400
 8005310:	d1e1      	bne.n	80052d6 <SPI_EndRxTransaction+0xe>
    __HAL_SPI_DISABLE(hspi);
 8005312:	6820      	ldr	r0, [r4, #0]
 8005314:	6803      	ldr	r3, [r0, #0]
 8005316:	f023 0340 	bic.w	r3, r3, #64	; 0x40
 800531a:	6003      	str	r3, [r0, #0]
 800531c:	e7db      	b.n	80052d6 <SPI_EndRxTransaction+0xe>
      if (SPI_WaitFlagStateUntilTimeout(hspi, SPI_FLAG_RXNE, RESET, Timeout, Tickstart) != HAL_OK)
 800531e:	9200      	str	r2, [sp, #0]
 8005320:	460b      	mov	r3, r1
 8005322:	2200      	movs	r2, #0
 8005324:	2101      	movs	r1, #1
 8005326:	4620      	mov	r0, r4
 8005328:	f7ff ff52 	bl	80051d0 <SPI_WaitFlagStateUntilTimeout>
 800532c:	4603      	mov	r3, r0
 800532e:	b170      	cbz	r0, 800534e <SPI_EndRxTransaction+0x86>
        SET_BIT(hspi->ErrorCode, HAL_SPI_ERROR_FLAG);
 8005330:	6d63      	ldr	r3, [r4, #84]	; 0x54
 8005332:	f043 0320 	orr.w	r3, r3, #32
 8005336:	6563      	str	r3, [r4, #84]	; 0x54
        return HAL_TIMEOUT;
 8005338:	2303      	movs	r3, #3
 800533a:	e008      	b.n	800534e <SPI_EndRxTransaction+0x86>
    if (SPI_WaitFlagStateUntilTimeout(hspi, SPI_FLAG_RXNE, RESET, Timeout, Tickstart) != HAL_OK)
 800533c:	9200      	str	r2, [sp, #0]
 800533e:	460b      	mov	r3, r1
 8005340:	2200      	movs	r2, #0
 8005342:	2101      	movs	r1, #1
 8005344:	4620      	mov	r0, r4
 8005346:	f7ff ff43 	bl	80051d0 <SPI_WaitFlagStateUntilTimeout>
 800534a:	4603      	mov	r3, r0
 800534c:	b910      	cbnz	r0, 8005354 <SPI_EndRxTransaction+0x8c>
}
 800534e:	4618      	mov	r0, r3
 8005350:	b002      	add	sp, #8
 8005352:	bd10      	pop	{r4, pc}
      SET_BIT(hspi->ErrorCode, HAL_SPI_ERROR_FLAG);
 8005354:	6d63      	ldr	r3, [r4, #84]	; 0x54
 8005356:	f043 0320 	orr.w	r3, r3, #32
 800535a:	6563      	str	r3, [r4, #84]	; 0x54
      return HAL_TIMEOUT;
 800535c:	2303      	movs	r3, #3
 800535e:	e7f6      	b.n	800534e <SPI_EndRxTransaction+0x86>

08005360 <HAL_SPI_Init>:
  if (hspi == NULL)
 8005360:	2800      	cmp	r0, #0
 8005362:	d03b      	beq.n	80053dc <HAL_SPI_Init+0x7c>
{
 8005364:	b510      	push	{r4, lr}
 8005366:	4604      	mov	r4, r0
  hspi->Init.CRCCalculation = SPI_CRCCALCULATION_DISABLE;
 8005368:	2300      	movs	r3, #0
 800536a:	6283      	str	r3, [r0, #40]	; 0x28
  if (hspi->State == HAL_SPI_STATE_RESET)
 800536c:	f890 3051 	ldrb.w	r3, [r0, #81]	; 0x51
 8005370:	2b00      	cmp	r3, #0
 8005372:	d02e      	beq.n	80053d2 <HAL_SPI_Init+0x72>
  hspi->State = HAL_SPI_STATE_BUSY;
 8005374:	2302      	movs	r3, #2
 8005376:	f884 3051 	strb.w	r3, [r4, #81]	; 0x51
  __HAL_SPI_DISABLE(hspi);
 800537a:	6822      	ldr	r2, [r4, #0]
 800537c:	6813      	ldr	r3, [r2, #0]
 800537e:	f023 0340 	bic.w	r3, r3, #64	; 0x40
 8005382:	6013      	str	r3, [r2, #0]
  WRITE_REG(hspi->Instance->CR1, (hspi->Init.Mode | hspi->Init.Direction | hspi->Init.DataSize |
 8005384:	6863      	ldr	r3, [r4, #4]
 8005386:	68a2      	ldr	r2, [r4, #8]
 8005388:	4313      	orrs	r3, r2
 800538a:	68e2      	ldr	r2, [r4, #12]
 800538c:	4313      	orrs	r3, r2
 800538e:	6922      	ldr	r2, [r4, #16]
 8005390:	4313      	orrs	r3, r2
 8005392:	6962      	ldr	r2, [r4, #20]
 8005394:	4313      	orrs	r3, r2
 8005396:	69a2      	ldr	r2, [r4, #24]
 8005398:	f402 7200 	and.w	r2, r2, #512	; 0x200
 800539c:	4313      	orrs	r3, r2
 800539e:	69e2      	ldr	r2, [r4, #28]
 80053a0:	4313      	orrs	r3, r2
 80053a2:	6a22      	ldr	r2, [r4, #32]
 80053a4:	4313      	orrs	r3, r2
 80053a6:	6aa1      	ldr	r1, [r4, #40]	; 0x28
 80053a8:	6822      	ldr	r2, [r4, #0]
 80053aa:	430b      	orrs	r3, r1
 80053ac:	6013      	str	r3, [r2, #0]
  WRITE_REG(hspi->Instance->CR2, (((hspi->Init.NSS >> 16U) & SPI_CR2_SSOE) | hspi->Init.TIMode));
 80053ae:	8b63      	ldrh	r3, [r4, #26]
 80053b0:	f003 0304 	and.w	r3, r3, #4
 80053b4:	6a61      	ldr	r1, [r4, #36]	; 0x24
 80053b6:	6822      	ldr	r2, [r4, #0]
 80053b8:	430b      	orrs	r3, r1
 80053ba:	6053      	str	r3, [r2, #4]
  CLEAR_BIT(hspi->Instance->I2SCFGR, SPI_I2SCFGR_I2SMOD);
 80053bc:	6822      	ldr	r2, [r4, #0]
 80053be:	69d3      	ldr	r3, [r2, #28]
 80053c0:	f423 6300 	bic.w	r3, r3, #2048	; 0x800
 80053c4:	61d3      	str	r3, [r2, #28]
  hspi->ErrorCode = HAL_SPI_ERROR_NONE;
 80053c6:	2000      	movs	r0, #0
 80053c8:	6560      	str	r0, [r4, #84]	; 0x54
  hspi->State     = HAL_SPI_STATE_READY;
 80053ca:	2301      	movs	r3, #1
 80053cc:	f884 3051 	strb.w	r3, [r4, #81]	; 0x51
}
 80053d0:	bd10      	pop	{r4, pc}
    hspi->Lock = HAL_UNLOCKED;
 80053d2:	f880 3050 	strb.w	r3, [r0, #80]	; 0x50
    HAL_SPI_MspInit(hspi);
 80053d6:	f001 feb7 	bl	8007148 <HAL_SPI_MspInit>
 80053da:	e7cb      	b.n	8005374 <HAL_SPI_Init+0x14>
    return HAL_ERROR;
 80053dc:	2001      	movs	r0, #1
}
 80053de:	4770      	bx	lr

080053e0 <HAL_SPI_Transmit>:
{
 80053e0:	e92d 41f0 	stmdb	sp!, {r4, r5, r6, r7, r8, lr}
 80053e4:	b082      	sub	sp, #8
  __HAL_LOCK(hspi);
 80053e6:	f890 4050 	ldrb.w	r4, [r0, #80]	; 0x50
 80053ea:	2c01      	cmp	r4, #1
 80053ec:	f000 80c3 	beq.w	8005576 <HAL_SPI_Transmit+0x196>
 80053f0:	461d      	mov	r5, r3
 80053f2:	4617      	mov	r7, r2
 80053f4:	4688      	mov	r8, r1
 80053f6:	4604      	mov	r4, r0
 80053f8:	2301      	movs	r3, #1
 80053fa:	f880 3050 	strb.w	r3, [r0, #80]	; 0x50
  tickstart = HAL_GetTick();
 80053fe:	f7fe f94b 	bl	8003698 <HAL_GetTick>
 8005402:	4606      	mov	r6, r0
  if (hspi->State != HAL_SPI_STATE_READY)
 8005404:	f894 3051 	ldrb.w	r3, [r4, #81]	; 0x51
 8005408:	b2db      	uxtb	r3, r3
 800540a:	2b01      	cmp	r3, #1
 800540c:	d009      	beq.n	8005422 <HAL_SPI_Transmit+0x42>
    errorcode = HAL_BUSY;
 800540e:	2002      	movs	r0, #2
  hspi->State = HAL_SPI_STATE_READY;
 8005410:	2301      	movs	r3, #1
 8005412:	f884 3051 	strb.w	r3, [r4, #81]	; 0x51
  __HAL_UNLOCK(hspi);
 8005416:	2300      	movs	r3, #0
 8005418:	f884 3050 	strb.w	r3, [r4, #80]	; 0x50
}
 800541c:	b002      	add	sp, #8
 800541e:	e8bd 81f0 	ldmia.w	sp!, {r4, r5, r6, r7, r8, pc}
  if ((pData == NULL) || (Size == 0U))
 8005422:	f1b8 0f00 	cmp.w	r8, #0
 8005426:	f000 8098 	beq.w	800555a <HAL_SPI_Transmit+0x17a>
 800542a:	2f00      	cmp	r7, #0
 800542c:	f000 8097 	beq.w	800555e <HAL_SPI_Transmit+0x17e>
  hspi->State       = HAL_SPI_STATE_BUSY_TX;
 8005430:	2303      	movs	r3, #3
 8005432:	f884 3051 	strb.w	r3, [r4, #81]	; 0x51
  hspi->ErrorCode   = HAL_SPI_ERROR_NONE;
 8005436:	2300      	movs	r3, #0
 8005438:	6563      	str	r3, [r4, #84]	; 0x54
  hspi->pTxBuffPtr  = (uint8_t *)pData;
 800543a:	f8c4 8030 	str.w	r8, [r4, #48]	; 0x30
  hspi->TxXferSize  = Size;
 800543e:	86a7      	strh	r7, [r4, #52]	; 0x34
  hspi->TxXferCount = Size;
 8005440:	86e7      	strh	r7, [r4, #54]	; 0x36
  hspi->pRxBuffPtr  = (uint8_t *)NULL;
 8005442:	63a3      	str	r3, [r4, #56]	; 0x38
  hspi->RxXferSize  = 0U;
 8005444:	87a3      	strh	r3, [r4, #60]	; 0x3c
  hspi->RxXferCount = 0U;
 8005446:	87e3      	strh	r3, [r4, #62]	; 0x3e
  hspi->TxISR       = NULL;
 8005448:	6463      	str	r3, [r4, #68]	; 0x44
  hspi->RxISR       = NULL;
 800544a:	6423      	str	r3, [r4, #64]	; 0x40
  if (hspi->Init.Direction == SPI_DIRECTION_1LINE)
 800544c:	68a3      	ldr	r3, [r4, #8]
 800544e:	f5b3 4f00 	cmp.w	r3, #32768	; 0x8000
 8005452:	d01c      	beq.n	800548e <HAL_SPI_Transmit+0xae>
  if ((hspi->Instance->CR1 & SPI_CR1_SPE) != SPI_CR1_SPE)
 8005454:	6823      	ldr	r3, [r4, #0]
 8005456:	681a      	ldr	r2, [r3, #0]
 8005458:	f012 0f40 	tst.w	r2, #64	; 0x40
 800545c:	d103      	bne.n	8005466 <HAL_SPI_Transmit+0x86>
    __HAL_SPI_ENABLE(hspi);
 800545e:	681a      	ldr	r2, [r3, #0]
 8005460:	f042 0240 	orr.w	r2, r2, #64	; 0x40
 8005464:	601a      	str	r2, [r3, #0]
  if (hspi->Init.DataSize == SPI_DATASIZE_16BIT)
 8005466:	68e3      	ldr	r3, [r4, #12]
 8005468:	f5b3 6f00 	cmp.w	r3, #2048	; 0x800
 800546c:	d015      	beq.n	800549a <HAL_SPI_Transmit+0xba>
    if ((hspi->Init.Mode == SPI_MODE_SLAVE) || (initial_TxXferCount == 0x01U))
 800546e:	6863      	ldr	r3, [r4, #4]
 8005470:	b10b      	cbz	r3, 8005476 <HAL_SPI_Transmit+0x96>
 8005472:	2f01      	cmp	r7, #1
 8005474:	d149      	bne.n	800550a <HAL_SPI_Transmit+0x12a>
      *((__IO uint8_t *)&hspi->Instance->DR) = (*hspi->pTxBuffPtr);
 8005476:	6b22      	ldr	r2, [r4, #48]	; 0x30
 8005478:	6823      	ldr	r3, [r4, #0]
 800547a:	7812      	ldrb	r2, [r2, #0]
 800547c:	731a      	strb	r2, [r3, #12]
      hspi->pTxBuffPtr += sizeof(uint8_t);
 800547e:	6b23      	ldr	r3, [r4, #48]	; 0x30
 8005480:	3301      	adds	r3, #1
 8005482:	6323      	str	r3, [r4, #48]	; 0x30
      hspi->TxXferCount--;
 8005484:	8ee3      	ldrh	r3, [r4, #54]	; 0x36
 8005486:	3b01      	subs	r3, #1
 8005488:	b29b      	uxth	r3, r3
 800548a:	86e3      	strh	r3, [r4, #54]	; 0x36
 800548c:	e03d      	b.n	800550a <HAL_SPI_Transmit+0x12a>
    SPI_1LINE_TX(hspi);
 800548e:	6822      	ldr	r2, [r4, #0]
 8005490:	6813      	ldr	r3, [r2, #0]
 8005492:	f443 4380 	orr.w	r3, r3, #16384	; 0x4000
 8005496:	6013      	str	r3, [r2, #0]
 8005498:	e7dc      	b.n	8005454 <HAL_SPI_Transmit+0x74>
    if ((hspi->Init.Mode == SPI_MODE_SLAVE) || (initial_TxXferCount == 0x01U))
 800549a:	6863      	ldr	r3, [r4, #4]
 800549c:	b10b      	cbz	r3, 80054a2 <HAL_SPI_Transmit+0xc2>
 800549e:	2f01      	cmp	r7, #1
 80054a0:	d115      	bne.n	80054ce <HAL_SPI_Transmit+0xee>
      hspi->Instance->DR = *((uint16_t *)hspi->pTxBuffPtr);
 80054a2:	6b22      	ldr	r2, [r4, #48]	; 0x30
 80054a4:	6823      	ldr	r3, [r4, #0]
 80054a6:	8812      	ldrh	r2, [r2, #0]
 80054a8:	60da      	str	r2, [r3, #12]
      hspi->pTxBuffPtr += sizeof(uint16_t);
 80054aa:	6b23      	ldr	r3, [r4, #48]	; 0x30
 80054ac:	3302      	adds	r3, #2
 80054ae:	6323      	str	r3, [r4, #48]	; 0x30
      hspi->TxXferCount--;
 80054b0:	8ee3      	ldrh	r3, [r4, #54]	; 0x36
 80054b2:	3b01      	subs	r3, #1
 80054b4:	b29b      	uxth	r3, r3
 80054b6:	86e3      	strh	r3, [r4, #54]	; 0x36
 80054b8:	e009      	b.n	80054ce <HAL_SPI_Transmit+0xee>
        if ((((HAL_GetTick() - tickstart) >=  Timeout) && (Timeout != HAL_MAX_DELAY)) || (Timeout == 0U))
 80054ba:	f7fe f8ed 	bl	8003698 <HAL_GetTick>
 80054be:	1b80      	subs	r0, r0, r6
 80054c0:	42a8      	cmp	r0, r5
 80054c2:	d302      	bcc.n	80054ca <HAL_SPI_Transmit+0xea>
 80054c4:	f1b5 3fff 	cmp.w	r5, #4294967295	; 0xffffffff
 80054c8:	d14b      	bne.n	8005562 <HAL_SPI_Transmit+0x182>
 80054ca:	2d00      	cmp	r5, #0
 80054cc:	d04b      	beq.n	8005566 <HAL_SPI_Transmit+0x186>
    while (hspi->TxXferCount > 0U)
 80054ce:	8ee3      	ldrh	r3, [r4, #54]	; 0x36
 80054d0:	b29b      	uxth	r3, r3
 80054d2:	2b00      	cmp	r3, #0
 80054d4:	d02c      	beq.n	8005530 <HAL_SPI_Transmit+0x150>
      if (__HAL_SPI_GET_FLAG(hspi, SPI_FLAG_TXE))
 80054d6:	6823      	ldr	r3, [r4, #0]
 80054d8:	689a      	ldr	r2, [r3, #8]
 80054da:	f012 0f02 	tst.w	r2, #2
 80054de:	d0ec      	beq.n	80054ba <HAL_SPI_Transmit+0xda>
        hspi->Instance->DR = *((uint16_t *)hspi->pTxBuffPtr);
 80054e0:	6b22      	ldr	r2, [r4, #48]	; 0x30
 80054e2:	8812      	ldrh	r2, [r2, #0]
 80054e4:	60da      	str	r2, [r3, #12]
        hspi->pTxBuffPtr += sizeof(uint16_t);
 80054e6:	6b23      	ldr	r3, [r4, #48]	; 0x30
 80054e8:	3302      	adds	r3, #2
 80054ea:	6323      	str	r3, [r4, #48]	; 0x30
        hspi->TxXferCount--;
 80054ec:	8ee3      	ldrh	r3, [r4, #54]	; 0x36
 80054ee:	3b01      	subs	r3, #1
 80054f0:	b29b      	uxth	r3, r3
 80054f2:	86e3      	strh	r3, [r4, #54]	; 0x36
 80054f4:	e7eb      	b.n	80054ce <HAL_SPI_Transmit+0xee>
        if ((((HAL_GetTick() - tickstart) >=  Timeout) && (Timeout != HAL_MAX_DELAY)) || (Timeout == 0U))
 80054f6:	f7fe f8cf 	bl	8003698 <HAL_GetTick>
 80054fa:	1b80      	subs	r0, r0, r6
 80054fc:	42a8      	cmp	r0, r5
 80054fe:	d302      	bcc.n	8005506 <HAL_SPI_Transmit+0x126>
 8005500:	f1b5 3fff 	cmp.w	r5, #4294967295	; 0xffffffff
 8005504:	d131      	bne.n	800556a <HAL_SPI_Transmit+0x18a>
 8005506:	2d00      	cmp	r5, #0
 8005508:	d031      	beq.n	800556e <HAL_SPI_Transmit+0x18e>
    while (hspi->TxXferCount > 0U)
 800550a:	8ee3      	ldrh	r3, [r4, #54]	; 0x36
 800550c:	b29b      	uxth	r3, r3
 800550e:	b17b      	cbz	r3, 8005530 <HAL_SPI_Transmit+0x150>
      if (__HAL_SPI_GET_FLAG(hspi, SPI_FLAG_TXE))
 8005510:	6823      	ldr	r3, [r4, #0]
 8005512:	689a      	ldr	r2, [r3, #8]
 8005514:	f012 0f02 	tst.w	r2, #2
 8005518:	d0ed      	beq.n	80054f6 <HAL_SPI_Transmit+0x116>
        *((__IO uint8_t *)&hspi->Instance->DR) = (*hspi->pTxBuffPtr);
 800551a:	6b22      	ldr	r2, [r4, #48]	; 0x30
 800551c:	7812      	ldrb	r2, [r2, #0]
 800551e:	731a      	strb	r2, [r3, #12]
        hspi->pTxBuffPtr += sizeof(uint8_t);
 8005520:	6b23      	ldr	r3, [r4, #48]	; 0x30
 8005522:	3301      	adds	r3, #1
 8005524:	6323      	str	r3, [r4, #48]	; 0x30
        hspi->TxXferCount--;
 8005526:	8ee3      	ldrh	r3, [r4, #54]	; 0x36
 8005528:	3b01      	subs	r3, #1
 800552a:	b29b      	uxth	r3, r3
 800552c:	86e3      	strh	r3, [r4, #54]	; 0x36
 800552e:	e7ec      	b.n	800550a <HAL_SPI_Transmit+0x12a>
  if (SPI_EndRxTxTransaction(hspi, Timeout, tickstart) != HAL_OK)
 8005530:	4632      	mov	r2, r6
 8005532:	4629      	mov	r1, r5
 8005534:	4620      	mov	r0, r4
 8005536:	f7ff fe93 	bl	8005260 <SPI_EndRxTxTransaction>
 800553a:	b108      	cbz	r0, 8005540 <HAL_SPI_Transmit+0x160>
    hspi->ErrorCode = HAL_SPI_ERROR_FLAG;
 800553c:	2320      	movs	r3, #32
 800553e:	6563      	str	r3, [r4, #84]	; 0x54
  if (hspi->Init.Direction == SPI_DIRECTION_2LINES)
 8005540:	68a3      	ldr	r3, [r4, #8]
 8005542:	b933      	cbnz	r3, 8005552 <HAL_SPI_Transmit+0x172>
    __HAL_SPI_CLEAR_OVRFLAG(hspi);
 8005544:	9301      	str	r3, [sp, #4]
 8005546:	6823      	ldr	r3, [r4, #0]
 8005548:	68da      	ldr	r2, [r3, #12]
 800554a:	9201      	str	r2, [sp, #4]
 800554c:	689b      	ldr	r3, [r3, #8]
 800554e:	9301      	str	r3, [sp, #4]
 8005550:	9b01      	ldr	r3, [sp, #4]
  if (hspi->ErrorCode != HAL_SPI_ERROR_NONE)
 8005552:	6d63      	ldr	r3, [r4, #84]	; 0x54
 8005554:	b96b      	cbnz	r3, 8005572 <HAL_SPI_Transmit+0x192>
  HAL_StatusTypeDef errorcode = HAL_OK;
 8005556:	2000      	movs	r0, #0
 8005558:	e75a      	b.n	8005410 <HAL_SPI_Transmit+0x30>
    errorcode = HAL_ERROR;
 800555a:	2001      	movs	r0, #1
 800555c:	e758      	b.n	8005410 <HAL_SPI_Transmit+0x30>
 800555e:	2001      	movs	r0, #1
 8005560:	e756      	b.n	8005410 <HAL_SPI_Transmit+0x30>
          errorcode = HAL_TIMEOUT;
 8005562:	2003      	movs	r0, #3
 8005564:	e754      	b.n	8005410 <HAL_SPI_Transmit+0x30>
 8005566:	2003      	movs	r0, #3
 8005568:	e752      	b.n	8005410 <HAL_SPI_Transmit+0x30>
          errorcode = HAL_TIMEOUT;
 800556a:	2003      	movs	r0, #3
 800556c:	e750      	b.n	8005410 <HAL_SPI_Transmit+0x30>
 800556e:	2003      	movs	r0, #3
 8005570:	e74e      	b.n	8005410 <HAL_SPI_Transmit+0x30>
    errorcode = HAL_ERROR;
 8005572:	2001      	movs	r0, #1
 8005574:	e74c      	b.n	8005410 <HAL_SPI_Transmit+0x30>
  __HAL_LOCK(hspi);
 8005576:	2002      	movs	r0, #2
 8005578:	e750      	b.n	800541c <HAL_SPI_Transmit+0x3c>

0800557a <HAL_SPI_TransmitReceive>:
{
 800557a:	e92d 43f0 	stmdb	sp!, {r4, r5, r6, r7, r8, r9, lr}
 800557e:	b083      	sub	sp, #12
 8005580:	f8dd 8028 	ldr.w	r8, [sp, #40]	; 0x28
  __HAL_LOCK(hspi);
 8005584:	f890 4050 	ldrb.w	r4, [r0, #80]	; 0x50
 8005588:	2c01      	cmp	r4, #1
 800558a:	f000 810b 	beq.w	80057a4 <HAL_SPI_TransmitReceive+0x22a>
 800558e:	461d      	mov	r5, r3
 8005590:	4617      	mov	r7, r2
 8005592:	460e      	mov	r6, r1
 8005594:	4604      	mov	r4, r0
 8005596:	2301      	movs	r3, #1
 8005598:	f880 3050 	strb.w	r3, [r0, #80]	; 0x50
  tickstart = HAL_GetTick();
 800559c:	f7fe f87c 	bl	8003698 <HAL_GetTick>
 80055a0:	4681      	mov	r9, r0
  tmp_state           = hspi->State;
 80055a2:	f894 0051 	ldrb.w	r0, [r4, #81]	; 0x51
 80055a6:	b2c0      	uxtb	r0, r0
  tmp_mode            = hspi->Init.Mode;
 80055a8:	6863      	ldr	r3, [r4, #4]
  if (!((tmp_state == HAL_SPI_STATE_READY) || \
 80055aa:	2801      	cmp	r0, #1
 80055ac:	d015      	beq.n	80055da <HAL_SPI_TransmitReceive+0x60>
 80055ae:	f5b3 7f82 	cmp.w	r3, #260	; 0x104
 80055b2:	d00a      	beq.n	80055ca <HAL_SPI_TransmitReceive+0x50>
    errorcode = HAL_BUSY;
 80055b4:	2302      	movs	r3, #2
  hspi->State = HAL_SPI_STATE_READY;
 80055b6:	2201      	movs	r2, #1
 80055b8:	f884 2051 	strb.w	r2, [r4, #81]	; 0x51
  __HAL_UNLOCK(hspi);
 80055bc:	2200      	movs	r2, #0
 80055be:	f884 2050 	strb.w	r2, [r4, #80]	; 0x50
}
 80055c2:	4618      	mov	r0, r3
 80055c4:	b003      	add	sp, #12
 80055c6:	e8bd 83f0 	ldmia.w	sp!, {r4, r5, r6, r7, r8, r9, pc}
        ((tmp_mode == SPI_MODE_MASTER) && (hspi->Init.Direction == SPI_DIRECTION_2LINES) && (tmp_state == HAL_SPI_STATE_BUSY_RX))))
 80055ca:	68a3      	ldr	r3, [r4, #8]
 80055cc:	2b00      	cmp	r3, #0
 80055ce:	f040 80db 	bne.w	8005788 <HAL_SPI_TransmitReceive+0x20e>
 80055d2:	2804      	cmp	r0, #4
 80055d4:	d001      	beq.n	80055da <HAL_SPI_TransmitReceive+0x60>
    errorcode = HAL_BUSY;
 80055d6:	2302      	movs	r3, #2
 80055d8:	e7ed      	b.n	80055b6 <HAL_SPI_TransmitReceive+0x3c>
  if ((pTxData == NULL) || (pRxData == NULL) || (Size == 0U))
 80055da:	2e00      	cmp	r6, #0
 80055dc:	f000 80d6 	beq.w	800578c <HAL_SPI_TransmitReceive+0x212>
 80055e0:	2f00      	cmp	r7, #0
 80055e2:	f000 80d5 	beq.w	8005790 <HAL_SPI_TransmitReceive+0x216>
 80055e6:	2d00      	cmp	r5, #0
 80055e8:	f000 80d4 	beq.w	8005794 <HAL_SPI_TransmitReceive+0x21a>
  if (hspi->State != HAL_SPI_STATE_BUSY_RX)
 80055ec:	f894 3051 	ldrb.w	r3, [r4, #81]	; 0x51
 80055f0:	b2db      	uxtb	r3, r3
 80055f2:	2b04      	cmp	r3, #4
 80055f4:	d002      	beq.n	80055fc <HAL_SPI_TransmitReceive+0x82>
    hspi->State = HAL_SPI_STATE_BUSY_TX_RX;
 80055f6:	2305      	movs	r3, #5
 80055f8:	f884 3051 	strb.w	r3, [r4, #81]	; 0x51
  hspi->ErrorCode   = HAL_SPI_ERROR_NONE;
 80055fc:	2300      	movs	r3, #0
 80055fe:	6563      	str	r3, [r4, #84]	; 0x54
  hspi->pRxBuffPtr  = (uint8_t *)pRxData;
 8005600:	63a7      	str	r7, [r4, #56]	; 0x38
  hspi->RxXferCount = Size;
 8005602:	87e5      	strh	r5, [r4, #62]	; 0x3e
  hspi->RxXferSize  = Size;
 8005604:	87a5      	strh	r5, [r4, #60]	; 0x3c
  hspi->pTxBuffPtr  = (uint8_t *)pTxData;
 8005606:	6326      	str	r6, [r4, #48]	; 0x30
  hspi->TxXferCount = Size;
 8005608:	86e5      	strh	r5, [r4, #54]	; 0x36
  hspi->TxXferSize  = Size;
 800560a:	86a5      	strh	r5, [r4, #52]	; 0x34
  hspi->RxISR       = NULL;
 800560c:	6423      	str	r3, [r4, #64]	; 0x40
  hspi->TxISR       = NULL;
 800560e:	6463      	str	r3, [r4, #68]	; 0x44
  if ((hspi->Instance->CR1 & SPI_CR1_SPE) != SPI_CR1_SPE)
 8005610:	6823      	ldr	r3, [r4, #0]
 8005612:	681a      	ldr	r2, [r3, #0]
 8005614:	f012 0f40 	tst.w	r2, #64	; 0x40
 8005618:	d103      	bne.n	8005622 <HAL_SPI_TransmitReceive+0xa8>
    __HAL_SPI_ENABLE(hspi);
 800561a:	681a      	ldr	r2, [r3, #0]
 800561c:	f042 0240 	orr.w	r2, r2, #64	; 0x40
 8005620:	601a      	str	r2, [r3, #0]
  if (hspi->Init.DataSize == SPI_DATASIZE_16BIT)
 8005622:	68e3      	ldr	r3, [r4, #12]
 8005624:	f5b3 6f00 	cmp.w	r3, #2048	; 0x800
 8005628:	d010      	beq.n	800564c <HAL_SPI_TransmitReceive+0xd2>
    if ((hspi->Init.Mode == SPI_MODE_SLAVE) || (initial_TxXferCount == 0x01U))
 800562a:	6863      	ldr	r3, [r4, #4]
 800562c:	b10b      	cbz	r3, 8005632 <HAL_SPI_TransmitReceive+0xb8>
 800562e:	2d01      	cmp	r5, #1
 8005630:	d10a      	bne.n	8005648 <HAL_SPI_TransmitReceive+0xce>
      *((__IO uint8_t *)&hspi->Instance->DR) = (*hspi->pTxBuffPtr);
 8005632:	6b22      	ldr	r2, [r4, #48]	; 0x30
 8005634:	6823      	ldr	r3, [r4, #0]
 8005636:	7812      	ldrb	r2, [r2, #0]
 8005638:	731a      	strb	r2, [r3, #12]
      hspi->pTxBuffPtr += sizeof(uint8_t);
 800563a:	6b23      	ldr	r3, [r4, #48]	; 0x30
 800563c:	3301      	adds	r3, #1
 800563e:	6323      	str	r3, [r4, #48]	; 0x30
      hspi->TxXferCount--;
 8005640:	8ee3      	ldrh	r3, [r4, #54]	; 0x36
 8005642:	3b01      	subs	r3, #1
 8005644:	b29b      	uxth	r3, r3
 8005646:	86e3      	strh	r3, [r4, #54]	; 0x36
        txallowed = 1U;
 8005648:	2501      	movs	r5, #1
 800564a:	e069      	b.n	8005720 <HAL_SPI_TransmitReceive+0x1a6>
    if ((hspi->Init.Mode == SPI_MODE_SLAVE) || (initial_TxXferCount == 0x01U))
 800564c:	6863      	ldr	r3, [r4, #4]
 800564e:	b10b      	cbz	r3, 8005654 <HAL_SPI_TransmitReceive+0xda>
 8005650:	2d01      	cmp	r5, #1
 8005652:	d10a      	bne.n	800566a <HAL_SPI_TransmitReceive+0xf0>
      hspi->Instance->DR = *((uint16_t *)hspi->pTxBuffPtr);
 8005654:	6b22      	ldr	r2, [r4, #48]	; 0x30
 8005656:	6823      	ldr	r3, [r4, #0]
 8005658:	8812      	ldrh	r2, [r2, #0]
 800565a:	60da      	str	r2, [r3, #12]
      hspi->pTxBuffPtr += sizeof(uint16_t);
 800565c:	6b23      	ldr	r3, [r4, #48]	; 0x30
 800565e:	3302      	adds	r3, #2
 8005660:	6323      	str	r3, [r4, #48]	; 0x30
      hspi->TxXferCount--;
 8005662:	8ee3      	ldrh	r3, [r4, #54]	; 0x36
 8005664:	3b01      	subs	r3, #1
 8005666:	b29b      	uxth	r3, r3
 8005668:	86e3      	strh	r3, [r4, #54]	; 0x36
        txallowed = 1U;
 800566a:	2501      	movs	r5, #1
 800566c:	e01b      	b.n	80056a6 <HAL_SPI_TransmitReceive+0x12c>
      if ((__HAL_SPI_GET_FLAG(hspi, SPI_FLAG_RXNE)) && (hspi->RxXferCount > 0U))
 800566e:	6823      	ldr	r3, [r4, #0]
 8005670:	689a      	ldr	r2, [r3, #8]
 8005672:	f012 0f01 	tst.w	r2, #1
 8005676:	d00d      	beq.n	8005694 <HAL_SPI_TransmitReceive+0x11a>
 8005678:	8fe2      	ldrh	r2, [r4, #62]	; 0x3e
 800567a:	b292      	uxth	r2, r2
 800567c:	b152      	cbz	r2, 8005694 <HAL_SPI_TransmitReceive+0x11a>
        *((uint16_t *)hspi->pRxBuffPtr) = (uint16_t)hspi->Instance->DR;
 800567e:	68da      	ldr	r2, [r3, #12]
 8005680:	6ba3      	ldr	r3, [r4, #56]	; 0x38
 8005682:	801a      	strh	r2, [r3, #0]
        hspi->pRxBuffPtr += sizeof(uint16_t);
 8005684:	6ba3      	ldr	r3, [r4, #56]	; 0x38
 8005686:	3302      	adds	r3, #2
 8005688:	63a3      	str	r3, [r4, #56]	; 0x38
        hspi->RxXferCount--;
 800568a:	8fe3      	ldrh	r3, [r4, #62]	; 0x3e
 800568c:	3b01      	subs	r3, #1
 800568e:	b29b      	uxth	r3, r3
 8005690:	87e3      	strh	r3, [r4, #62]	; 0x3e
        txallowed = 1U;
 8005692:	2501      	movs	r5, #1
      if (((HAL_GetTick() - tickstart) >=  Timeout) && (Timeout != HAL_MAX_DELAY))
 8005694:	f7fe f800 	bl	8003698 <HAL_GetTick>
 8005698:	eba0 0009 	sub.w	r0, r0, r9
 800569c:	4540      	cmp	r0, r8
 800569e:	d302      	bcc.n	80056a6 <HAL_SPI_TransmitReceive+0x12c>
 80056a0:	f1b8 3fff 	cmp.w	r8, #4294967295	; 0xffffffff
 80056a4:	d178      	bne.n	8005798 <HAL_SPI_TransmitReceive+0x21e>
    while ((hspi->TxXferCount > 0U) || (hspi->RxXferCount > 0U))
 80056a6:	8ee3      	ldrh	r3, [r4, #54]	; 0x36
 80056a8:	b29b      	uxth	r3, r3
 80056aa:	b91b      	cbnz	r3, 80056b4 <HAL_SPI_TransmitReceive+0x13a>
 80056ac:	8fe3      	ldrh	r3, [r4, #62]	; 0x3e
 80056ae:	b29b      	uxth	r3, r3
 80056b0:	2b00      	cmp	r3, #0
 80056b2:	d052      	beq.n	800575a <HAL_SPI_TransmitReceive+0x1e0>
      if ((__HAL_SPI_GET_FLAG(hspi, SPI_FLAG_TXE)) && (hspi->TxXferCount > 0U) && (txallowed == 1U))
 80056b4:	6823      	ldr	r3, [r4, #0]
 80056b6:	689a      	ldr	r2, [r3, #8]
 80056b8:	f012 0f02 	tst.w	r2, #2
 80056bc:	d0d7      	beq.n	800566e <HAL_SPI_TransmitReceive+0xf4>
 80056be:	8ee2      	ldrh	r2, [r4, #54]	; 0x36
 80056c0:	b292      	uxth	r2, r2
 80056c2:	2a00      	cmp	r2, #0
 80056c4:	d0d3      	beq.n	800566e <HAL_SPI_TransmitReceive+0xf4>
 80056c6:	2d00      	cmp	r5, #0
 80056c8:	d0d1      	beq.n	800566e <HAL_SPI_TransmitReceive+0xf4>
        hspi->Instance->DR = *((uint16_t *)hspi->pTxBuffPtr);
 80056ca:	6b22      	ldr	r2, [r4, #48]	; 0x30
 80056cc:	8812      	ldrh	r2, [r2, #0]
 80056ce:	60da      	str	r2, [r3, #12]
        hspi->pTxBuffPtr += sizeof(uint16_t);
 80056d0:	6b23      	ldr	r3, [r4, #48]	; 0x30
 80056d2:	3302      	adds	r3, #2
 80056d4:	6323      	str	r3, [r4, #48]	; 0x30
        hspi->TxXferCount--;
 80056d6:	8ee3      	ldrh	r3, [r4, #54]	; 0x36
 80056d8:	3b01      	subs	r3, #1
 80056da:	b29b      	uxth	r3, r3
 80056dc:	86e3      	strh	r3, [r4, #54]	; 0x36
        txallowed = 0U;
 80056de:	2500      	movs	r5, #0
 80056e0:	e7c5      	b.n	800566e <HAL_SPI_TransmitReceive+0xf4>
      if ((__HAL_SPI_GET_FLAG(hspi, SPI_FLAG_RXNE)) && (hspi->RxXferCount > 0U))
 80056e2:	6823      	ldr	r3, [r4, #0]
 80056e4:	689a      	ldr	r2, [r3, #8]
 80056e6:	f012 0f01 	tst.w	r2, #1
 80056ea:	d00d      	beq.n	8005708 <HAL_SPI_TransmitReceive+0x18e>
 80056ec:	8fe2      	ldrh	r2, [r4, #62]	; 0x3e
 80056ee:	b292      	uxth	r2, r2
 80056f0:	b152      	cbz	r2, 8005708 <HAL_SPI_TransmitReceive+0x18e>
        (*(uint8_t *)hspi->pRxBuffPtr) = hspi->Instance->DR;
 80056f2:	68da      	ldr	r2, [r3, #12]
 80056f4:	6ba3      	ldr	r3, [r4, #56]	; 0x38
 80056f6:	701a      	strb	r2, [r3, #0]
        hspi->pRxBuffPtr++;
 80056f8:	6ba3      	ldr	r3, [r4, #56]	; 0x38
 80056fa:	3301      	adds	r3, #1
 80056fc:	63a3      	str	r3, [r4, #56]	; 0x38
        hspi->RxXferCount--;
 80056fe:	8fe3      	ldrh	r3, [r4, #62]	; 0x3e
 8005700:	3b01      	subs	r3, #1
 8005702:	b29b      	uxth	r3, r3
 8005704:	87e3      	strh	r3, [r4, #62]	; 0x3e
        txallowed = 1U;
 8005706:	2501      	movs	r5, #1
      if ((((HAL_GetTick() - tickstart) >=  Timeout) && ((Timeout != HAL_MAX_DELAY))) || (Timeout == 0U))
 8005708:	f7fd ffc6 	bl	8003698 <HAL_GetTick>
 800570c:	eba0 0009 	sub.w	r0, r0, r9
 8005710:	4540      	cmp	r0, r8
 8005712:	d302      	bcc.n	800571a <HAL_SPI_TransmitReceive+0x1a0>
 8005714:	f1b8 3fff 	cmp.w	r8, #4294967295	; 0xffffffff
 8005718:	d140      	bne.n	800579c <HAL_SPI_TransmitReceive+0x222>
 800571a:	f1b8 0f00 	cmp.w	r8, #0
 800571e:	d03f      	beq.n	80057a0 <HAL_SPI_TransmitReceive+0x226>
    while ((hspi->TxXferCount > 0U) || (hspi->RxXferCount > 0U))
 8005720:	8ee3      	ldrh	r3, [r4, #54]	; 0x36
 8005722:	b29b      	uxth	r3, r3
 8005724:	b913      	cbnz	r3, 800572c <HAL_SPI_TransmitReceive+0x1b2>
 8005726:	8fe3      	ldrh	r3, [r4, #62]	; 0x3e
 8005728:	b29b      	uxth	r3, r3
 800572a:	b1b3      	cbz	r3, 800575a <HAL_SPI_TransmitReceive+0x1e0>
      if ((__HAL_SPI_GET_FLAG(hspi, SPI_FLAG_TXE)) && (hspi->TxXferCount > 0U) && (txallowed == 1U))
 800572c:	6823      	ldr	r3, [r4, #0]
 800572e:	689a      	ldr	r2, [r3, #8]
 8005730:	f012 0f02 	tst.w	r2, #2
 8005734:	d0d5      	beq.n	80056e2 <HAL_SPI_TransmitReceive+0x168>
 8005736:	8ee2      	ldrh	r2, [r4, #54]	; 0x36
 8005738:	b292      	uxth	r2, r2
 800573a:	2a00      	cmp	r2, #0
 800573c:	d0d1      	beq.n	80056e2 <HAL_SPI_TransmitReceive+0x168>
 800573e:	2d00      	cmp	r5, #0
 8005740:	d0cf      	beq.n	80056e2 <HAL_SPI_TransmitReceive+0x168>
        *(__IO uint8_t *)&hspi->Instance->DR = (*hspi->pTxBuffPtr);
 8005742:	6b22      	ldr	r2, [r4, #48]	; 0x30
 8005744:	7812      	ldrb	r2, [r2, #0]
 8005746:	731a      	strb	r2, [r3, #12]
        hspi->pTxBuffPtr++;
 8005748:	6b23      	ldr	r3, [r4, #48]	; 0x30
 800574a:	3301      	adds	r3, #1
 800574c:	6323      	str	r3, [r4, #48]	; 0x30
        hspi->TxXferCount--;
 800574e:	8ee3      	ldrh	r3, [r4, #54]	; 0x36
 8005750:	3b01      	subs	r3, #1
 8005752:	b29b      	uxth	r3, r3
 8005754:	86e3      	strh	r3, [r4, #54]	; 0x36
        txallowed = 0U;
 8005756:	2500      	movs	r5, #0
 8005758:	e7c3      	b.n	80056e2 <HAL_SPI_TransmitReceive+0x168>
  if (SPI_EndRxTxTransaction(hspi, Timeout, tickstart) != HAL_OK)
 800575a:	464a      	mov	r2, r9
 800575c:	4641      	mov	r1, r8
 800575e:	4620      	mov	r0, r4
 8005760:	f7ff fd7e 	bl	8005260 <SPI_EndRxTxTransaction>
 8005764:	4603      	mov	r3, r0
 8005766:	b118      	cbz	r0, 8005770 <HAL_SPI_TransmitReceive+0x1f6>
    hspi->ErrorCode = HAL_SPI_ERROR_FLAG;
 8005768:	2320      	movs	r3, #32
 800576a:	6563      	str	r3, [r4, #84]	; 0x54
    errorcode = HAL_ERROR;
 800576c:	2301      	movs	r3, #1
    goto error;
 800576e:	e722      	b.n	80055b6 <HAL_SPI_TransmitReceive+0x3c>
  if (hspi->Init.Direction == SPI_DIRECTION_2LINES)
 8005770:	68a2      	ldr	r2, [r4, #8]
 8005772:	2a00      	cmp	r2, #0
 8005774:	f47f af1f 	bne.w	80055b6 <HAL_SPI_TransmitReceive+0x3c>
    __HAL_SPI_CLEAR_OVRFLAG(hspi);
 8005778:	9201      	str	r2, [sp, #4]
 800577a:	6822      	ldr	r2, [r4, #0]
 800577c:	68d1      	ldr	r1, [r2, #12]
 800577e:	9101      	str	r1, [sp, #4]
 8005780:	6892      	ldr	r2, [r2, #8]
 8005782:	9201      	str	r2, [sp, #4]
 8005784:	9a01      	ldr	r2, [sp, #4]
 8005786:	e716      	b.n	80055b6 <HAL_SPI_TransmitReceive+0x3c>
    errorcode = HAL_BUSY;
 8005788:	2302      	movs	r3, #2
 800578a:	e714      	b.n	80055b6 <HAL_SPI_TransmitReceive+0x3c>
    errorcode = HAL_ERROR;
 800578c:	2301      	movs	r3, #1
 800578e:	e712      	b.n	80055b6 <HAL_SPI_TransmitReceive+0x3c>
 8005790:	2301      	movs	r3, #1
 8005792:	e710      	b.n	80055b6 <HAL_SPI_TransmitReceive+0x3c>
 8005794:	2301      	movs	r3, #1
 8005796:	e70e      	b.n	80055b6 <HAL_SPI_TransmitReceive+0x3c>
        errorcode = HAL_TIMEOUT;
 8005798:	2303      	movs	r3, #3
 800579a:	e70c      	b.n	80055b6 <HAL_SPI_TransmitReceive+0x3c>
        errorcode = HAL_TIMEOUT;
 800579c:	2303      	movs	r3, #3
 800579e:	e70a      	b.n	80055b6 <HAL_SPI_TransmitReceive+0x3c>
 80057a0:	2303      	movs	r3, #3
 80057a2:	e708      	b.n	80055b6 <HAL_SPI_TransmitReceive+0x3c>
  __HAL_LOCK(hspi);
 80057a4:	2302      	movs	r3, #2
 80057a6:	e70c      	b.n	80055c2 <HAL_SPI_TransmitReceive+0x48>

080057a8 <HAL_SPI_Receive>:
{
 80057a8:	e92d 41f0 	stmdb	sp!, {r4, r5, r6, r7, r8, lr}
 80057ac:	b082      	sub	sp, #8
 80057ae:	4604      	mov	r4, r0
 80057b0:	460f      	mov	r7, r1
 80057b2:	4690      	mov	r8, r2
 80057b4:	461d      	mov	r5, r3
  if ((hspi->Init.Mode == SPI_MODE_MASTER) && (hspi->Init.Direction == SPI_DIRECTION_2LINES))
 80057b6:	6843      	ldr	r3, [r0, #4]
 80057b8:	f5b3 7f82 	cmp.w	r3, #260	; 0x104
 80057bc:	d019      	beq.n	80057f2 <HAL_SPI_Receive+0x4a>
  __HAL_LOCK(hspi);
 80057be:	f894 3050 	ldrb.w	r3, [r4, #80]	; 0x50
 80057c2:	2b01      	cmp	r3, #1
 80057c4:	f000 809f 	beq.w	8005906 <HAL_SPI_Receive+0x15e>
 80057c8:	2301      	movs	r3, #1
 80057ca:	f884 3050 	strb.w	r3, [r4, #80]	; 0x50
  tickstart = HAL_GetTick();
 80057ce:	f7fd ff63 	bl	8003698 <HAL_GetTick>
 80057d2:	4606      	mov	r6, r0
  if (hspi->State != HAL_SPI_STATE_READY)
 80057d4:	f894 3051 	ldrb.w	r3, [r4, #81]	; 0x51
 80057d8:	b2db      	uxtb	r3, r3
 80057da:	2b01      	cmp	r3, #1
 80057dc:	d015      	beq.n	800580a <HAL_SPI_Receive+0x62>
    errorcode = HAL_BUSY;
 80057de:	2002      	movs	r0, #2
  hspi->State = HAL_SPI_STATE_READY;
 80057e0:	2301      	movs	r3, #1
 80057e2:	f884 3051 	strb.w	r3, [r4, #81]	; 0x51
  __HAL_UNLOCK(hspi);
 80057e6:	2300      	movs	r3, #0
 80057e8:	f884 3050 	strb.w	r3, [r4, #80]	; 0x50
}
 80057ec:	b002      	add	sp, #8
 80057ee:	e8bd 81f0 	ldmia.w	sp!, {r4, r5, r6, r7, r8, pc}
  if ((hspi->Init.Mode == SPI_MODE_MASTER) && (hspi->Init.Direction == SPI_DIRECTION_2LINES))
 80057f2:	6883      	ldr	r3, [r0, #8]
 80057f4:	2b00      	cmp	r3, #0
 80057f6:	d1e2      	bne.n	80057be <HAL_SPI_Receive+0x16>
    hspi->State = HAL_SPI_STATE_BUSY_RX;
 80057f8:	2304      	movs	r3, #4
 80057fa:	f880 3051 	strb.w	r3, [r0, #81]	; 0x51
    return HAL_SPI_TransmitReceive(hspi, pData, pData, Size, Timeout);
 80057fe:	9500      	str	r5, [sp, #0]
 8005800:	4613      	mov	r3, r2
 8005802:	460a      	mov	r2, r1
 8005804:	f7ff feb9 	bl	800557a <HAL_SPI_TransmitReceive>
 8005808:	e7f0      	b.n	80057ec <HAL_SPI_Receive+0x44>
  if ((pData == NULL) || (Size == 0U))
 800580a:	2f00      	cmp	r7, #0
 800580c:	d06d      	beq.n	80058ea <HAL_SPI_Receive+0x142>
 800580e:	f1b8 0f00 	cmp.w	r8, #0
 8005812:	d06c      	beq.n	80058ee <HAL_SPI_Receive+0x146>
  hspi->State       = HAL_SPI_STATE_BUSY_RX;
 8005814:	2304      	movs	r3, #4
 8005816:	f884 3051 	strb.w	r3, [r4, #81]	; 0x51
  hspi->ErrorCode   = HAL_SPI_ERROR_NONE;
 800581a:	2300      	movs	r3, #0
 800581c:	6563      	str	r3, [r4, #84]	; 0x54
  hspi->pRxBuffPtr  = (uint8_t *)pData;
 800581e:	63a7      	str	r7, [r4, #56]	; 0x38
  hspi->RxXferSize  = Size;
 8005820:	f8a4 803c 	strh.w	r8, [r4, #60]	; 0x3c
  hspi->RxXferCount = Size;
 8005824:	f8a4 803e 	strh.w	r8, [r4, #62]	; 0x3e
  hspi->pTxBuffPtr  = (uint8_t *)NULL;
 8005828:	6323      	str	r3, [r4, #48]	; 0x30
  hspi->TxXferSize  = 0U;
 800582a:	86a3      	strh	r3, [r4, #52]	; 0x34
  hspi->TxXferCount = 0U;
 800582c:	86e3      	strh	r3, [r4, #54]	; 0x36
  hspi->RxISR       = NULL;
 800582e:	6423      	str	r3, [r4, #64]	; 0x40
  hspi->TxISR       = NULL;
 8005830:	6463      	str	r3, [r4, #68]	; 0x44
  if (hspi->Init.Direction == SPI_DIRECTION_1LINE)
 8005832:	68a3      	ldr	r3, [r4, #8]
 8005834:	f5b3 4f00 	cmp.w	r3, #32768	; 0x8000
 8005838:	d00b      	beq.n	8005852 <HAL_SPI_Receive+0xaa>
  if ((hspi->Instance->CR1 & SPI_CR1_SPE) != SPI_CR1_SPE)
 800583a:	6823      	ldr	r3, [r4, #0]
 800583c:	681a      	ldr	r2, [r3, #0]
 800583e:	f012 0f40 	tst.w	r2, #64	; 0x40
 8005842:	d103      	bne.n	800584c <HAL_SPI_Receive+0xa4>
    __HAL_SPI_ENABLE(hspi);
 8005844:	681a      	ldr	r2, [r3, #0]
 8005846:	f042 0240 	orr.w	r2, r2, #64	; 0x40
 800584a:	601a      	str	r2, [r3, #0]
  if (hspi->Init.DataSize == SPI_DATASIZE_8BIT)
 800584c:	68e3      	ldr	r3, [r4, #12]
 800584e:	b183      	cbz	r3, 8005872 <HAL_SPI_Receive+0xca>
 8005850:	e02c      	b.n	80058ac <HAL_SPI_Receive+0x104>
    SPI_1LINE_RX(hspi);
 8005852:	6822      	ldr	r2, [r4, #0]
 8005854:	6813      	ldr	r3, [r2, #0]
 8005856:	f423 4380 	bic.w	r3, r3, #16384	; 0x4000
 800585a:	6013      	str	r3, [r2, #0]
 800585c:	e7ed      	b.n	800583a <HAL_SPI_Receive+0x92>
        if ((((HAL_GetTick() - tickstart) >=  Timeout) && (Timeout != HAL_MAX_DELAY)) || (Timeout == 0U))
 800585e:	f7fd ff1b 	bl	8003698 <HAL_GetTick>
 8005862:	1b80      	subs	r0, r0, r6
 8005864:	42a8      	cmp	r0, r5
 8005866:	d302      	bcc.n	800586e <HAL_SPI_Receive+0xc6>
 8005868:	f1b5 3fff 	cmp.w	r5, #4294967295	; 0xffffffff
 800586c:	d141      	bne.n	80058f2 <HAL_SPI_Receive+0x14a>
 800586e:	2d00      	cmp	r5, #0
 8005870:	d041      	beq.n	80058f6 <HAL_SPI_Receive+0x14e>
    while (hspi->RxXferCount > 0U)
 8005872:	8fe3      	ldrh	r3, [r4, #62]	; 0x3e
 8005874:	b29b      	uxth	r3, r3
 8005876:	2b00      	cmp	r3, #0
 8005878:	d02b      	beq.n	80058d2 <HAL_SPI_Receive+0x12a>
      if (__HAL_SPI_GET_FLAG(hspi, SPI_FLAG_RXNE))
 800587a:	6823      	ldr	r3, [r4, #0]
 800587c:	689a      	ldr	r2, [r3, #8]
 800587e:	f012 0f01 	tst.w	r2, #1
 8005882:	d0ec      	beq.n	800585e <HAL_SPI_Receive+0xb6>
        (* (uint8_t *)hspi->pRxBuffPtr) = *(__IO uint8_t *)&hspi->Instance->DR;
 8005884:	6ba2      	ldr	r2, [r4, #56]	; 0x38
 8005886:	7b1b      	ldrb	r3, [r3, #12]
 8005888:	7013      	strb	r3, [r2, #0]
        hspi->pRxBuffPtr += sizeof(uint8_t);
 800588a:	6ba3      	ldr	r3, [r4, #56]	; 0x38
 800588c:	3301      	adds	r3, #1
 800588e:	63a3      	str	r3, [r4, #56]	; 0x38
        hspi->RxXferCount--;
 8005890:	8fe3      	ldrh	r3, [r4, #62]	; 0x3e
 8005892:	3b01      	subs	r3, #1
 8005894:	b29b      	uxth	r3, r3
 8005896:	87e3      	strh	r3, [r4, #62]	; 0x3e
 8005898:	e7eb      	b.n	8005872 <HAL_SPI_Receive+0xca>
        if ((((HAL_GetTick() - tickstart) >=  Timeout) && (Timeout != HAL_MAX_DELAY)) || (Timeout == 0U))
 800589a:	f7fd fefd 	bl	8003698 <HAL_GetTick>
 800589e:	1b80      	subs	r0, r0, r6
 80058a0:	42a8      	cmp	r0, r5
 80058a2:	d302      	bcc.n	80058aa <HAL_SPI_Receive+0x102>
 80058a4:	f1b5 3fff 	cmp.w	r5, #4294967295	; 0xffffffff
 80058a8:	d127      	bne.n	80058fa <HAL_SPI_Receive+0x152>
 80058aa:	b345      	cbz	r5, 80058fe <HAL_SPI_Receive+0x156>
    while (hspi->RxXferCount > 0U)
 80058ac:	8fe3      	ldrh	r3, [r4, #62]	; 0x3e
 80058ae:	b29b      	uxth	r3, r3
 80058b0:	b17b      	cbz	r3, 80058d2 <HAL_SPI_Receive+0x12a>
      if (__HAL_SPI_GET_FLAG(hspi, SPI_FLAG_RXNE))
 80058b2:	6823      	ldr	r3, [r4, #0]
 80058b4:	689a      	ldr	r2, [r3, #8]
 80058b6:	f012 0f01 	tst.w	r2, #1
 80058ba:	d0ee      	beq.n	800589a <HAL_SPI_Receive+0xf2>
        *((uint16_t *)hspi->pRxBuffPtr) = (uint16_t)hspi->Instance->DR;
 80058bc:	68da      	ldr	r2, [r3, #12]
 80058be:	6ba3      	ldr	r3, [r4, #56]	; 0x38
 80058c0:	801a      	strh	r2, [r3, #0]
        hspi->pRxBuffPtr += sizeof(uint16_t);
 80058c2:	6ba3      	ldr	r3, [r4, #56]	; 0x38
 80058c4:	3302      	adds	r3, #2
 80058c6:	63a3      	str	r3, [r4, #56]	; 0x38
        hspi->RxXferCount--;
 80058c8:	8fe3      	ldrh	r3, [r4, #62]	; 0x3e
 80058ca:	3b01      	subs	r3, #1
 80058cc:	b29b      	uxth	r3, r3
 80058ce:	87e3      	strh	r3, [r4, #62]	; 0x3e
 80058d0:	e7ec      	b.n	80058ac <HAL_SPI_Receive+0x104>
  if (SPI_EndRxTransaction(hspi, Timeout, tickstart) != HAL_OK)
 80058d2:	4632      	mov	r2, r6
 80058d4:	4629      	mov	r1, r5
 80058d6:	4620      	mov	r0, r4
 80058d8:	f7ff fcf6 	bl	80052c8 <SPI_EndRxTransaction>
 80058dc:	b108      	cbz	r0, 80058e2 <HAL_SPI_Receive+0x13a>
    hspi->ErrorCode = HAL_SPI_ERROR_FLAG;
 80058de:	2320      	movs	r3, #32
 80058e0:	6563      	str	r3, [r4, #84]	; 0x54
  if (hspi->ErrorCode != HAL_SPI_ERROR_NONE)
 80058e2:	6d63      	ldr	r3, [r4, #84]	; 0x54
 80058e4:	b96b      	cbnz	r3, 8005902 <HAL_SPI_Receive+0x15a>
  HAL_StatusTypeDef errorcode = HAL_OK;
 80058e6:	2000      	movs	r0, #0
 80058e8:	e77a      	b.n	80057e0 <HAL_SPI_Receive+0x38>
    errorcode = HAL_ERROR;
 80058ea:	2001      	movs	r0, #1
 80058ec:	e778      	b.n	80057e0 <HAL_SPI_Receive+0x38>
 80058ee:	2001      	movs	r0, #1
 80058f0:	e776      	b.n	80057e0 <HAL_SPI_Receive+0x38>
          errorcode = HAL_TIMEOUT;
 80058f2:	2003      	movs	r0, #3
 80058f4:	e774      	b.n	80057e0 <HAL_SPI_Receive+0x38>
 80058f6:	2003      	movs	r0, #3
 80058f8:	e772      	b.n	80057e0 <HAL_SPI_Receive+0x38>
          errorcode = HAL_TIMEOUT;
 80058fa:	2003      	movs	r0, #3
 80058fc:	e770      	b.n	80057e0 <HAL_SPI_Receive+0x38>
 80058fe:	2003      	movs	r0, #3
 8005900:	e76e      	b.n	80057e0 <HAL_SPI_Receive+0x38>
    errorcode = HAL_ERROR;
 8005902:	2001      	movs	r0, #1
 8005904:	e76c      	b.n	80057e0 <HAL_SPI_Receive+0x38>
  __HAL_LOCK(hspi);
 8005906:	2002      	movs	r0, #2
 8005908:	e770      	b.n	80057ec <HAL_SPI_Receive+0x44>
	...

0800590c <TIM_OC1_SetConfig>:
  * @param  TIMx to select the TIM peripheral
  * @param  OC_Config The ouput configuration structure
  * @retval None
  */
static void TIM_OC1_SetConfig(TIM_TypeDef *TIMx, TIM_OC_InitTypeDef *OC_Config)
{
 800590c:	b470      	push	{r4, r5, r6}
  uint32_t tmpccmrx;
  uint32_t tmpccer;
  uint32_t tmpcr2;

  /* Disable the Channel 1: Reset the CC1E Bit */
  TIMx->CCER &= ~TIM_CCER_CC1E;
 800590e:	6a03      	ldr	r3, [r0, #32]
 8005910:	f023 0301 	bic.w	r3, r3, #1
 8005914:	6203      	str	r3, [r0, #32]

  /* Get the TIMx CCER register value */
  tmpccer = TIMx->CCER;
 8005916:	6a03      	ldr	r3, [r0, #32]
  /* Get the TIMx CR2 register value */
  tmpcr2 =  TIMx->CR2;
 8005918:	6842      	ldr	r2, [r0, #4]

  /* Get the TIMx CCMR1 register value */
  tmpccmrx = TIMx->CCMR1;
 800591a:	6984      	ldr	r4, [r0, #24]

  /* Reset the Output Compare Mode Bits */
  tmpccmrx &= ~TIM_CCMR1_OC1M;
  tmpccmrx &= ~TIM_CCMR1_CC1S;
 800591c:	f024 0473 	bic.w	r4, r4, #115	; 0x73
  /* Select the Output Compare Mode */
  tmpccmrx |= OC_Config->OCMode;
 8005920:	680d      	ldr	r5, [r1, #0]
 8005922:	ea45 0604 	orr.w	r6, r5, r4

  /* Reset the Output Polarity level */
  tmpccer &= ~TIM_CCER_CC1P;
 8005926:	f023 0402 	bic.w	r4, r3, #2
  /* Set the Output Compare Polarity */
  tmpccer |= OC_Config->OCPolarity;
 800592a:	688b      	ldr	r3, [r1, #8]
 800592c:	4323      	orrs	r3, r4

  if (IS_TIM_CCXN_INSTANCE(TIMx, TIM_CHANNEL_1))
 800592e:	4d0d      	ldr	r5, [pc, #52]	; (8005964 <TIM_OC1_SetConfig+0x58>)
 8005930:	42a8      	cmp	r0, r5
 8005932:	d009      	beq.n	8005948 <TIM_OC1_SetConfig+0x3c>
    tmpccer |= OC_Config->OCNPolarity;
    /* Reset the Output N State */
    tmpccer &= ~TIM_CCER_CC1NE;
  }

  if (IS_TIM_BREAK_INSTANCE(TIMx))
 8005934:	4d0b      	ldr	r5, [pc, #44]	; (8005964 <TIM_OC1_SetConfig+0x58>)
 8005936:	42a8      	cmp	r0, r5
 8005938:	d00d      	beq.n	8005956 <TIM_OC1_SetConfig+0x4a>
    /* Set the Output N Idle state */
    tmpcr2 |= OC_Config->OCNIdleState;
  }

  /* Write to TIMx CR2 */
  TIMx->CR2 = tmpcr2;
 800593a:	6042      	str	r2, [r0, #4]

  /* Write to TIMx CCMR1 */
  TIMx->CCMR1 = tmpccmrx;
 800593c:	6186      	str	r6, [r0, #24]

  /* Set the Capture Compare Register value */
  TIMx->CCR1 = OC_Config->Pulse;
 800593e:	684a      	ldr	r2, [r1, #4]
 8005940:	6342      	str	r2, [r0, #52]	; 0x34

  /* Write to TIMx CCER */
  TIMx->CCER = tmpccer;
 8005942:	6203      	str	r3, [r0, #32]
}
 8005944:	bc70      	pop	{r4, r5, r6}
 8005946:	4770      	bx	lr
    tmpccer &= ~TIM_CCER_CC1NP;
 8005948:	f023 0308 	bic.w	r3, r3, #8
    tmpccer |= OC_Config->OCNPolarity;
 800594c:	68cc      	ldr	r4, [r1, #12]
 800594e:	4323      	orrs	r3, r4
    tmpccer &= ~TIM_CCER_CC1NE;
 8005950:	f023 0304 	bic.w	r3, r3, #4
 8005954:	e7ee      	b.n	8005934 <TIM_OC1_SetConfig+0x28>
    tmpcr2 &= ~TIM_CR2_OIS1N;
 8005956:	f422 7240 	bic.w	r2, r2, #768	; 0x300
    tmpcr2 |= OC_Config->OCIdleState;
 800595a:	694c      	ldr	r4, [r1, #20]
 800595c:	4314      	orrs	r4, r2
    tmpcr2 |= OC_Config->OCNIdleState;
 800595e:	698a      	ldr	r2, [r1, #24]
 8005960:	4322      	orrs	r2, r4
 8005962:	e7ea      	b.n	800593a <TIM_OC1_SetConfig+0x2e>
 8005964:	40010000 	.word	0x40010000

08005968 <TIM_OC3_SetConfig>:
  * @param  TIMx to select the TIM peripheral
  * @param  OC_Config The ouput configuration structure
  * @retval None
  */
static void TIM_OC3_SetConfig(TIM_TypeDef *TIMx, TIM_OC_InitTypeDef *OC_Config)
{
 8005968:	b430      	push	{r4, r5}
  uint32_t tmpccmrx;
  uint32_t tmpccer;
  uint32_t tmpcr2;

  /* Disable the Channel 3: Reset the CC2E Bit */
  TIMx->CCER &= ~TIM_CCER_CC3E;
 800596a:	6a03      	ldr	r3, [r0, #32]
 800596c:	f423 7380 	bic.w	r3, r3, #256	; 0x100
 8005970:	6203      	str	r3, [r0, #32]

  /* Get the TIMx CCER register value */
  tmpccer = TIMx->CCER;
 8005972:	6a03      	ldr	r3, [r0, #32]
  /* Get the TIMx CR2 register value */
  tmpcr2 =  TIMx->CR2;
 8005974:	6842      	ldr	r2, [r0, #4]

  /* Get the TIMx CCMR2 register value */
  tmpccmrx = TIMx->CCMR2;
 8005976:	69c4      	ldr	r4, [r0, #28]

  /* Reset the Output Compare mode and Capture/Compare selection Bits */
  tmpccmrx &= ~TIM_CCMR2_OC3M;
  tmpccmrx &= ~TIM_CCMR2_CC3S;
 8005978:	f024 0473 	bic.w	r4, r4, #115	; 0x73
  /* Select the Output Compare Mode */
  tmpccmrx |= OC_Config->OCMode;
 800597c:	680d      	ldr	r5, [r1, #0]
 800597e:	432c      	orrs	r4, r5

  /* Reset the Output Polarity level */
  tmpccer &= ~TIM_CCER_CC3P;
 8005980:	f423 7300 	bic.w	r3, r3, #512	; 0x200
  /* Set the Output Compare Polarity */
  tmpccer |= (OC_Config->OCPolarity << 8U);
 8005984:	688d      	ldr	r5, [r1, #8]
 8005986:	ea43 2305 	orr.w	r3, r3, r5, lsl #8

  if (IS_TIM_CCXN_INSTANCE(TIMx, TIM_CHANNEL_3))
 800598a:	4d0f      	ldr	r5, [pc, #60]	; (80059c8 <TIM_OC3_SetConfig+0x60>)
 800598c:	42a8      	cmp	r0, r5
 800598e:	d009      	beq.n	80059a4 <TIM_OC3_SetConfig+0x3c>
    tmpccer |= (OC_Config->OCNPolarity << 8U);
    /* Reset the Output N State */
    tmpccer &= ~TIM_CCER_CC3NE;
  }

  if (IS_TIM_BREAK_INSTANCE(TIMx))
 8005990:	4d0d      	ldr	r5, [pc, #52]	; (80059c8 <TIM_OC3_SetConfig+0x60>)
 8005992:	42a8      	cmp	r0, r5
 8005994:	d00e      	beq.n	80059b4 <TIM_OC3_SetConfig+0x4c>
    /* Set the Output N Idle state */
    tmpcr2 |= (OC_Config->OCNIdleState << 4U);
  }

  /* Write to TIMx CR2 */
  TIMx->CR2 = tmpcr2;
 8005996:	6042      	str	r2, [r0, #4]

  /* Write to TIMx CCMR2 */
  TIMx->CCMR2 = tmpccmrx;
 8005998:	61c4      	str	r4, [r0, #28]

  /* Set the Capture Compare Register value */
  TIMx->CCR3 = OC_Config->Pulse;
 800599a:	684a      	ldr	r2, [r1, #4]
 800599c:	63c2      	str	r2, [r0, #60]	; 0x3c

  /* Write to TIMx CCER */
  TIMx->CCER = tmpccer;
 800599e:	6203      	str	r3, [r0, #32]
}
 80059a0:	bc30      	pop	{r4, r5}
 80059a2:	4770      	bx	lr
    tmpccer &= ~TIM_CCER_CC3NP;
 80059a4:	f423 6300 	bic.w	r3, r3, #2048	; 0x800
    tmpccer |= (OC_Config->OCNPolarity << 8U);
 80059a8:	68cd      	ldr	r5, [r1, #12]
 80059aa:	ea43 2305 	orr.w	r3, r3, r5, lsl #8
    tmpccer &= ~TIM_CCER_CC3NE;
 80059ae:	f423 6380 	bic.w	r3, r3, #1024	; 0x400
 80059b2:	e7ed      	b.n	8005990 <TIM_OC3_SetConfig+0x28>
    tmpcr2 &= ~TIM_CR2_OIS3N;
 80059b4:	f422 5240 	bic.w	r2, r2, #12288	; 0x3000
    tmpcr2 |= (OC_Config->OCIdleState << 4U);
 80059b8:	694d      	ldr	r5, [r1, #20]
 80059ba:	ea42 1205 	orr.w	r2, r2, r5, lsl #4
    tmpcr2 |= (OC_Config->OCNIdleState << 4U);
 80059be:	698d      	ldr	r5, [r1, #24]
 80059c0:	ea42 1205 	orr.w	r2, r2, r5, lsl #4
 80059c4:	e7e7      	b.n	8005996 <TIM_OC3_SetConfig+0x2e>
 80059c6:	bf00      	nop
 80059c8:	40010000 	.word	0x40010000

080059cc <TIM_OC4_SetConfig>:
  * @param  TIMx to select the TIM peripheral
  * @param  OC_Config The ouput configuration structure
  * @retval None
  */
static void TIM_OC4_SetConfig(TIM_TypeDef *TIMx, TIM_OC_InitTypeDef *OC_Config)
{
 80059cc:	b430      	push	{r4, r5}
  uint32_t tmpccmrx;
  uint32_t tmpccer;
  uint32_t tmpcr2;

  /* Disable the Channel 4: Reset the CC4E Bit */
  TIMx->CCER &= ~TIM_CCER_CC4E;
 80059ce:	6a03      	ldr	r3, [r0, #32]
 80059d0:	f423 5380 	bic.w	r3, r3, #4096	; 0x1000
 80059d4:	6203      	str	r3, [r0, #32]

  /* Get the TIMx CCER register value */
  tmpccer = TIMx->CCER;
 80059d6:	6a03      	ldr	r3, [r0, #32]
  /* Get the TIMx CR2 register value */
  tmpcr2 =  TIMx->CR2;
 80059d8:	6844      	ldr	r4, [r0, #4]

  /* Get the TIMx CCMR2 register value */
  tmpccmrx = TIMx->CCMR2;
 80059da:	69c2      	ldr	r2, [r0, #28]

  /* Reset the Output Compare mode and Capture/Compare selection Bits */
  tmpccmrx &= ~TIM_CCMR2_OC4M;
  tmpccmrx &= ~TIM_CCMR2_CC4S;
 80059dc:	f422 42e6 	bic.w	r2, r2, #29440	; 0x7300

  /* Select the Output Compare Mode */
  tmpccmrx |= (OC_Config->OCMode << 8U);
 80059e0:	680d      	ldr	r5, [r1, #0]
 80059e2:	ea42 2205 	orr.w	r2, r2, r5, lsl #8

  /* Reset the Output Polarity level */
  tmpccer &= ~TIM_CCER_CC4P;
 80059e6:	f423 5300 	bic.w	r3, r3, #8192	; 0x2000
  /* Set the Output Compare Polarity */
  tmpccer |= (OC_Config->OCPolarity << 12U);
 80059ea:	688d      	ldr	r5, [r1, #8]
 80059ec:	ea43 3305 	orr.w	r3, r3, r5, lsl #12

  if (IS_TIM_BREAK_INSTANCE(TIMx))
 80059f0:	4d07      	ldr	r5, [pc, #28]	; (8005a10 <TIM_OC4_SetConfig+0x44>)
 80059f2:	42a8      	cmp	r0, r5
 80059f4:	d006      	beq.n	8005a04 <TIM_OC4_SetConfig+0x38>
    /* Set the Output Idle state */
    tmpcr2 |= (OC_Config->OCIdleState << 6U);
  }

  /* Write to TIMx CR2 */
  TIMx->CR2 = tmpcr2;
 80059f6:	6044      	str	r4, [r0, #4]

  /* Write to TIMx CCMR2 */
  TIMx->CCMR2 = tmpccmrx;
 80059f8:	61c2      	str	r2, [r0, #28]

  /* Set the Capture Compare Register value */
  TIMx->CCR4 = OC_Config->Pulse;
 80059fa:	684a      	ldr	r2, [r1, #4]
 80059fc:	6402      	str	r2, [r0, #64]	; 0x40

  /* Write to TIMx CCER */
  TIMx->CCER = tmpccer;
 80059fe:	6203      	str	r3, [r0, #32]
}
 8005a00:	bc30      	pop	{r4, r5}
 8005a02:	4770      	bx	lr
    tmpcr2 &= ~TIM_CR2_OIS4;
 8005a04:	f424 4480 	bic.w	r4, r4, #16384	; 0x4000
    tmpcr2 |= (OC_Config->OCIdleState << 6U);
 8005a08:	694d      	ldr	r5, [r1, #20]
 8005a0a:	ea44 1485 	orr.w	r4, r4, r5, lsl #6
 8005a0e:	e7f2      	b.n	80059f6 <TIM_OC4_SetConfig+0x2a>
 8005a10:	40010000 	.word	0x40010000

08005a14 <TIM_TI1_ConfigInputStage>:
  * @param  TIM_ICFilter Specifies the Input Capture Filter.
  *          This parameter must be a value between 0x00 and 0x0F.
  * @retval None
  */
static void TIM_TI1_ConfigInputStage(TIM_TypeDef *TIMx, uint32_t TIM_ICPolarity, uint32_t TIM_ICFilter)
{
 8005a14:	b410      	push	{r4}
  uint32_t tmpccmr1;
  uint32_t tmpccer;

  /* Disable the Channel 1: Reset the CC1E Bit */
  tmpccer = TIMx->CCER;
 8005a16:	6a03      	ldr	r3, [r0, #32]
  TIMx->CCER &= ~TIM_CCER_CC1E;
 8005a18:	6a04      	ldr	r4, [r0, #32]
 8005a1a:	f024 0401 	bic.w	r4, r4, #1
 8005a1e:	6204      	str	r4, [r0, #32]
  tmpccmr1 = TIMx->CCMR1;
 8005a20:	6984      	ldr	r4, [r0, #24]

  /* Set the filter */
  tmpccmr1 &= ~TIM_CCMR1_IC1F;
 8005a22:	f024 04f0 	bic.w	r4, r4, #240	; 0xf0
  tmpccmr1 |= (TIM_ICFilter << 4U);
 8005a26:	ea44 1202 	orr.w	r2, r4, r2, lsl #4

  /* Select the Polarity and set the CC1E Bit */
  tmpccer &= ~(TIM_CCER_CC1P | TIM_CCER_CC1NP);
 8005a2a:	f023 030a 	bic.w	r3, r3, #10
  tmpccer |= TIM_ICPolarity;
 8005a2e:	430b      	orrs	r3, r1

  /* Write to TIMx CCMR1 and CCER registers */
  TIMx->CCMR1 = tmpccmr1;
 8005a30:	6182      	str	r2, [r0, #24]
  TIMx->CCER = tmpccer;
 8005a32:	6203      	str	r3, [r0, #32]
}
 8005a34:	f85d 4b04 	ldr.w	r4, [sp], #4
 8005a38:	4770      	bx	lr

08005a3a <TIM_TI2_ConfigInputStage>:
  * @param  TIM_ICFilter Specifies the Input Capture Filter.
  *          This parameter must be a value between 0x00 and 0x0F.
  * @retval None
  */
static void TIM_TI2_ConfigInputStage(TIM_TypeDef *TIMx, uint32_t TIM_ICPolarity, uint32_t TIM_ICFilter)
{
 8005a3a:	b410      	push	{r4}
  uint32_t tmpccmr1;
  uint32_t tmpccer;

  /* Disable the Channel 2: Reset the CC2E Bit */
  TIMx->CCER &= ~TIM_CCER_CC2E;
 8005a3c:	6a03      	ldr	r3, [r0, #32]
 8005a3e:	f023 0310 	bic.w	r3, r3, #16
 8005a42:	6203      	str	r3, [r0, #32]
  tmpccmr1 = TIMx->CCMR1;
 8005a44:	6984      	ldr	r4, [r0, #24]
  tmpccer = TIMx->CCER;
 8005a46:	6a03      	ldr	r3, [r0, #32]

  /* Set the filter */
  tmpccmr1 &= ~TIM_CCMR1_IC2F;
 8005a48:	f424 4470 	bic.w	r4, r4, #61440	; 0xf000
  tmpccmr1 |= (TIM_ICFilter << 12U);
 8005a4c:	ea44 3202 	orr.w	r2, r4, r2, lsl #12

  /* Select the Polarity and set the CC2E Bit */
  tmpccer &= ~(TIM_CCER_CC2P | TIM_CCER_CC2NP);
 8005a50:	f023 03a0 	bic.w	r3, r3, #160	; 0xa0
  tmpccer |= (TIM_ICPolarity << 4U);
 8005a54:	ea43 1301 	orr.w	r3, r3, r1, lsl #4

  /* Write to TIMx CCMR1 and CCER registers */
  TIMx->CCMR1 = tmpccmr1 ;
 8005a58:	6182      	str	r2, [r0, #24]
  TIMx->CCER = tmpccer;
 8005a5a:	6203      	str	r3, [r0, #32]
}
 8005a5c:	f85d 4b04 	ldr.w	r4, [sp], #4
 8005a60:	4770      	bx	lr

08005a62 <TIM_ITRx_SetConfig>:
static void TIM_ITRx_SetConfig(TIM_TypeDef *TIMx, uint32_t InputTriggerSource)
{
  uint32_t tmpsmcr;

  /* Get the TIMx SMCR register value */
  tmpsmcr = TIMx->SMCR;
 8005a62:	6883      	ldr	r3, [r0, #8]
  /* Reset the TS Bits */
  tmpsmcr &= ~TIM_SMCR_TS;
 8005a64:	f023 0370 	bic.w	r3, r3, #112	; 0x70
  /* Set the Input Trigger source and the slave mode*/
  tmpsmcr |= (InputTriggerSource | TIM_SLAVEMODE_EXTERNAL1);
 8005a68:	4319      	orrs	r1, r3
 8005a6a:	f041 0107 	orr.w	r1, r1, #7
  /* Write to TIMx SMCR */
  TIMx->SMCR = tmpsmcr;
 8005a6e:	6081      	str	r1, [r0, #8]
}
 8005a70:	4770      	bx	lr

08005a72 <HAL_TIM_Base_Start_IT>:
  __HAL_TIM_ENABLE_IT(htim, TIM_IT_UPDATE);
 8005a72:	6802      	ldr	r2, [r0, #0]
 8005a74:	68d3      	ldr	r3, [r2, #12]
 8005a76:	f043 0301 	orr.w	r3, r3, #1
 8005a7a:	60d3      	str	r3, [r2, #12]
  tmpsmcr = htim->Instance->SMCR & TIM_SMCR_SMS;
 8005a7c:	6802      	ldr	r2, [r0, #0]
 8005a7e:	6893      	ldr	r3, [r2, #8]
 8005a80:	f003 0307 	and.w	r3, r3, #7
  if (!IS_TIM_SLAVEMODE_TRIGGER_ENABLED(tmpsmcr))
 8005a84:	2b06      	cmp	r3, #6
 8005a86:	d003      	beq.n	8005a90 <HAL_TIM_Base_Start_IT+0x1e>
    __HAL_TIM_ENABLE(htim);
 8005a88:	6813      	ldr	r3, [r2, #0]
 8005a8a:	f043 0301 	orr.w	r3, r3, #1
 8005a8e:	6013      	str	r3, [r2, #0]
}
 8005a90:	2000      	movs	r0, #0
 8005a92:	4770      	bx	lr

08005a94 <HAL_TIM_PeriodElapsedCallback>:
}
 8005a94:	4770      	bx	lr

08005a96 <HAL_TIM_OC_DelayElapsedCallback>:
}
 8005a96:	4770      	bx	lr

08005a98 <HAL_TIM_IC_CaptureCallback>:
}
 8005a98:	4770      	bx	lr

08005a9a <HAL_TIM_PWM_PulseFinishedCallback>:
}
 8005a9a:	4770      	bx	lr

08005a9c <HAL_TIM_TriggerCallback>:
}
 8005a9c:	4770      	bx	lr

08005a9e <HAL_TIM_IRQHandler>:
{
 8005a9e:	b510      	push	{r4, lr}
 8005aa0:	4604      	mov	r4, r0
  if (__HAL_TIM_GET_FLAG(htim, TIM_FLAG_CC1) != RESET)
 8005aa2:	6803      	ldr	r3, [r0, #0]
 8005aa4:	691a      	ldr	r2, [r3, #16]
 8005aa6:	f012 0f02 	tst.w	r2, #2
 8005aaa:	d011      	beq.n	8005ad0 <HAL_TIM_IRQHandler+0x32>
    if (__HAL_TIM_GET_IT_SOURCE(htim, TIM_IT_CC1) != RESET)
 8005aac:	68da      	ldr	r2, [r3, #12]
 8005aae:	f012 0f02 	tst.w	r2, #2
 8005ab2:	d00d      	beq.n	8005ad0 <HAL_TIM_IRQHandler+0x32>
        __HAL_TIM_CLEAR_IT(htim, TIM_IT_CC1);
 8005ab4:	f06f 0202 	mvn.w	r2, #2
 8005ab8:	611a      	str	r2, [r3, #16]
        htim->Channel = HAL_TIM_ACTIVE_CHANNEL_1;
 8005aba:	2301      	movs	r3, #1
 8005abc:	7703      	strb	r3, [r0, #28]
        if ((htim->Instance->CCMR1 & TIM_CCMR1_CC1S) != 0x00U)
 8005abe:	6803      	ldr	r3, [r0, #0]
 8005ac0:	699b      	ldr	r3, [r3, #24]
 8005ac2:	f013 0f03 	tst.w	r3, #3
 8005ac6:	d070      	beq.n	8005baa <HAL_TIM_IRQHandler+0x10c>
          HAL_TIM_IC_CaptureCallback(htim);
 8005ac8:	f7ff ffe6 	bl	8005a98 <HAL_TIM_IC_CaptureCallback>
        htim->Channel = HAL_TIM_ACTIVE_CHANNEL_CLEARED;
 8005acc:	2300      	movs	r3, #0
 8005ace:	7723      	strb	r3, [r4, #28]
  if (__HAL_TIM_GET_FLAG(htim, TIM_FLAG_CC2) != RESET)
 8005ad0:	6823      	ldr	r3, [r4, #0]
 8005ad2:	691a      	ldr	r2, [r3, #16]
 8005ad4:	f012 0f04 	tst.w	r2, #4
 8005ad8:	d012      	beq.n	8005b00 <HAL_TIM_IRQHandler+0x62>
    if (__HAL_TIM_GET_IT_SOURCE(htim, TIM_IT_CC2) != RESET)
 8005ada:	68da      	ldr	r2, [r3, #12]
 8005adc:	f012 0f04 	tst.w	r2, #4
 8005ae0:	d00e      	beq.n	8005b00 <HAL_TIM_IRQHandler+0x62>
      __HAL_TIM_CLEAR_IT(htim, TIM_IT_CC2);
 8005ae2:	f06f 0204 	mvn.w	r2, #4
 8005ae6:	611a      	str	r2, [r3, #16]
      htim->Channel = HAL_TIM_ACTIVE_CHANNEL_2;
 8005ae8:	2302      	movs	r3, #2
 8005aea:	7723      	strb	r3, [r4, #28]
      if ((htim->Instance->CCMR1 & TIM_CCMR1_CC2S) != 0x00U)
 8005aec:	6823      	ldr	r3, [r4, #0]
 8005aee:	699b      	ldr	r3, [r3, #24]
 8005af0:	f413 7f40 	tst.w	r3, #768	; 0x300
 8005af4:	d05f      	beq.n	8005bb6 <HAL_TIM_IRQHandler+0x118>
        HAL_TIM_IC_CaptureCallback(htim);
 8005af6:	4620      	mov	r0, r4
 8005af8:	f7ff ffce 	bl	8005a98 <HAL_TIM_IC_CaptureCallback>
      htim->Channel = HAL_TIM_ACTIVE_CHANNEL_CLEARED;
 8005afc:	2300      	movs	r3, #0
 8005afe:	7723      	strb	r3, [r4, #28]
  if (__HAL_TIM_GET_FLAG(htim, TIM_FLAG_CC3) != RESET)
 8005b00:	6823      	ldr	r3, [r4, #0]
 8005b02:	691a      	ldr	r2, [r3, #16]
 8005b04:	f012 0f08 	tst.w	r2, #8
 8005b08:	d012      	beq.n	8005b30 <HAL_TIM_IRQHandler+0x92>
    if (__HAL_TIM_GET_IT_SOURCE(htim, TIM_IT_CC3) != RESET)
 8005b0a:	68da      	ldr	r2, [r3, #12]
 8005b0c:	f012 0f08 	tst.w	r2, #8
 8005b10:	d00e      	beq.n	8005b30 <HAL_TIM_IRQHandler+0x92>
      __HAL_TIM_CLEAR_IT(htim, TIM_IT_CC3);
 8005b12:	f06f 0208 	mvn.w	r2, #8
 8005b16:	611a      	str	r2, [r3, #16]
      htim->Channel = HAL_TIM_ACTIVE_CHANNEL_3;
 8005b18:	2304      	movs	r3, #4
 8005b1a:	7723      	strb	r3, [r4, #28]
      if ((htim->Instance->CCMR2 & TIM_CCMR2_CC3S) != 0x00U)
 8005b1c:	6823      	ldr	r3, [r4, #0]
 8005b1e:	69db      	ldr	r3, [r3, #28]
 8005b20:	f013 0f03 	tst.w	r3, #3
 8005b24:	d04e      	beq.n	8005bc4 <HAL_TIM_IRQHandler+0x126>
        HAL_TIM_IC_CaptureCallback(htim);
 8005b26:	4620      	mov	r0, r4
 8005b28:	f7ff ffb6 	bl	8005a98 <HAL_TIM_IC_CaptureCallback>
      htim->Channel = HAL_TIM_ACTIVE_CHANNEL_CLEARED;
 8005b2c:	2300      	movs	r3, #0
 8005b2e:	7723      	strb	r3, [r4, #28]
  if (__HAL_TIM_GET_FLAG(htim, TIM_FLAG_CC4) != RESET)
 8005b30:	6823      	ldr	r3, [r4, #0]
 8005b32:	691a      	ldr	r2, [r3, #16]
 8005b34:	f012 0f10 	tst.w	r2, #16
 8005b38:	d012      	beq.n	8005b60 <HAL_TIM_IRQHandler+0xc2>
    if (__HAL_TIM_GET_IT_SOURCE(htim, TIM_IT_CC4) != RESET)
 8005b3a:	68da      	ldr	r2, [r3, #12]
 8005b3c:	f012 0f10 	tst.w	r2, #16
 8005b40:	d00e      	beq.n	8005b60 <HAL_TIM_IRQHandler+0xc2>
      __HAL_TIM_CLEAR_IT(htim, TIM_IT_CC4);
 8005b42:	f06f 0210 	mvn.w	r2, #16
 8005b46:	611a      	str	r2, [r3, #16]
      htim->Channel = HAL_TIM_ACTIVE_CHANNEL_4;
 8005b48:	2308      	movs	r3, #8
 8005b4a:	7723      	strb	r3, [r4, #28]
      if ((htim->Instance->CCMR2 & TIM_CCMR2_CC4S) != 0x00U)
 8005b4c:	6823      	ldr	r3, [r4, #0]
 8005b4e:	69db      	ldr	r3, [r3, #28]
 8005b50:	f413 7f40 	tst.w	r3, #768	; 0x300
 8005b54:	d03d      	beq.n	8005bd2 <HAL_TIM_IRQHandler+0x134>
        HAL_TIM_IC_CaptureCallback(htim);
 8005b56:	4620      	mov	r0, r4
 8005b58:	f7ff ff9e 	bl	8005a98 <HAL_TIM_IC_CaptureCallback>
      htim->Channel = HAL_TIM_ACTIVE_CHANNEL_CLEARED;
 8005b5c:	2300      	movs	r3, #0
 8005b5e:	7723      	strb	r3, [r4, #28]
  if (__HAL_TIM_GET_FLAG(htim, TIM_FLAG_UPDATE) != RESET)
 8005b60:	6823      	ldr	r3, [r4, #0]
 8005b62:	691a      	ldr	r2, [r3, #16]
 8005b64:	f012 0f01 	tst.w	r2, #1
 8005b68:	d003      	beq.n	8005b72 <HAL_TIM_IRQHandler+0xd4>
    if (__HAL_TIM_GET_IT_SOURCE(htim, TIM_IT_UPDATE) != RESET)
 8005b6a:	68da      	ldr	r2, [r3, #12]
 8005b6c:	f012 0f01 	tst.w	r2, #1
 8005b70:	d136      	bne.n	8005be0 <HAL_TIM_IRQHandler+0x142>
  if (__HAL_TIM_GET_FLAG(htim, TIM_FLAG_BREAK) != RESET)
 8005b72:	6823      	ldr	r3, [r4, #0]
 8005b74:	691a      	ldr	r2, [r3, #16]
 8005b76:	f012 0f80 	tst.w	r2, #128	; 0x80
 8005b7a:	d003      	beq.n	8005b84 <HAL_TIM_IRQHandler+0xe6>
    if (__HAL_TIM_GET_IT_SOURCE(htim, TIM_IT_BREAK) != RESET)
 8005b7c:	68da      	ldr	r2, [r3, #12]
 8005b7e:	f012 0f80 	tst.w	r2, #128	; 0x80
 8005b82:	d134      	bne.n	8005bee <HAL_TIM_IRQHandler+0x150>
  if (__HAL_TIM_GET_FLAG(htim, TIM_FLAG_TRIGGER) != RESET)
 8005b84:	6823      	ldr	r3, [r4, #0]
 8005b86:	691a      	ldr	r2, [r3, #16]
 8005b88:	f012 0f40 	tst.w	r2, #64	; 0x40
 8005b8c:	d003      	beq.n	8005b96 <HAL_TIM_IRQHandler+0xf8>
    if (__HAL_TIM_GET_IT_SOURCE(htim, TIM_IT_TRIGGER) != RESET)
 8005b8e:	68da      	ldr	r2, [r3, #12]
 8005b90:	f012 0f40 	tst.w	r2, #64	; 0x40
 8005b94:	d132      	bne.n	8005bfc <HAL_TIM_IRQHandler+0x15e>
  if (__HAL_TIM_GET_FLAG(htim, TIM_FLAG_COM) != RESET)
 8005b96:	6823      	ldr	r3, [r4, #0]
 8005b98:	691a      	ldr	r2, [r3, #16]
 8005b9a:	f012 0f20 	tst.w	r2, #32
 8005b9e:	d003      	beq.n	8005ba8 <HAL_TIM_IRQHandler+0x10a>
    if (__HAL_TIM_GET_IT_SOURCE(htim, TIM_IT_COM) != RESET)
 8005ba0:	68da      	ldr	r2, [r3, #12]
 8005ba2:	f012 0f20 	tst.w	r2, #32
 8005ba6:	d130      	bne.n	8005c0a <HAL_TIM_IRQHandler+0x16c>
}
 8005ba8:	bd10      	pop	{r4, pc}
          HAL_TIM_OC_DelayElapsedCallback(htim);
 8005baa:	f7ff ff74 	bl	8005a96 <HAL_TIM_OC_DelayElapsedCallback>
          HAL_TIM_PWM_PulseFinishedCallback(htim);
 8005bae:	4620      	mov	r0, r4
 8005bb0:	f7ff ff73 	bl	8005a9a <HAL_TIM_PWM_PulseFinishedCallback>
 8005bb4:	e78a      	b.n	8005acc <HAL_TIM_IRQHandler+0x2e>
        HAL_TIM_OC_DelayElapsedCallback(htim);
 8005bb6:	4620      	mov	r0, r4
 8005bb8:	f7ff ff6d 	bl	8005a96 <HAL_TIM_OC_DelayElapsedCallback>
        HAL_TIM_PWM_PulseFinishedCallback(htim);
 8005bbc:	4620      	mov	r0, r4
 8005bbe:	f7ff ff6c 	bl	8005a9a <HAL_TIM_PWM_PulseFinishedCallback>
 8005bc2:	e79b      	b.n	8005afc <HAL_TIM_IRQHandler+0x5e>
        HAL_TIM_OC_DelayElapsedCallback(htim);
 8005bc4:	4620      	mov	r0, r4
 8005bc6:	f7ff ff66 	bl	8005a96 <HAL_TIM_OC_DelayElapsedCallback>
        HAL_TIM_PWM_PulseFinishedCallback(htim);
 8005bca:	4620      	mov	r0, r4
 8005bcc:	f7ff ff65 	bl	8005a9a <HAL_TIM_PWM_PulseFinishedCallback>
 8005bd0:	e7ac      	b.n	8005b2c <HAL_TIM_IRQHandler+0x8e>
        HAL_TIM_OC_DelayElapsedCallback(htim);
 8005bd2:	4620      	mov	r0, r4
 8005bd4:	f7ff ff5f 	bl	8005a96 <HAL_TIM_OC_DelayElapsedCallback>
        HAL_TIM_PWM_PulseFinishedCallback(htim);
 8005bd8:	4620      	mov	r0, r4
 8005bda:	f7ff ff5e 	bl	8005a9a <HAL_TIM_PWM_PulseFinishedCallback>
 8005bde:	e7bd      	b.n	8005b5c <HAL_TIM_IRQHandler+0xbe>
      __HAL_TIM_CLEAR_IT(htim, TIM_IT_UPDATE);
 8005be0:	f06f 0201 	mvn.w	r2, #1
 8005be4:	611a      	str	r2, [r3, #16]
      HAL_TIM_PeriodElapsedCallback(htim);
 8005be6:	4620      	mov	r0, r4
 8005be8:	f7ff ff54 	bl	8005a94 <HAL_TIM_PeriodElapsedCallback>
 8005bec:	e7c1      	b.n	8005b72 <HAL_TIM_IRQHandler+0xd4>
      __HAL_TIM_CLEAR_IT(htim, TIM_IT_BREAK);
 8005bee:	f06f 0280 	mvn.w	r2, #128	; 0x80
 8005bf2:	611a      	str	r2, [r3, #16]
      HAL_TIMEx_BreakCallback(htim);
 8005bf4:	4620      	mov	r0, r4
 8005bf6:	f000 fa1d 	bl	8006034 <HAL_TIMEx_BreakCallback>
 8005bfa:	e7c3      	b.n	8005b84 <HAL_TIM_IRQHandler+0xe6>
      __HAL_TIM_CLEAR_IT(htim, TIM_IT_TRIGGER);
 8005bfc:	f06f 0240 	mvn.w	r2, #64	; 0x40
 8005c00:	611a      	str	r2, [r3, #16]
      HAL_TIM_TriggerCallback(htim);
 8005c02:	4620      	mov	r0, r4
 8005c04:	f7ff ff4a 	bl	8005a9c <HAL_TIM_TriggerCallback>
 8005c08:	e7c5      	b.n	8005b96 <HAL_TIM_IRQHandler+0xf8>
      __HAL_TIM_CLEAR_IT(htim, TIM_FLAG_COM);
 8005c0a:	f06f 0220 	mvn.w	r2, #32
 8005c0e:	611a      	str	r2, [r3, #16]
      HAL_TIMEx_CommutCallback(htim);
 8005c10:	4620      	mov	r0, r4
 8005c12:	f000 fa0e 	bl	8006032 <HAL_TIMEx_CommutCallback>
}
 8005c16:	e7c7      	b.n	8005ba8 <HAL_TIM_IRQHandler+0x10a>

08005c18 <TIM_Base_SetConfig>:
  tmpcr1 = TIMx->CR1;
 8005c18:	6803      	ldr	r3, [r0, #0]
  if (IS_TIM_COUNTER_MODE_SELECT_INSTANCE(TIMx))
 8005c1a:	4a25      	ldr	r2, [pc, #148]	; (8005cb0 <TIM_Base_SetConfig+0x98>)
 8005c1c:	4290      	cmp	r0, r2
 8005c1e:	d00e      	beq.n	8005c3e <TIM_Base_SetConfig+0x26>
 8005c20:	f1b0 4f80 	cmp.w	r0, #1073741824	; 0x40000000
 8005c24:	d00b      	beq.n	8005c3e <TIM_Base_SetConfig+0x26>
 8005c26:	f5a2 427c 	sub.w	r2, r2, #64512	; 0xfc00
 8005c2a:	4290      	cmp	r0, r2
 8005c2c:	d007      	beq.n	8005c3e <TIM_Base_SetConfig+0x26>
 8005c2e:	f502 6280 	add.w	r2, r2, #1024	; 0x400
 8005c32:	4290      	cmp	r0, r2
 8005c34:	d003      	beq.n	8005c3e <TIM_Base_SetConfig+0x26>
 8005c36:	f502 6280 	add.w	r2, r2, #1024	; 0x400
 8005c3a:	4290      	cmp	r0, r2
 8005c3c:	d103      	bne.n	8005c46 <TIM_Base_SetConfig+0x2e>
    tmpcr1 &= ~(TIM_CR1_DIR | TIM_CR1_CMS);
 8005c3e:	f023 0370 	bic.w	r3, r3, #112	; 0x70
    tmpcr1 |= Structure->CounterMode;
 8005c42:	684a      	ldr	r2, [r1, #4]
 8005c44:	4313      	orrs	r3, r2
  if (IS_TIM_CLOCK_DIVISION_INSTANCE(TIMx))
 8005c46:	4a1a      	ldr	r2, [pc, #104]	; (8005cb0 <TIM_Base_SetConfig+0x98>)
 8005c48:	4290      	cmp	r0, r2
 8005c4a:	d01a      	beq.n	8005c82 <TIM_Base_SetConfig+0x6a>
 8005c4c:	f1b0 4f80 	cmp.w	r0, #1073741824	; 0x40000000
 8005c50:	d017      	beq.n	8005c82 <TIM_Base_SetConfig+0x6a>
 8005c52:	f5a2 427c 	sub.w	r2, r2, #64512	; 0xfc00
 8005c56:	4290      	cmp	r0, r2
 8005c58:	d013      	beq.n	8005c82 <TIM_Base_SetConfig+0x6a>
 8005c5a:	f502 6280 	add.w	r2, r2, #1024	; 0x400
 8005c5e:	4290      	cmp	r0, r2
 8005c60:	d00f      	beq.n	8005c82 <TIM_Base_SetConfig+0x6a>
 8005c62:	f502 6280 	add.w	r2, r2, #1024	; 0x400
 8005c66:	4290      	cmp	r0, r2
 8005c68:	d00b      	beq.n	8005c82 <TIM_Base_SetConfig+0x6a>
 8005c6a:	f502 329a 	add.w	r2, r2, #78848	; 0x13400
 8005c6e:	4290      	cmp	r0, r2
 8005c70:	d007      	beq.n	8005c82 <TIM_Base_SetConfig+0x6a>
 8005c72:	f502 6280 	add.w	r2, r2, #1024	; 0x400
 8005c76:	4290      	cmp	r0, r2
 8005c78:	d003      	beq.n	8005c82 <TIM_Base_SetConfig+0x6a>
 8005c7a:	f502 6280 	add.w	r2, r2, #1024	; 0x400
 8005c7e:	4290      	cmp	r0, r2
 8005c80:	d103      	bne.n	8005c8a <TIM_Base_SetConfig+0x72>
    tmpcr1 &= ~TIM_CR1_CKD;
 8005c82:	f423 7340 	bic.w	r3, r3, #768	; 0x300
    tmpcr1 |= (uint32_t)Structure->ClockDivision;
 8005c86:	68ca      	ldr	r2, [r1, #12]
 8005c88:	4313      	orrs	r3, r2
  MODIFY_REG(tmpcr1, TIM_CR1_ARPE, Structure->AutoReloadPreload);
 8005c8a:	f023 0380 	bic.w	r3, r3, #128	; 0x80
 8005c8e:	694a      	ldr	r2, [r1, #20]
 8005c90:	4313      	orrs	r3, r2
  TIMx->CR1 = tmpcr1;
 8005c92:	6003      	str	r3, [r0, #0]
  TIMx->ARR = (uint32_t)Structure->Period ;
 8005c94:	688b      	ldr	r3, [r1, #8]
 8005c96:	62c3      	str	r3, [r0, #44]	; 0x2c
  TIMx->PSC = Structure->Prescaler;
 8005c98:	680b      	ldr	r3, [r1, #0]
 8005c9a:	6283      	str	r3, [r0, #40]	; 0x28
  if (IS_TIM_REPETITION_COUNTER_INSTANCE(TIMx))
 8005c9c:	4b04      	ldr	r3, [pc, #16]	; (8005cb0 <TIM_Base_SetConfig+0x98>)
 8005c9e:	4298      	cmp	r0, r3
 8005ca0:	d002      	beq.n	8005ca8 <TIM_Base_SetConfig+0x90>
  TIMx->EGR = TIM_EGR_UG;
 8005ca2:	2301      	movs	r3, #1
 8005ca4:	6143      	str	r3, [r0, #20]
}
 8005ca6:	4770      	bx	lr
    TIMx->RCR = Structure->RepetitionCounter;
 8005ca8:	690b      	ldr	r3, [r1, #16]
 8005caa:	6303      	str	r3, [r0, #48]	; 0x30
 8005cac:	e7f9      	b.n	8005ca2 <TIM_Base_SetConfig+0x8a>
 8005cae:	bf00      	nop
 8005cb0:	40010000 	.word	0x40010000

08005cb4 <HAL_TIM_Base_Init>:
  if (htim == NULL)
 8005cb4:	b1a8      	cbz	r0, 8005ce2 <HAL_TIM_Base_Init+0x2e>
{
 8005cb6:	b510      	push	{r4, lr}
 8005cb8:	4604      	mov	r4, r0
  if (htim->State == HAL_TIM_STATE_RESET)
 8005cba:	f890 303d 	ldrb.w	r3, [r0, #61]	; 0x3d
 8005cbe:	b15b      	cbz	r3, 8005cd8 <HAL_TIM_Base_Init+0x24>
  htim->State = HAL_TIM_STATE_BUSY;
 8005cc0:	2302      	movs	r3, #2
 8005cc2:	f884 303d 	strb.w	r3, [r4, #61]	; 0x3d
  TIM_Base_SetConfig(htim->Instance, &htim->Init);
 8005cc6:	1d21      	adds	r1, r4, #4
 8005cc8:	6820      	ldr	r0, [r4, #0]
 8005cca:	f7ff ffa5 	bl	8005c18 <TIM_Base_SetConfig>
  htim->State = HAL_TIM_STATE_READY;
 8005cce:	2301      	movs	r3, #1
 8005cd0:	f884 303d 	strb.w	r3, [r4, #61]	; 0x3d
  return HAL_OK;
 8005cd4:	2000      	movs	r0, #0
}
 8005cd6:	bd10      	pop	{r4, pc}
    htim->Lock = HAL_UNLOCKED;
 8005cd8:	f880 303c 	strb.w	r3, [r0, #60]	; 0x3c
    HAL_TIM_Base_MspInit(htim);
 8005cdc:	f001 fa82 	bl	80071e4 <HAL_TIM_Base_MspInit>
 8005ce0:	e7ee      	b.n	8005cc0 <HAL_TIM_Base_Init+0xc>
    return HAL_ERROR;
 8005ce2:	2001      	movs	r0, #1
}
 8005ce4:	4770      	bx	lr

08005ce6 <HAL_TIM_PWM_Init>:
  if (htim == NULL)
 8005ce6:	b1a8      	cbz	r0, 8005d14 <HAL_TIM_PWM_Init+0x2e>
{
 8005ce8:	b510      	push	{r4, lr}
 8005cea:	4604      	mov	r4, r0
  if (htim->State == HAL_TIM_STATE_RESET)
 8005cec:	f890 303d 	ldrb.w	r3, [r0, #61]	; 0x3d
 8005cf0:	b15b      	cbz	r3, 8005d0a <HAL_TIM_PWM_Init+0x24>
  htim->State = HAL_TIM_STATE_BUSY;
 8005cf2:	2302      	movs	r3, #2
 8005cf4:	f884 303d 	strb.w	r3, [r4, #61]	; 0x3d
  TIM_Base_SetConfig(htim->Instance, &htim->Init);
 8005cf8:	1d21      	adds	r1, r4, #4
 8005cfa:	6820      	ldr	r0, [r4, #0]
 8005cfc:	f7ff ff8c 	bl	8005c18 <TIM_Base_SetConfig>
  htim->State = HAL_TIM_STATE_READY;
 8005d00:	2301      	movs	r3, #1
 8005d02:	f884 303d 	strb.w	r3, [r4, #61]	; 0x3d
  return HAL_OK;
 8005d06:	2000      	movs	r0, #0
}
 8005d08:	bd10      	pop	{r4, pc}
    htim->Lock = HAL_UNLOCKED;
 8005d0a:	f880 303c 	strb.w	r3, [r0, #60]	; 0x3c
    HAL_TIM_PWM_MspInit(htim);
 8005d0e:	f001 fa89 	bl	8007224 <HAL_TIM_PWM_MspInit>
 8005d12:	e7ee      	b.n	8005cf2 <HAL_TIM_PWM_Init+0xc>
    return HAL_ERROR;
 8005d14:	2001      	movs	r0, #1
}
 8005d16:	4770      	bx	lr

08005d18 <TIM_OC2_SetConfig>:
{
 8005d18:	b430      	push	{r4, r5}
  TIMx->CCER &= ~TIM_CCER_CC2E;
 8005d1a:	6a03      	ldr	r3, [r0, #32]
 8005d1c:	f023 0310 	bic.w	r3, r3, #16
 8005d20:	6203      	str	r3, [r0, #32]
  tmpccer = TIMx->CCER;
 8005d22:	6a03      	ldr	r3, [r0, #32]
  tmpcr2 =  TIMx->CR2;
 8005d24:	6844      	ldr	r4, [r0, #4]
  tmpccmrx = TIMx->CCMR1;
 8005d26:	6982      	ldr	r2, [r0, #24]
  tmpccmrx &= ~TIM_CCMR1_CC2S;
 8005d28:	f422 42e6 	bic.w	r2, r2, #29440	; 0x7300
  tmpccmrx |= (OC_Config->OCMode << 8U);
 8005d2c:	680d      	ldr	r5, [r1, #0]
 8005d2e:	ea42 2205 	orr.w	r2, r2, r5, lsl #8
  tmpccer &= ~TIM_CCER_CC2P;
 8005d32:	f023 0320 	bic.w	r3, r3, #32
  tmpccer |= (OC_Config->OCPolarity << 4U);
 8005d36:	688d      	ldr	r5, [r1, #8]
 8005d38:	ea43 1305 	orr.w	r3, r3, r5, lsl #4
  if (IS_TIM_CCXN_INSTANCE(TIMx, TIM_CHANNEL_2))
 8005d3c:	4d0e      	ldr	r5, [pc, #56]	; (8005d78 <TIM_OC2_SetConfig+0x60>)
 8005d3e:	42a8      	cmp	r0, r5
 8005d40:	d009      	beq.n	8005d56 <TIM_OC2_SetConfig+0x3e>
  if (IS_TIM_BREAK_INSTANCE(TIMx))
 8005d42:	4d0d      	ldr	r5, [pc, #52]	; (8005d78 <TIM_OC2_SetConfig+0x60>)
 8005d44:	42a8      	cmp	r0, r5
 8005d46:	d00e      	beq.n	8005d66 <TIM_OC2_SetConfig+0x4e>
  TIMx->CR2 = tmpcr2;
 8005d48:	6044      	str	r4, [r0, #4]
  TIMx->CCMR1 = tmpccmrx;
 8005d4a:	6182      	str	r2, [r0, #24]
  TIMx->CCR2 = OC_Config->Pulse;
 8005d4c:	684a      	ldr	r2, [r1, #4]
 8005d4e:	6382      	str	r2, [r0, #56]	; 0x38
  TIMx->CCER = tmpccer;
 8005d50:	6203      	str	r3, [r0, #32]
}
 8005d52:	bc30      	pop	{r4, r5}
 8005d54:	4770      	bx	lr
    tmpccer &= ~TIM_CCER_CC2NP;
 8005d56:	f023 0380 	bic.w	r3, r3, #128	; 0x80
    tmpccer |= (OC_Config->OCNPolarity << 4U);
 8005d5a:	68cd      	ldr	r5, [r1, #12]
 8005d5c:	ea43 1305 	orr.w	r3, r3, r5, lsl #4
    tmpccer &= ~TIM_CCER_CC2NE;
 8005d60:	f023 0340 	bic.w	r3, r3, #64	; 0x40
 8005d64:	e7ed      	b.n	8005d42 <TIM_OC2_SetConfig+0x2a>
    tmpcr2 &= ~TIM_CR2_OIS2N;
 8005d66:	f424 6440 	bic.w	r4, r4, #3072	; 0xc00
    tmpcr2 |= (OC_Config->OCIdleState << 2U);
 8005d6a:	694d      	ldr	r5, [r1, #20]
 8005d6c:	ea44 0485 	orr.w	r4, r4, r5, lsl #2
    tmpcr2 |= (OC_Config->OCNIdleState << 2U);
 8005d70:	698d      	ldr	r5, [r1, #24]
 8005d72:	ea44 0485 	orr.w	r4, r4, r5, lsl #2
 8005d76:	e7e7      	b.n	8005d48 <TIM_OC2_SetConfig+0x30>
 8005d78:	40010000 	.word	0x40010000

08005d7c <HAL_TIM_PWM_ConfigChannel>:
{
 8005d7c:	b538      	push	{r3, r4, r5, lr}
  __HAL_LOCK(htim);
 8005d7e:	f890 303c 	ldrb.w	r3, [r0, #60]	; 0x3c
 8005d82:	2b01      	cmp	r3, #1
 8005d84:	d066      	beq.n	8005e54 <HAL_TIM_PWM_ConfigChannel+0xd8>
 8005d86:	460d      	mov	r5, r1
 8005d88:	4604      	mov	r4, r0
 8005d8a:	2301      	movs	r3, #1
 8005d8c:	f880 303c 	strb.w	r3, [r0, #60]	; 0x3c
  htim->State = HAL_TIM_STATE_BUSY;
 8005d90:	2302      	movs	r3, #2
 8005d92:	f880 303d 	strb.w	r3, [r0, #61]	; 0x3d
  switch (Channel)
 8005d96:	2a0c      	cmp	r2, #12
 8005d98:	d81a      	bhi.n	8005dd0 <HAL_TIM_PWM_ConfigChannel+0x54>
 8005d9a:	e8df f002 	tbb	[pc, r2]
 8005d9e:	1907      	.short	0x1907
 8005da0:	19201919 	.word	0x19201919
 8005da4:	19341919 	.word	0x19341919
 8005da8:	1919      	.short	0x1919
 8005daa:	47          	.byte	0x47
 8005dab:	00          	.byte	0x00
      TIM_OC1_SetConfig(htim->Instance, sConfig);
 8005dac:	6800      	ldr	r0, [r0, #0]
 8005dae:	f7ff fdad 	bl	800590c <TIM_OC1_SetConfig>
      htim->Instance->CCMR1 |= TIM_CCMR1_OC1PE;
 8005db2:	6822      	ldr	r2, [r4, #0]
 8005db4:	6993      	ldr	r3, [r2, #24]
 8005db6:	f043 0308 	orr.w	r3, r3, #8
 8005dba:	6193      	str	r3, [r2, #24]
      htim->Instance->CCMR1 &= ~TIM_CCMR1_OC1FE;
 8005dbc:	6822      	ldr	r2, [r4, #0]
 8005dbe:	6993      	ldr	r3, [r2, #24]
 8005dc0:	f023 0304 	bic.w	r3, r3, #4
 8005dc4:	6193      	str	r3, [r2, #24]
      htim->Instance->CCMR1 |= sConfig->OCFastMode;
 8005dc6:	6822      	ldr	r2, [r4, #0]
 8005dc8:	6993      	ldr	r3, [r2, #24]
 8005dca:	6929      	ldr	r1, [r5, #16]
 8005dcc:	430b      	orrs	r3, r1
 8005dce:	6193      	str	r3, [r2, #24]
  htim->State = HAL_TIM_STATE_READY;
 8005dd0:	2301      	movs	r3, #1
 8005dd2:	f884 303d 	strb.w	r3, [r4, #61]	; 0x3d
  __HAL_UNLOCK(htim);
 8005dd6:	2000      	movs	r0, #0
 8005dd8:	f884 003c 	strb.w	r0, [r4, #60]	; 0x3c
}
 8005ddc:	bd38      	pop	{r3, r4, r5, pc}
      TIM_OC2_SetConfig(htim->Instance, sConfig);
 8005dde:	6800      	ldr	r0, [r0, #0]
 8005de0:	f7ff ff9a 	bl	8005d18 <TIM_OC2_SetConfig>
      htim->Instance->CCMR1 |= TIM_CCMR1_OC2PE;
 8005de4:	6822      	ldr	r2, [r4, #0]
 8005de6:	6993      	ldr	r3, [r2, #24]
 8005de8:	f443 6300 	orr.w	r3, r3, #2048	; 0x800
 8005dec:	6193      	str	r3, [r2, #24]
      htim->Instance->CCMR1 &= ~TIM_CCMR1_OC2FE;
 8005dee:	6822      	ldr	r2, [r4, #0]
 8005df0:	6993      	ldr	r3, [r2, #24]
 8005df2:	f423 6380 	bic.w	r3, r3, #1024	; 0x400
 8005df6:	6193      	str	r3, [r2, #24]
      htim->Instance->CCMR1 |= sConfig->OCFastMode << 8U;
 8005df8:	6822      	ldr	r2, [r4, #0]
 8005dfa:	6993      	ldr	r3, [r2, #24]
 8005dfc:	6929      	ldr	r1, [r5, #16]
 8005dfe:	ea43 2301 	orr.w	r3, r3, r1, lsl #8
 8005e02:	6193      	str	r3, [r2, #24]
      break;
 8005e04:	e7e4      	b.n	8005dd0 <HAL_TIM_PWM_ConfigChannel+0x54>
      TIM_OC3_SetConfig(htim->Instance, sConfig);
 8005e06:	6800      	ldr	r0, [r0, #0]
 8005e08:	f7ff fdae 	bl	8005968 <TIM_OC3_SetConfig>
      htim->Instance->CCMR2 |= TIM_CCMR2_OC3PE;
 8005e0c:	6822      	ldr	r2, [r4, #0]
 8005e0e:	69d3      	ldr	r3, [r2, #28]
 8005e10:	f043 0308 	orr.w	r3, r3, #8
 8005e14:	61d3      	str	r3, [r2, #28]
      htim->Instance->CCMR2 &= ~TIM_CCMR2_OC3FE;
 8005e16:	6822      	ldr	r2, [r4, #0]
 8005e18:	69d3      	ldr	r3, [r2, #28]
 8005e1a:	f023 0304 	bic.w	r3, r3, #4
 8005e1e:	61d3      	str	r3, [r2, #28]
      htim->Instance->CCMR2 |= sConfig->OCFastMode;
 8005e20:	6822      	ldr	r2, [r4, #0]
 8005e22:	69d3      	ldr	r3, [r2, #28]
 8005e24:	6929      	ldr	r1, [r5, #16]
 8005e26:	430b      	orrs	r3, r1
 8005e28:	61d3      	str	r3, [r2, #28]
      break;
 8005e2a:	e7d1      	b.n	8005dd0 <HAL_TIM_PWM_ConfigChannel+0x54>
      TIM_OC4_SetConfig(htim->Instance, sConfig);
 8005e2c:	6800      	ldr	r0, [r0, #0]
 8005e2e:	f7ff fdcd 	bl	80059cc <TIM_OC4_SetConfig>
      htim->Instance->CCMR2 |= TIM_CCMR2_OC4PE;
 8005e32:	6822      	ldr	r2, [r4, #0]
 8005e34:	69d3      	ldr	r3, [r2, #28]
 8005e36:	f443 6300 	orr.w	r3, r3, #2048	; 0x800
 8005e3a:	61d3      	str	r3, [r2, #28]
      htim->Instance->CCMR2 &= ~TIM_CCMR2_OC4FE;
 8005e3c:	6822      	ldr	r2, [r4, #0]
 8005e3e:	69d3      	ldr	r3, [r2, #28]
 8005e40:	f423 6380 	bic.w	r3, r3, #1024	; 0x400
 8005e44:	61d3      	str	r3, [r2, #28]
      htim->Instance->CCMR2 |= sConfig->OCFastMode << 8U;
 8005e46:	6822      	ldr	r2, [r4, #0]
 8005e48:	69d3      	ldr	r3, [r2, #28]
 8005e4a:	6929      	ldr	r1, [r5, #16]
 8005e4c:	ea43 2301 	orr.w	r3, r3, r1, lsl #8
 8005e50:	61d3      	str	r3, [r2, #28]
      break;
 8005e52:	e7bd      	b.n	8005dd0 <HAL_TIM_PWM_ConfigChannel+0x54>
  __HAL_LOCK(htim);
 8005e54:	2002      	movs	r0, #2
 8005e56:	e7c1      	b.n	8005ddc <HAL_TIM_PWM_ConfigChannel+0x60>

08005e58 <TIM_ETR_SetConfig>:
  *          This parameter must be a value between 0x00 and 0x0F
  * @retval None
  */
void TIM_ETR_SetConfig(TIM_TypeDef *TIMx, uint32_t TIM_ExtTRGPrescaler,
                       uint32_t TIM_ExtTRGPolarity, uint32_t ExtTRGFilter)
{
 8005e58:	b410      	push	{r4}
  uint32_t tmpsmcr;

  tmpsmcr = TIMx->SMCR;
 8005e5a:	6884      	ldr	r4, [r0, #8]

  /* Reset the ETR Bits */
  tmpsmcr &= ~(TIM_SMCR_ETF | TIM_SMCR_ETPS | TIM_SMCR_ECE | TIM_SMCR_ETP);
 8005e5c:	f424 447f 	bic.w	r4, r4, #65280	; 0xff00

  /* Set the Prescaler, the Filter value and the Polarity */
  tmpsmcr |= (uint32_t)(TIM_ExtTRGPrescaler | (TIM_ExtTRGPolarity | (ExtTRGFilter << 8U)));
 8005e60:	ea42 2303 	orr.w	r3, r2, r3, lsl #8
 8005e64:	430b      	orrs	r3, r1
 8005e66:	4323      	orrs	r3, r4

  /* Write to TIMx SMCR */
  TIMx->SMCR = tmpsmcr;
 8005e68:	6083      	str	r3, [r0, #8]
}
 8005e6a:	f85d 4b04 	ldr.w	r4, [sp], #4
 8005e6e:	4770      	bx	lr

08005e70 <HAL_TIM_ConfigClockSource>:
  __HAL_LOCK(htim);
 8005e70:	f890 303c 	ldrb.w	r3, [r0, #60]	; 0x3c
 8005e74:	2b01      	cmp	r3, #1
 8005e76:	d066      	beq.n	8005f46 <HAL_TIM_ConfigClockSource+0xd6>
{
 8005e78:	b510      	push	{r4, lr}
 8005e7a:	4604      	mov	r4, r0
  __HAL_LOCK(htim);
 8005e7c:	2301      	movs	r3, #1
 8005e7e:	f880 303c 	strb.w	r3, [r0, #60]	; 0x3c
  htim->State = HAL_TIM_STATE_BUSY;
 8005e82:	2302      	movs	r3, #2
 8005e84:	f880 303d 	strb.w	r3, [r0, #61]	; 0x3d
  tmpsmcr = htim->Instance->SMCR;
 8005e88:	6802      	ldr	r2, [r0, #0]
 8005e8a:	6893      	ldr	r3, [r2, #8]
  tmpsmcr &= ~(TIM_SMCR_ETF | TIM_SMCR_ETPS | TIM_SMCR_ECE | TIM_SMCR_ETP);
 8005e8c:	f423 437f 	bic.w	r3, r3, #65280	; 0xff00
 8005e90:	f023 0377 	bic.w	r3, r3, #119	; 0x77
  htim->Instance->SMCR = tmpsmcr;
 8005e94:	6093      	str	r3, [r2, #8]
  switch (sClockSourceConfig->ClockSource)
 8005e96:	680b      	ldr	r3, [r1, #0]
 8005e98:	2b40      	cmp	r3, #64	; 0x40
 8005e9a:	d04a      	beq.n	8005f32 <HAL_TIM_ConfigClockSource+0xc2>
 8005e9c:	d913      	bls.n	8005ec6 <HAL_TIM_ConfigClockSource+0x56>
 8005e9e:	2b60      	cmp	r3, #96	; 0x60
 8005ea0:	d03d      	beq.n	8005f1e <HAL_TIM_ConfigClockSource+0xae>
 8005ea2:	d91e      	bls.n	8005ee2 <HAL_TIM_ConfigClockSource+0x72>
 8005ea4:	2b70      	cmp	r3, #112	; 0x70
 8005ea6:	d028      	beq.n	8005efa <HAL_TIM_ConfigClockSource+0x8a>
 8005ea8:	f5b3 5f00 	cmp.w	r3, #8192	; 0x2000
 8005eac:	d130      	bne.n	8005f10 <HAL_TIM_ConfigClockSource+0xa0>
      TIM_ETR_SetConfig(htim->Instance,
 8005eae:	68cb      	ldr	r3, [r1, #12]
 8005eb0:	684a      	ldr	r2, [r1, #4]
 8005eb2:	6889      	ldr	r1, [r1, #8]
 8005eb4:	6800      	ldr	r0, [r0, #0]
 8005eb6:	f7ff ffcf 	bl	8005e58 <TIM_ETR_SetConfig>
      htim->Instance->SMCR |= TIM_SMCR_ECE;
 8005eba:	6822      	ldr	r2, [r4, #0]
 8005ebc:	6893      	ldr	r3, [r2, #8]
 8005ebe:	f443 4380 	orr.w	r3, r3, #16384	; 0x4000
 8005ec2:	6093      	str	r3, [r2, #8]
      break;
 8005ec4:	e024      	b.n	8005f10 <HAL_TIM_ConfigClockSource+0xa0>
  switch (sClockSourceConfig->ClockSource)
 8005ec6:	2b10      	cmp	r3, #16
 8005ec8:	d006      	beq.n	8005ed8 <HAL_TIM_ConfigClockSource+0x68>
 8005eca:	d904      	bls.n	8005ed6 <HAL_TIM_ConfigClockSource+0x66>
 8005ecc:	2b20      	cmp	r3, #32
 8005ece:	d003      	beq.n	8005ed8 <HAL_TIM_ConfigClockSource+0x68>
 8005ed0:	2b30      	cmp	r3, #48	; 0x30
 8005ed2:	d001      	beq.n	8005ed8 <HAL_TIM_ConfigClockSource+0x68>
 8005ed4:	e01c      	b.n	8005f10 <HAL_TIM_ConfigClockSource+0xa0>
 8005ed6:	b9db      	cbnz	r3, 8005f10 <HAL_TIM_ConfigClockSource+0xa0>
      TIM_ITRx_SetConfig(htim->Instance, sClockSourceConfig->ClockSource);
 8005ed8:	4619      	mov	r1, r3
 8005eda:	6820      	ldr	r0, [r4, #0]
 8005edc:	f7ff fdc1 	bl	8005a62 <TIM_ITRx_SetConfig>
      break;
 8005ee0:	e016      	b.n	8005f10 <HAL_TIM_ConfigClockSource+0xa0>
  switch (sClockSourceConfig->ClockSource)
 8005ee2:	2b50      	cmp	r3, #80	; 0x50
 8005ee4:	d114      	bne.n	8005f10 <HAL_TIM_ConfigClockSource+0xa0>
      TIM_TI1_ConfigInputStage(htim->Instance,
 8005ee6:	68ca      	ldr	r2, [r1, #12]
 8005ee8:	6849      	ldr	r1, [r1, #4]
 8005eea:	6800      	ldr	r0, [r0, #0]
 8005eec:	f7ff fd92 	bl	8005a14 <TIM_TI1_ConfigInputStage>
      TIM_ITRx_SetConfig(htim->Instance, TIM_CLOCKSOURCE_TI1);
 8005ef0:	2150      	movs	r1, #80	; 0x50
 8005ef2:	6820      	ldr	r0, [r4, #0]
 8005ef4:	f7ff fdb5 	bl	8005a62 <TIM_ITRx_SetConfig>
      break;
 8005ef8:	e00a      	b.n	8005f10 <HAL_TIM_ConfigClockSource+0xa0>
      TIM_ETR_SetConfig(htim->Instance,
 8005efa:	68cb      	ldr	r3, [r1, #12]
 8005efc:	684a      	ldr	r2, [r1, #4]
 8005efe:	6889      	ldr	r1, [r1, #8]
 8005f00:	6800      	ldr	r0, [r0, #0]
 8005f02:	f7ff ffa9 	bl	8005e58 <TIM_ETR_SetConfig>
      tmpsmcr = htim->Instance->SMCR;
 8005f06:	6822      	ldr	r2, [r4, #0]
 8005f08:	6893      	ldr	r3, [r2, #8]
      tmpsmcr |= (TIM_SLAVEMODE_EXTERNAL1 | TIM_CLOCKSOURCE_ETRMODE1);
 8005f0a:	f043 0377 	orr.w	r3, r3, #119	; 0x77
      htim->Instance->SMCR = tmpsmcr;
 8005f0e:	6093      	str	r3, [r2, #8]
  htim->State = HAL_TIM_STATE_READY;
 8005f10:	2301      	movs	r3, #1
 8005f12:	f884 303d 	strb.w	r3, [r4, #61]	; 0x3d
  __HAL_UNLOCK(htim);
 8005f16:	2000      	movs	r0, #0
 8005f18:	f884 003c 	strb.w	r0, [r4, #60]	; 0x3c
}
 8005f1c:	bd10      	pop	{r4, pc}
      TIM_TI2_ConfigInputStage(htim->Instance,
 8005f1e:	68ca      	ldr	r2, [r1, #12]
 8005f20:	6849      	ldr	r1, [r1, #4]
 8005f22:	6800      	ldr	r0, [r0, #0]
 8005f24:	f7ff fd89 	bl	8005a3a <TIM_TI2_ConfigInputStage>
      TIM_ITRx_SetConfig(htim->Instance, TIM_CLOCKSOURCE_TI2);
 8005f28:	2160      	movs	r1, #96	; 0x60
 8005f2a:	6820      	ldr	r0, [r4, #0]
 8005f2c:	f7ff fd99 	bl	8005a62 <TIM_ITRx_SetConfig>
      break;
 8005f30:	e7ee      	b.n	8005f10 <HAL_TIM_ConfigClockSource+0xa0>
      TIM_TI1_ConfigInputStage(htim->Instance,
 8005f32:	68ca      	ldr	r2, [r1, #12]
 8005f34:	6849      	ldr	r1, [r1, #4]
 8005f36:	6800      	ldr	r0, [r0, #0]
 8005f38:	f7ff fd6c 	bl	8005a14 <TIM_TI1_ConfigInputStage>
      TIM_ITRx_SetConfig(htim->Instance, TIM_CLOCKSOURCE_TI1ED);
 8005f3c:	2140      	movs	r1, #64	; 0x40
 8005f3e:	6820      	ldr	r0, [r4, #0]
 8005f40:	f7ff fd8f 	bl	8005a62 <TIM_ITRx_SetConfig>
      break;
 8005f44:	e7e4      	b.n	8005f10 <HAL_TIM_ConfigClockSource+0xa0>
  __HAL_LOCK(htim);
 8005f46:	2002      	movs	r0, #2
}
 8005f48:	4770      	bx	lr

08005f4a <TIM_CCxChannelCmd>:
  * @param  ChannelState specifies the TIM Channel CCxE bit new state.
  *          This parameter can be: TIM_CCx_ENABLE or TIM_CCx_DISABLE.
  * @retval None
  */
void TIM_CCxChannelCmd(TIM_TypeDef *TIMx, uint32_t Channel, uint32_t ChannelState)
{
 8005f4a:	b410      	push	{r4}

  /* Check the parameters */
  assert_param(IS_TIM_CC1_INSTANCE(TIMx));
  assert_param(IS_TIM_CHANNELS(Channel));

  tmp = TIM_CCER_CC1E << (Channel & 0x1FU); /* 0x1FU = 31 bits max shift */
 8005f4c:	f001 011f 	and.w	r1, r1, #31
 8005f50:	2301      	movs	r3, #1
 8005f52:	fa03 f401 	lsl.w	r4, r3, r1

  /* Reset the CCxE Bit */
  TIMx->CCER &= ~tmp;
 8005f56:	6a03      	ldr	r3, [r0, #32]
 8005f58:	ea23 0304 	bic.w	r3, r3, r4
 8005f5c:	6203      	str	r3, [r0, #32]

  /* Set or reset the CCxE Bit */
  TIMx->CCER |= (uint32_t)(ChannelState << (Channel & 0x1FU)); /* 0x1FU = 31 bits max shift */
 8005f5e:	6a03      	ldr	r3, [r0, #32]
 8005f60:	408a      	lsls	r2, r1
 8005f62:	4313      	orrs	r3, r2
 8005f64:	6203      	str	r3, [r0, #32]
}
 8005f66:	f85d 4b04 	ldr.w	r4, [sp], #4
 8005f6a:	4770      	bx	lr

08005f6c <HAL_TIM_PWM_Start_IT>:
{
 8005f6c:	b510      	push	{r4, lr}
 8005f6e:	4604      	mov	r4, r0
  switch (Channel)
 8005f70:	290c      	cmp	r1, #12
 8005f72:	d80d      	bhi.n	8005f90 <HAL_TIM_PWM_Start_IT+0x24>
 8005f74:	e8df f001 	tbb	[pc, r1]
 8005f78:	0c0c0c07 	.word	0x0c0c0c07
 8005f7c:	0c0c0c20 	.word	0x0c0c0c20
 8005f80:	0c0c0c26 	.word	0x0c0c0c26
 8005f84:	2c          	.byte	0x2c
 8005f85:	00          	.byte	0x00
      __HAL_TIM_ENABLE_IT(htim, TIM_IT_CC1);
 8005f86:	6802      	ldr	r2, [r0, #0]
 8005f88:	68d3      	ldr	r3, [r2, #12]
 8005f8a:	f043 0302 	orr.w	r3, r3, #2
 8005f8e:	60d3      	str	r3, [r2, #12]
  TIM_CCxChannelCmd(htim->Instance, Channel, TIM_CCx_ENABLE);
 8005f90:	2201      	movs	r2, #1
 8005f92:	6820      	ldr	r0, [r4, #0]
 8005f94:	f7ff ffd9 	bl	8005f4a <TIM_CCxChannelCmd>
  if (IS_TIM_BREAK_INSTANCE(htim->Instance) != RESET)
 8005f98:	6823      	ldr	r3, [r4, #0]
 8005f9a:	4a13      	ldr	r2, [pc, #76]	; (8005fe8 <HAL_TIM_PWM_Start_IT+0x7c>)
 8005f9c:	4293      	cmp	r3, r2
 8005f9e:	d01d      	beq.n	8005fdc <HAL_TIM_PWM_Start_IT+0x70>
  tmpsmcr = htim->Instance->SMCR & TIM_SMCR_SMS;
 8005fa0:	6822      	ldr	r2, [r4, #0]
 8005fa2:	6893      	ldr	r3, [r2, #8]
 8005fa4:	f003 0307 	and.w	r3, r3, #7
  if (!IS_TIM_SLAVEMODE_TRIGGER_ENABLED(tmpsmcr))
 8005fa8:	2b06      	cmp	r3, #6
 8005faa:	d003      	beq.n	8005fb4 <HAL_TIM_PWM_Start_IT+0x48>
    __HAL_TIM_ENABLE(htim);
 8005fac:	6813      	ldr	r3, [r2, #0]
 8005fae:	f043 0301 	orr.w	r3, r3, #1
 8005fb2:	6013      	str	r3, [r2, #0]
}
 8005fb4:	2000      	movs	r0, #0
 8005fb6:	bd10      	pop	{r4, pc}
      __HAL_TIM_ENABLE_IT(htim, TIM_IT_CC2);
 8005fb8:	6802      	ldr	r2, [r0, #0]
 8005fba:	68d3      	ldr	r3, [r2, #12]
 8005fbc:	f043 0304 	orr.w	r3, r3, #4
 8005fc0:	60d3      	str	r3, [r2, #12]
      break;
 8005fc2:	e7e5      	b.n	8005f90 <HAL_TIM_PWM_Start_IT+0x24>
      __HAL_TIM_ENABLE_IT(htim, TIM_IT_CC3);
 8005fc4:	6802      	ldr	r2, [r0, #0]
 8005fc6:	68d3      	ldr	r3, [r2, #12]
 8005fc8:	f043 0308 	orr.w	r3, r3, #8
 8005fcc:	60d3      	str	r3, [r2, #12]
      break;
 8005fce:	e7df      	b.n	8005f90 <HAL_TIM_PWM_Start_IT+0x24>
      __HAL_TIM_ENABLE_IT(htim, TIM_IT_CC4);
 8005fd0:	6802      	ldr	r2, [r0, #0]
 8005fd2:	68d3      	ldr	r3, [r2, #12]
 8005fd4:	f043 0310 	orr.w	r3, r3, #16
 8005fd8:	60d3      	str	r3, [r2, #12]
      break;
 8005fda:	e7d9      	b.n	8005f90 <HAL_TIM_PWM_Start_IT+0x24>
    __HAL_TIM_MOE_ENABLE(htim);
 8005fdc:	6c5a      	ldr	r2, [r3, #68]	; 0x44
 8005fde:	f442 4200 	orr.w	r2, r2, #32768	; 0x8000
 8005fe2:	645a      	str	r2, [r3, #68]	; 0x44
 8005fe4:	e7dc      	b.n	8005fa0 <HAL_TIM_PWM_Start_IT+0x34>
 8005fe6:	bf00      	nop
 8005fe8:	40010000 	.word	0x40010000

08005fec <HAL_TIMEx_MasterConfigSynchronization>:
  assert_param(IS_TIM_SYNCHRO_INSTANCE(htim->Instance));
  assert_param(IS_TIM_TRGO_SOURCE(sMasterConfig->MasterOutputTrigger));
  assert_param(IS_TIM_MSM_STATE(sMasterConfig->MasterSlaveMode));

  /* Check input state */
  __HAL_LOCK(htim);
 8005fec:	f890 303c 	ldrb.w	r3, [r0, #60]	; 0x3c
 8005ff0:	2b01      	cmp	r3, #1
 8005ff2:	d01c      	beq.n	800602e <HAL_TIMEx_MasterConfigSynchronization+0x42>
{
 8005ff4:	b470      	push	{r4, r5, r6}
  __HAL_LOCK(htim);
 8005ff6:	2601      	movs	r6, #1
 8005ff8:	f880 603c 	strb.w	r6, [r0, #60]	; 0x3c

  /* Change the handler state */
  htim->State = HAL_TIM_STATE_BUSY;
 8005ffc:	2302      	movs	r3, #2
 8005ffe:	f880 303d 	strb.w	r3, [r0, #61]	; 0x3d

  /* Get the TIMx CR2 register value */
  tmpcr2 = htim->Instance->CR2;
 8006002:	6802      	ldr	r2, [r0, #0]
 8006004:	6855      	ldr	r5, [r2, #4]

  /* Get the TIMx SMCR register value */
  tmpsmcr = htim->Instance->SMCR;
 8006006:	6893      	ldr	r3, [r2, #8]

  /* Reset the MMS Bits */
  tmpcr2 &= ~TIM_CR2_MMS;
 8006008:	f025 0570 	bic.w	r5, r5, #112	; 0x70
  /* Select the TRGO source */
  tmpcr2 |=  sMasterConfig->MasterOutputTrigger;
 800600c:	680c      	ldr	r4, [r1, #0]
 800600e:	432c      	orrs	r4, r5

  /* Reset the MSM Bit */
  tmpsmcr &= ~TIM_SMCR_MSM;
 8006010:	f023 0580 	bic.w	r5, r3, #128	; 0x80
  /* Set master mode */
  tmpsmcr |= sMasterConfig->MasterSlaveMode;
 8006014:	684b      	ldr	r3, [r1, #4]
 8006016:	432b      	orrs	r3, r5

  /* Update TIMx CR2 */
  htim->Instance->CR2 = tmpcr2;
 8006018:	6054      	str	r4, [r2, #4]

  /* Update TIMx SMCR */
  htim->Instance->SMCR = tmpsmcr;
 800601a:	6802      	ldr	r2, [r0, #0]
 800601c:	6093      	str	r3, [r2, #8]

  /* Change the htim state */
  htim->State = HAL_TIM_STATE_READY;
 800601e:	f880 603d 	strb.w	r6, [r0, #61]	; 0x3d

  __HAL_UNLOCK(htim);
 8006022:	2300      	movs	r3, #0
 8006024:	f880 303c 	strb.w	r3, [r0, #60]	; 0x3c

  return HAL_OK;
 8006028:	4618      	mov	r0, r3
}
 800602a:	bc70      	pop	{r4, r5, r6}
 800602c:	4770      	bx	lr
  __HAL_LOCK(htim);
 800602e:	2002      	movs	r0, #2
}
 8006030:	4770      	bx	lr

08006032 <HAL_TIMEx_CommutCallback>:
  UNUSED(htim);

  /* NOTE : This function should not be modified, when the callback is needed,
            the HAL_TIMEx_CommutCallback could be implemented in the user file
   */
}
 8006032:	4770      	bx	lr

08006034 <HAL_TIMEx_BreakCallback>:
  UNUSED(htim);

  /* NOTE : This function should not be modified, when the callback is needed,
            the HAL_TIMEx_BreakCallback could be implemented in the user file
   */
}
 8006034:	4770      	bx	lr

08006036 <UART_EndRxTransfer>:
  * @retval None
  */
static void UART_EndRxTransfer(UART_HandleTypeDef *huart)
{
  /* Disable RXNE, PE and ERR (Frame error, noise error, overrun error) interrupts */
  CLEAR_BIT(huart->Instance->CR1, (USART_CR1_RXNEIE | USART_CR1_PEIE));
 8006036:	6802      	ldr	r2, [r0, #0]
 8006038:	68d3      	ldr	r3, [r2, #12]
 800603a:	f423 7390 	bic.w	r3, r3, #288	; 0x120
 800603e:	60d3      	str	r3, [r2, #12]
  CLEAR_BIT(huart->Instance->CR3, USART_CR3_EIE);
 8006040:	6802      	ldr	r2, [r0, #0]
 8006042:	6953      	ldr	r3, [r2, #20]
 8006044:	f023 0301 	bic.w	r3, r3, #1
 8006048:	6153      	str	r3, [r2, #20]

  /* At end of Rx process, restore huart->RxState to Ready */
  huart->RxState = HAL_UART_STATE_READY;
 800604a:	2320      	movs	r3, #32
 800604c:	f880 303a 	strb.w	r3, [r0, #58]	; 0x3a
}
 8006050:	4770      	bx	lr

08006052 <UART_Transmit_IT>:
static HAL_StatusTypeDef UART_Transmit_IT(UART_HandleTypeDef *huart)
{
  uint16_t *tmp;

  /* Check that a Tx process is ongoing */
  if (huart->gState == HAL_UART_STATE_BUSY_TX)
 8006052:	f890 3039 	ldrb.w	r3, [r0, #57]	; 0x39
 8006056:	b2db      	uxtb	r3, r3
 8006058:	2b21      	cmp	r3, #33	; 0x21
 800605a:	d12a      	bne.n	80060b2 <UART_Transmit_IT+0x60>
  {
    if (huart->Init.WordLength == UART_WORDLENGTH_9B)
 800605c:	6883      	ldr	r3, [r0, #8]
 800605e:	f5b3 5f80 	cmp.w	r3, #4096	; 0x1000
 8006062:	d016      	beq.n	8006092 <UART_Transmit_IT+0x40>
        huart->pTxBuffPtr += 1U;
      }
    }
    else
    {
      huart->Instance->DR = (uint8_t)(*huart->pTxBuffPtr++ & (uint8_t)0x00FF);
 8006064:	6a03      	ldr	r3, [r0, #32]
 8006066:	1c5a      	adds	r2, r3, #1
 8006068:	6202      	str	r2, [r0, #32]
 800606a:	781a      	ldrb	r2, [r3, #0]
 800606c:	6803      	ldr	r3, [r0, #0]
 800606e:	605a      	str	r2, [r3, #4]
    }

    if (--huart->TxXferCount == 0U)
 8006070:	8cc3      	ldrh	r3, [r0, #38]	; 0x26
 8006072:	3b01      	subs	r3, #1
 8006074:	b29b      	uxth	r3, r3
 8006076:	84c3      	strh	r3, [r0, #38]	; 0x26
 8006078:	b9eb      	cbnz	r3, 80060b6 <UART_Transmit_IT+0x64>
    {
      /* Disable the UART Transmit Complete Interrupt */
      __HAL_UART_DISABLE_IT(huart, UART_IT_TXE);
 800607a:	6802      	ldr	r2, [r0, #0]
 800607c:	68d3      	ldr	r3, [r2, #12]
 800607e:	f023 0380 	bic.w	r3, r3, #128	; 0x80
 8006082:	60d3      	str	r3, [r2, #12]

      /* Enable the UART Transmit Complete Interrupt */
      __HAL_UART_ENABLE_IT(huart, UART_IT_TC);
 8006084:	6802      	ldr	r2, [r0, #0]
 8006086:	68d3      	ldr	r3, [r2, #12]
 8006088:	f043 0340 	orr.w	r3, r3, #64	; 0x40
 800608c:	60d3      	str	r3, [r2, #12]
    }
    return HAL_OK;
 800608e:	2000      	movs	r0, #0
 8006090:	4770      	bx	lr
      tmp = (uint16_t *) huart->pTxBuffPtr;
 8006092:	6a03      	ldr	r3, [r0, #32]
      huart->Instance->DR = (uint16_t)(*tmp & (uint16_t)0x01FF);
 8006094:	881b      	ldrh	r3, [r3, #0]
 8006096:	6802      	ldr	r2, [r0, #0]
 8006098:	f3c3 0308 	ubfx	r3, r3, #0, #9
 800609c:	6053      	str	r3, [r2, #4]
      if (huart->Init.Parity == UART_PARITY_NONE)
 800609e:	6903      	ldr	r3, [r0, #16]
 80060a0:	b91b      	cbnz	r3, 80060aa <UART_Transmit_IT+0x58>
        huart->pTxBuffPtr += 2U;
 80060a2:	6a03      	ldr	r3, [r0, #32]
 80060a4:	3302      	adds	r3, #2
 80060a6:	6203      	str	r3, [r0, #32]
 80060a8:	e7e2      	b.n	8006070 <UART_Transmit_IT+0x1e>
        huart->pTxBuffPtr += 1U;
 80060aa:	6a03      	ldr	r3, [r0, #32]
 80060ac:	3301      	adds	r3, #1
 80060ae:	6203      	str	r3, [r0, #32]
 80060b0:	e7de      	b.n	8006070 <UART_Transmit_IT+0x1e>
  }
  else
  {
    return HAL_BUSY;
 80060b2:	2002      	movs	r0, #2
 80060b4:	4770      	bx	lr
    return HAL_OK;
 80060b6:	2000      	movs	r0, #0
  }
}
 80060b8:	4770      	bx	lr
	...

080060bc <UART_SetConfig>:
  * @param  huart  Pointer to a UART_HandleTypeDef structure that contains
  *                the configuration information for the specified UART module.
  * @retval None
  */
static void UART_SetConfig(UART_HandleTypeDef *huart)
{
 80060bc:	e92d 43f8 	stmdb	sp!, {r3, r4, r5, r6, r7, r8, r9, lr}
 80060c0:	4604      	mov	r4, r0
  assert_param(IS_UART_MODE(huart->Init.Mode));

  /*-------------------------- USART CR2 Configuration -----------------------*/
  /* Configure the UART Stop Bits: Set STOP[13:12] bits
     according to huart->Init.StopBits value */
  MODIFY_REG(huart->Instance->CR2, USART_CR2_STOP, huart->Init.StopBits);
 80060c2:	6802      	ldr	r2, [r0, #0]
 80060c4:	6913      	ldr	r3, [r2, #16]
 80060c6:	f423 5340 	bic.w	r3, r3, #12288	; 0x3000
 80060ca:	68c1      	ldr	r1, [r0, #12]
 80060cc:	430b      	orrs	r3, r1
 80060ce:	6113      	str	r3, [r2, #16]
     Set the M bits according to huart->Init.WordLength value
     Set PCE and PS bits according to huart->Init.Parity value
     Set TE and RE bits according to huart->Init.Mode value
     Set OVER8 bit according to huart->Init.OverSampling value */

  tmpreg = (uint32_t)huart->Init.WordLength | huart->Init.Parity | huart->Init.Mode | huart->Init.OverSampling;
 80060d0:	6883      	ldr	r3, [r0, #8]
 80060d2:	6902      	ldr	r2, [r0, #16]
 80060d4:	4313      	orrs	r3, r2
 80060d6:	6942      	ldr	r2, [r0, #20]
 80060d8:	4313      	orrs	r3, r2
 80060da:	69c2      	ldr	r2, [r0, #28]
 80060dc:	431a      	orrs	r2, r3
  MODIFY_REG(huart->Instance->CR1,
 80060de:	6801      	ldr	r1, [r0, #0]
 80060e0:	68cb      	ldr	r3, [r1, #12]
 80060e2:	f423 4316 	bic.w	r3, r3, #38400	; 0x9600
 80060e6:	f023 030c 	bic.w	r3, r3, #12
 80060ea:	4313      	orrs	r3, r2
 80060ec:	60cb      	str	r3, [r1, #12]
             (uint32_t)(USART_CR1_M | USART_CR1_PCE | USART_CR1_PS | USART_CR1_TE | USART_CR1_RE | USART_CR1_OVER8),
             tmpreg);

  /*-------------------------- USART CR3 Configuration -----------------------*/
  /* Configure the UART HFC: Set CTSE and RTSE bits according to huart->Init.HwFlowCtl value */
  MODIFY_REG(huart->Instance->CR3, (USART_CR3_RTSE | USART_CR3_CTSE), huart->Init.HwFlowCtl);
 80060ee:	6802      	ldr	r2, [r0, #0]
 80060f0:	6953      	ldr	r3, [r2, #20]
 80060f2:	f423 7340 	bic.w	r3, r3, #768	; 0x300
 80060f6:	6981      	ldr	r1, [r0, #24]
 80060f8:	430b      	orrs	r3, r1
 80060fa:	6153      	str	r3, [r2, #20]

  /* Check the Over Sampling */
  if (huart->Init.OverSampling == UART_OVERSAMPLING_8)
 80060fc:	69c3      	ldr	r3, [r0, #28]
 80060fe:	f5b3 4f00 	cmp.w	r3, #32768	; 0x8000
 8006102:	d060      	beq.n	80061c6 <UART_SetConfig+0x10a>
  }
  else
  {
    /*-------------------------- USART BRR Configuration ---------------------*/
#if defined(USART6)
    if ((huart->Instance == USART1) || (huart->Instance == USART6))
 8006104:	6803      	ldr	r3, [r0, #0]
 8006106:	4ab8      	ldr	r2, [pc, #736]	; (80063e8 <UART_SetConfig+0x32c>)
 8006108:	4293      	cmp	r3, r2
 800610a:	f000 8114 	beq.w	8006336 <UART_SetConfig+0x27a>
 800610e:	f502 6280 	add.w	r2, r2, #1024	; 0x400
 8006112:	4293      	cmp	r3, r2
 8006114:	f000 810f 	beq.w	8006336 <UART_SetConfig+0x27a>
      huart->Instance->BRR = UART_BRR_SAMPLING16(HAL_RCC_GetPCLK2Freq(), huart->Init.BaudRate);
    }
#endif /* USART6 */
    else
    {
      huart->Instance->BRR = UART_BRR_SAMPLING16(HAL_RCC_GetPCLK1Freq(), huart->Init.BaudRate);
 8006118:	f7ff f83a 	bl	8005190 <HAL_RCC_GetPCLK1Freq>
 800611c:	eb00 0080 	add.w	r0, r0, r0, lsl #2
 8006120:	eb00 0080 	add.w	r0, r0, r0, lsl #2
 8006124:	6865      	ldr	r5, [r4, #4]
 8006126:	00ad      	lsls	r5, r5, #2
 8006128:	fbb0 f5f5 	udiv	r5, r0, r5
 800612c:	4faf      	ldr	r7, [pc, #700]	; (80063ec <UART_SetConfig+0x330>)
 800612e:	fba7 3505 	umull	r3, r5, r7, r5
 8006132:	096d      	lsrs	r5, r5, #5
 8006134:	012e      	lsls	r6, r5, #4
 8006136:	f7ff f82b 	bl	8005190 <HAL_RCC_GetPCLK1Freq>
 800613a:	eb00 0080 	add.w	r0, r0, r0, lsl #2
 800613e:	eb00 0080 	add.w	r0, r0, r0, lsl #2
 8006142:	6865      	ldr	r5, [r4, #4]
 8006144:	00ad      	lsls	r5, r5, #2
 8006146:	fbb0 f9f5 	udiv	r9, r0, r5
 800614a:	f7ff f821 	bl	8005190 <HAL_RCC_GetPCLK1Freq>
 800614e:	eb00 0080 	add.w	r0, r0, r0, lsl #2
 8006152:	eb00 0080 	add.w	r0, r0, r0, lsl #2
 8006156:	6865      	ldr	r5, [r4, #4]
 8006158:	00ad      	lsls	r5, r5, #2
 800615a:	fbb0 f5f5 	udiv	r5, r0, r5
 800615e:	fba7 3505 	umull	r3, r5, r7, r5
 8006162:	096d      	lsrs	r5, r5, #5
 8006164:	f04f 0864 	mov.w	r8, #100	; 0x64
 8006168:	fb08 9515 	mls	r5, r8, r5, r9
 800616c:	012d      	lsls	r5, r5, #4
 800616e:	3532      	adds	r5, #50	; 0x32
 8006170:	fba7 3505 	umull	r3, r5, r7, r5
 8006174:	096d      	lsrs	r5, r5, #5
 8006176:	f005 05f0 	and.w	r5, r5, #240	; 0xf0
 800617a:	4435      	add	r5, r6
 800617c:	f7ff f808 	bl	8005190 <HAL_RCC_GetPCLK1Freq>
 8006180:	eb00 0080 	add.w	r0, r0, r0, lsl #2
 8006184:	eb00 0080 	add.w	r0, r0, r0, lsl #2
 8006188:	6866      	ldr	r6, [r4, #4]
 800618a:	00b6      	lsls	r6, r6, #2
 800618c:	fbb0 f6f6 	udiv	r6, r0, r6
 8006190:	f7fe fffe 	bl	8005190 <HAL_RCC_GetPCLK1Freq>
 8006194:	eb00 0080 	add.w	r0, r0, r0, lsl #2
 8006198:	eb00 0080 	add.w	r0, r0, r0, lsl #2
 800619c:	6863      	ldr	r3, [r4, #4]
 800619e:	009b      	lsls	r3, r3, #2
 80061a0:	fbb0 f0f3 	udiv	r0, r0, r3
 80061a4:	fba7 3000 	umull	r3, r0, r7, r0
 80061a8:	0940      	lsrs	r0, r0, #5
 80061aa:	fb08 6810 	mls	r8, r8, r0, r6
 80061ae:	ea4f 1808 	mov.w	r8, r8, lsl #4
 80061b2:	f108 0832 	add.w	r8, r8, #50	; 0x32
 80061b6:	fba7 3708 	umull	r3, r7, r7, r8
 80061ba:	f3c7 1743 	ubfx	r7, r7, #5, #4
 80061be:	6823      	ldr	r3, [r4, #0]
 80061c0:	442f      	add	r7, r5
 80061c2:	609f      	str	r7, [r3, #8]
    }
  }
}
 80061c4:	e10d      	b.n	80063e2 <UART_SetConfig+0x326>
    if ((huart->Instance == USART1) || (huart->Instance == USART6))
 80061c6:	6803      	ldr	r3, [r0, #0]
 80061c8:	4a87      	ldr	r2, [pc, #540]	; (80063e8 <UART_SetConfig+0x32c>)
 80061ca:	4293      	cmp	r3, r2
 80061cc:	d05b      	beq.n	8006286 <UART_SetConfig+0x1ca>
 80061ce:	f502 6280 	add.w	r2, r2, #1024	; 0x400
 80061d2:	4293      	cmp	r3, r2
 80061d4:	d057      	beq.n	8006286 <UART_SetConfig+0x1ca>
      huart->Instance->BRR = UART_BRR_SAMPLING8(HAL_RCC_GetPCLK1Freq(), huart->Init.BaudRate);
 80061d6:	f7fe ffdb 	bl	8005190 <HAL_RCC_GetPCLK1Freq>
 80061da:	eb00 0080 	add.w	r0, r0, r0, lsl #2
 80061de:	eb00 0080 	add.w	r0, r0, r0, lsl #2
 80061e2:	6865      	ldr	r5, [r4, #4]
 80061e4:	006d      	lsls	r5, r5, #1
 80061e6:	fbb0 f5f5 	udiv	r5, r0, r5
 80061ea:	4f80      	ldr	r7, [pc, #512]	; (80063ec <UART_SetConfig+0x330>)
 80061ec:	fba7 3505 	umull	r3, r5, r7, r5
 80061f0:	096d      	lsrs	r5, r5, #5
 80061f2:	012e      	lsls	r6, r5, #4
 80061f4:	f7fe ffcc 	bl	8005190 <HAL_RCC_GetPCLK1Freq>
 80061f8:	eb00 0080 	add.w	r0, r0, r0, lsl #2
 80061fc:	eb00 0080 	add.w	r0, r0, r0, lsl #2
 8006200:	6865      	ldr	r5, [r4, #4]
 8006202:	006d      	lsls	r5, r5, #1
 8006204:	fbb0 f9f5 	udiv	r9, r0, r5
 8006208:	f7fe ffc2 	bl	8005190 <HAL_RCC_GetPCLK1Freq>
 800620c:	eb00 0080 	add.w	r0, r0, r0, lsl #2
 8006210:	eb00 0080 	add.w	r0, r0, r0, lsl #2
 8006214:	6865      	ldr	r5, [r4, #4]
 8006216:	006d      	lsls	r5, r5, #1
 8006218:	fbb0 f5f5 	udiv	r5, r0, r5
 800621c:	fba7 3505 	umull	r3, r5, r7, r5
 8006220:	096d      	lsrs	r5, r5, #5
 8006222:	f04f 0864 	mov.w	r8, #100	; 0x64
 8006226:	fb08 9515 	mls	r5, r8, r5, r9
 800622a:	00ed      	lsls	r5, r5, #3
 800622c:	3532      	adds	r5, #50	; 0x32
 800622e:	fba7 3505 	umull	r3, r5, r7, r5
 8006232:	096d      	lsrs	r5, r5, #5
 8006234:	006d      	lsls	r5, r5, #1
 8006236:	f405 75f8 	and.w	r5, r5, #496	; 0x1f0
 800623a:	4435      	add	r5, r6
 800623c:	f7fe ffa8 	bl	8005190 <HAL_RCC_GetPCLK1Freq>
 8006240:	eb00 0080 	add.w	r0, r0, r0, lsl #2
 8006244:	eb00 0080 	add.w	r0, r0, r0, lsl #2
 8006248:	6866      	ldr	r6, [r4, #4]
 800624a:	0076      	lsls	r6, r6, #1
 800624c:	fbb0 f6f6 	udiv	r6, r0, r6
 8006250:	f7fe ff9e 	bl	8005190 <HAL_RCC_GetPCLK1Freq>
 8006254:	eb00 0080 	add.w	r0, r0, r0, lsl #2
 8006258:	eb00 0080 	add.w	r0, r0, r0, lsl #2
 800625c:	6863      	ldr	r3, [r4, #4]
 800625e:	005b      	lsls	r3, r3, #1
 8006260:	fbb0 f3f3 	udiv	r3, r0, r3
 8006264:	fba7 2303 	umull	r2, r3, r7, r3
 8006268:	095b      	lsrs	r3, r3, #5
 800626a:	fb08 6813 	mls	r8, r8, r3, r6
 800626e:	ea4f 08c8 	mov.w	r8, r8, lsl #3
 8006272:	f108 0832 	add.w	r8, r8, #50	; 0x32
 8006276:	fba7 3708 	umull	r3, r7, r7, r8
 800627a:	f3c7 1742 	ubfx	r7, r7, #5, #3
 800627e:	6823      	ldr	r3, [r4, #0]
 8006280:	442f      	add	r7, r5
 8006282:	609f      	str	r7, [r3, #8]
 8006284:	e0ad      	b.n	80063e2 <UART_SetConfig+0x326>
      huart->Instance->BRR = UART_BRR_SAMPLING8(HAL_RCC_GetPCLK2Freq(), huart->Init.BaudRate);
 8006286:	f7fe ff93 	bl	80051b0 <HAL_RCC_GetPCLK2Freq>
 800628a:	eb00 0080 	add.w	r0, r0, r0, lsl #2
 800628e:	eb00 0080 	add.w	r0, r0, r0, lsl #2
 8006292:	6865      	ldr	r5, [r4, #4]
 8006294:	006d      	lsls	r5, r5, #1
 8006296:	fbb0 f5f5 	udiv	r5, r0, r5
 800629a:	4f54      	ldr	r7, [pc, #336]	; (80063ec <UART_SetConfig+0x330>)
 800629c:	fba7 3505 	umull	r3, r5, r7, r5
 80062a0:	096d      	lsrs	r5, r5, #5
 80062a2:	012e      	lsls	r6, r5, #4
 80062a4:	f7fe ff84 	bl	80051b0 <HAL_RCC_GetPCLK2Freq>
 80062a8:	eb00 0080 	add.w	r0, r0, r0, lsl #2
 80062ac:	eb00 0080 	add.w	r0, r0, r0, lsl #2
 80062b0:	6865      	ldr	r5, [r4, #4]
 80062b2:	006d      	lsls	r5, r5, #1
 80062b4:	fbb0 f9f5 	udiv	r9, r0, r5
 80062b8:	f7fe ff7a 	bl	80051b0 <HAL_RCC_GetPCLK2Freq>
 80062bc:	eb00 0080 	add.w	r0, r0, r0, lsl #2
 80062c0:	eb00 0080 	add.w	r0, r0, r0, lsl #2
 80062c4:	6865      	ldr	r5, [r4, #4]
 80062c6:	006d      	lsls	r5, r5, #1
 80062c8:	fbb0 f5f5 	udiv	r5, r0, r5
 80062cc:	fba7 3505 	umull	r3, r5, r7, r5
 80062d0:	096d      	lsrs	r5, r5, #5
 80062d2:	f04f 0864 	mov.w	r8, #100	; 0x64
 80062d6:	fb08 9515 	mls	r5, r8, r5, r9
 80062da:	00ed      	lsls	r5, r5, #3
 80062dc:	3532      	adds	r5, #50	; 0x32
 80062de:	fba7 3505 	umull	r3, r5, r7, r5
 80062e2:	096d      	lsrs	r5, r5, #5
 80062e4:	006d      	lsls	r5, r5, #1
 80062e6:	f405 75f8 	and.w	r5, r5, #496	; 0x1f0
 80062ea:	4435      	add	r5, r6
 80062ec:	f7fe ff60 	bl	80051b0 <HAL_RCC_GetPCLK2Freq>
 80062f0:	eb00 0080 	add.w	r0, r0, r0, lsl #2
 80062f4:	eb00 0080 	add.w	r0, r0, r0, lsl #2
 80062f8:	6866      	ldr	r6, [r4, #4]
 80062fa:	0076      	lsls	r6, r6, #1
 80062fc:	fbb0 f6f6 	udiv	r6, r0, r6
 8006300:	f7fe ff56 	bl	80051b0 <HAL_RCC_GetPCLK2Freq>
 8006304:	eb00 0080 	add.w	r0, r0, r0, lsl #2
 8006308:	eb00 0080 	add.w	r0, r0, r0, lsl #2
 800630c:	6863      	ldr	r3, [r4, #4]
 800630e:	005b      	lsls	r3, r3, #1
 8006310:	fbb0 f3f3 	udiv	r3, r0, r3
 8006314:	fba7 2303 	umull	r2, r3, r7, r3
 8006318:	095b      	lsrs	r3, r3, #5
 800631a:	fb08 6813 	mls	r8, r8, r3, r6
 800631e:	ea4f 08c8 	mov.w	r8, r8, lsl #3
 8006322:	f108 0832 	add.w	r8, r8, #50	; 0x32
 8006326:	fba7 3708 	umull	r3, r7, r7, r8
 800632a:	f3c7 1742 	ubfx	r7, r7, #5, #3
 800632e:	6823      	ldr	r3, [r4, #0]
 8006330:	442f      	add	r7, r5
 8006332:	609f      	str	r7, [r3, #8]
 8006334:	e055      	b.n	80063e2 <UART_SetConfig+0x326>
      huart->Instance->BRR = UART_BRR_SAMPLING16(HAL_RCC_GetPCLK2Freq(), huart->Init.BaudRate);
 8006336:	f7fe ff3b 	bl	80051b0 <HAL_RCC_GetPCLK2Freq>
 800633a:	eb00 0080 	add.w	r0, r0, r0, lsl #2
 800633e:	eb00 0080 	add.w	r0, r0, r0, lsl #2
 8006342:	6865      	ldr	r5, [r4, #4]
 8006344:	00ad      	lsls	r5, r5, #2
 8006346:	fbb0 f5f5 	udiv	r5, r0, r5
 800634a:	4f28      	ldr	r7, [pc, #160]	; (80063ec <UART_SetConfig+0x330>)
 800634c:	fba7 3505 	umull	r3, r5, r7, r5
 8006350:	096d      	lsrs	r5, r5, #5
 8006352:	012e      	lsls	r6, r5, #4
 8006354:	f7fe ff2c 	bl	80051b0 <HAL_RCC_GetPCLK2Freq>
 8006358:	eb00 0080 	add.w	r0, r0, r0, lsl #2
 800635c:	eb00 0080 	add.w	r0, r0, r0, lsl #2
 8006360:	6865      	ldr	r5, [r4, #4]
 8006362:	00ad      	lsls	r5, r5, #2
 8006364:	fbb0 f9f5 	udiv	r9, r0, r5
 8006368:	f7fe ff22 	bl	80051b0 <HAL_RCC_GetPCLK2Freq>
 800636c:	eb00 0080 	add.w	r0, r0, r0, lsl #2
 8006370:	eb00 0080 	add.w	r0, r0, r0, lsl #2
 8006374:	6865      	ldr	r5, [r4, #4]
 8006376:	00ad      	lsls	r5, r5, #2
 8006378:	fbb0 f5f5 	udiv	r5, r0, r5
 800637c:	fba7 3505 	umull	r3, r5, r7, r5
 8006380:	096d      	lsrs	r5, r5, #5
 8006382:	f04f 0864 	mov.w	r8, #100	; 0x64
 8006386:	fb08 9515 	mls	r5, r8, r5, r9
 800638a:	012d      	lsls	r5, r5, #4
 800638c:	3532      	adds	r5, #50	; 0x32
 800638e:	fba7 3505 	umull	r3, r5, r7, r5
 8006392:	096d      	lsrs	r5, r5, #5
 8006394:	f005 05f0 	and.w	r5, r5, #240	; 0xf0
 8006398:	4435      	add	r5, r6
 800639a:	f7fe ff09 	bl	80051b0 <HAL_RCC_GetPCLK2Freq>
 800639e:	eb00 0080 	add.w	r0, r0, r0, lsl #2
 80063a2:	eb00 0080 	add.w	r0, r0, r0, lsl #2
 80063a6:	6866      	ldr	r6, [r4, #4]
 80063a8:	00b6      	lsls	r6, r6, #2
 80063aa:	fbb0 f6f6 	udiv	r6, r0, r6
 80063ae:	f7fe feff 	bl	80051b0 <HAL_RCC_GetPCLK2Freq>
 80063b2:	eb00 0080 	add.w	r0, r0, r0, lsl #2
 80063b6:	eb00 0080 	add.w	r0, r0, r0, lsl #2
 80063ba:	6863      	ldr	r3, [r4, #4]
 80063bc:	009b      	lsls	r3, r3, #2
 80063be:	fbb0 f0f3 	udiv	r0, r0, r3
 80063c2:	fba7 3000 	umull	r3, r0, r7, r0
 80063c6:	0940      	lsrs	r0, r0, #5
 80063c8:	fb08 6810 	mls	r8, r8, r0, r6
 80063cc:	ea4f 1808 	mov.w	r8, r8, lsl #4
 80063d0:	f108 0832 	add.w	r8, r8, #50	; 0x32
 80063d4:	fba7 3708 	umull	r3, r7, r7, r8
 80063d8:	f3c7 1743 	ubfx	r7, r7, #5, #4
 80063dc:	6823      	ldr	r3, [r4, #0]
 80063de:	442f      	add	r7, r5
 80063e0:	609f      	str	r7, [r3, #8]
}
 80063e2:	e8bd 83f8 	ldmia.w	sp!, {r3, r4, r5, r6, r7, r8, r9, pc}
 80063e6:	bf00      	nop
 80063e8:	40011000 	.word	0x40011000
 80063ec:	51eb851f 	.word	0x51eb851f

080063f0 <UART_WaitOnFlagUntilTimeout>:
{
 80063f0:	e92d 41f0 	stmdb	sp!, {r4, r5, r6, r7, r8, lr}
 80063f4:	4605      	mov	r5, r0
 80063f6:	460f      	mov	r7, r1
 80063f8:	4616      	mov	r6, r2
 80063fa:	4698      	mov	r8, r3
 80063fc:	9c06      	ldr	r4, [sp, #24]
  while ((__HAL_UART_GET_FLAG(huart, Flag) ? SET : RESET) == Status)
 80063fe:	682b      	ldr	r3, [r5, #0]
 8006400:	681b      	ldr	r3, [r3, #0]
 8006402:	ea37 0303 	bics.w	r3, r7, r3
 8006406:	bf0c      	ite	eq
 8006408:	2301      	moveq	r3, #1
 800640a:	2300      	movne	r3, #0
 800640c:	42b3      	cmp	r3, r6
 800640e:	d11d      	bne.n	800644c <UART_WaitOnFlagUntilTimeout+0x5c>
    if (Timeout != HAL_MAX_DELAY)
 8006410:	f1b4 3fff 	cmp.w	r4, #4294967295	; 0xffffffff
 8006414:	d0f3      	beq.n	80063fe <UART_WaitOnFlagUntilTimeout+0xe>
      if ((Timeout == 0U) || ((HAL_GetTick() - Tickstart) > Timeout))
 8006416:	b12c      	cbz	r4, 8006424 <UART_WaitOnFlagUntilTimeout+0x34>
 8006418:	f7fd f93e 	bl	8003698 <HAL_GetTick>
 800641c:	eba0 0008 	sub.w	r0, r0, r8
 8006420:	42a0      	cmp	r0, r4
 8006422:	d9ec      	bls.n	80063fe <UART_WaitOnFlagUntilTimeout+0xe>
        CLEAR_BIT(huart->Instance->CR1, (USART_CR1_RXNEIE | USART_CR1_PEIE | USART_CR1_TXEIE));
 8006424:	682a      	ldr	r2, [r5, #0]
 8006426:	68d3      	ldr	r3, [r2, #12]
 8006428:	f423 73d0 	bic.w	r3, r3, #416	; 0x1a0
 800642c:	60d3      	str	r3, [r2, #12]
        CLEAR_BIT(huart->Instance->CR3, USART_CR3_EIE);
 800642e:	682a      	ldr	r2, [r5, #0]
 8006430:	6953      	ldr	r3, [r2, #20]
 8006432:	f023 0301 	bic.w	r3, r3, #1
 8006436:	6153      	str	r3, [r2, #20]
        huart->gState  = HAL_UART_STATE_READY;
 8006438:	2320      	movs	r3, #32
 800643a:	f885 3039 	strb.w	r3, [r5, #57]	; 0x39
        huart->RxState = HAL_UART_STATE_READY;
 800643e:	f885 303a 	strb.w	r3, [r5, #58]	; 0x3a
        __HAL_UNLOCK(huart);
 8006442:	2300      	movs	r3, #0
 8006444:	f885 3038 	strb.w	r3, [r5, #56]	; 0x38
        return HAL_TIMEOUT;
 8006448:	2003      	movs	r0, #3
 800644a:	e000      	b.n	800644e <UART_WaitOnFlagUntilTimeout+0x5e>
  return HAL_OK;
 800644c:	2000      	movs	r0, #0
}
 800644e:	e8bd 81f0 	ldmia.w	sp!, {r4, r5, r6, r7, r8, pc}

08006452 <HAL_UART_Init>:
  if (huart == NULL)
 8006452:	b358      	cbz	r0, 80064ac <HAL_UART_Init+0x5a>
{
 8006454:	b510      	push	{r4, lr}
 8006456:	4604      	mov	r4, r0
  if (huart->gState == HAL_UART_STATE_RESET)
 8006458:	f890 3039 	ldrb.w	r3, [r0, #57]	; 0x39
 800645c:	b30b      	cbz	r3, 80064a2 <HAL_UART_Init+0x50>
  huart->gState = HAL_UART_STATE_BUSY;
 800645e:	2324      	movs	r3, #36	; 0x24
 8006460:	f884 3039 	strb.w	r3, [r4, #57]	; 0x39
  __HAL_UART_DISABLE(huart);
 8006464:	6822      	ldr	r2, [r4, #0]
 8006466:	68d3      	ldr	r3, [r2, #12]
 8006468:	f423 5300 	bic.w	r3, r3, #8192	; 0x2000
 800646c:	60d3      	str	r3, [r2, #12]
  UART_SetConfig(huart);
 800646e:	4620      	mov	r0, r4
 8006470:	f7ff fe24 	bl	80060bc <UART_SetConfig>
  CLEAR_BIT(huart->Instance->CR2, (USART_CR2_LINEN | USART_CR2_CLKEN));
 8006474:	6822      	ldr	r2, [r4, #0]
 8006476:	6913      	ldr	r3, [r2, #16]
 8006478:	f423 4390 	bic.w	r3, r3, #18432	; 0x4800
 800647c:	6113      	str	r3, [r2, #16]
  CLEAR_BIT(huart->Instance->CR3, (USART_CR3_SCEN | USART_CR3_HDSEL | USART_CR3_IREN));
 800647e:	6822      	ldr	r2, [r4, #0]
 8006480:	6953      	ldr	r3, [r2, #20]
 8006482:	f023 032a 	bic.w	r3, r3, #42	; 0x2a
 8006486:	6153      	str	r3, [r2, #20]
  __HAL_UART_ENABLE(huart);
 8006488:	6822      	ldr	r2, [r4, #0]
 800648a:	68d3      	ldr	r3, [r2, #12]
 800648c:	f443 5300 	orr.w	r3, r3, #8192	; 0x2000
 8006490:	60d3      	str	r3, [r2, #12]
  huart->ErrorCode = HAL_UART_ERROR_NONE;
 8006492:	2000      	movs	r0, #0
 8006494:	63e0      	str	r0, [r4, #60]	; 0x3c
  huart->gState = HAL_UART_STATE_READY;
 8006496:	2320      	movs	r3, #32
 8006498:	f884 3039 	strb.w	r3, [r4, #57]	; 0x39
  huart->RxState = HAL_UART_STATE_READY;
 800649c:	f884 303a 	strb.w	r3, [r4, #58]	; 0x3a
}
 80064a0:	bd10      	pop	{r4, pc}
    huart->Lock = HAL_UNLOCKED;
 80064a2:	f880 3038 	strb.w	r3, [r0, #56]	; 0x38
    HAL_UART_MspInit(huart);
 80064a6:	f000 ff15 	bl	80072d4 <HAL_UART_MspInit>
 80064aa:	e7d8      	b.n	800645e <HAL_UART_Init+0xc>
    return HAL_ERROR;
 80064ac:	2001      	movs	r0, #1
}
 80064ae:	4770      	bx	lr

080064b0 <HAL_UART_Transmit>:
{
 80064b0:	e92d 41f0 	stmdb	sp!, {r4, r5, r6, r7, r8, lr}
 80064b4:	b082      	sub	sp, #8
 80064b6:	461e      	mov	r6, r3
  if (huart->gState == HAL_UART_STATE_READY)
 80064b8:	f890 3039 	ldrb.w	r3, [r0, #57]	; 0x39
 80064bc:	b2db      	uxtb	r3, r3
 80064be:	2b20      	cmp	r3, #32
 80064c0:	d155      	bne.n	800656e <HAL_UART_Transmit+0xbe>
 80064c2:	4604      	mov	r4, r0
 80064c4:	460d      	mov	r5, r1
 80064c6:	4690      	mov	r8, r2
    if ((pData == NULL) || (Size == 0U))
 80064c8:	2900      	cmp	r1, #0
 80064ca:	d055      	beq.n	8006578 <HAL_UART_Transmit+0xc8>
 80064cc:	2a00      	cmp	r2, #0
 80064ce:	d055      	beq.n	800657c <HAL_UART_Transmit+0xcc>
    __HAL_LOCK(huart);
 80064d0:	f890 3038 	ldrb.w	r3, [r0, #56]	; 0x38
 80064d4:	2b01      	cmp	r3, #1
 80064d6:	d053      	beq.n	8006580 <HAL_UART_Transmit+0xd0>
 80064d8:	2301      	movs	r3, #1
 80064da:	f880 3038 	strb.w	r3, [r0, #56]	; 0x38
    huart->ErrorCode = HAL_UART_ERROR_NONE;
 80064de:	2300      	movs	r3, #0
 80064e0:	63c3      	str	r3, [r0, #60]	; 0x3c
    huart->gState = HAL_UART_STATE_BUSY_TX;
 80064e2:	2321      	movs	r3, #33	; 0x21
 80064e4:	f880 3039 	strb.w	r3, [r0, #57]	; 0x39
    tickstart = HAL_GetTick();
 80064e8:	f7fd f8d6 	bl	8003698 <HAL_GetTick>
 80064ec:	4607      	mov	r7, r0
    huart->TxXferSize = Size;
 80064ee:	f8a4 8024 	strh.w	r8, [r4, #36]	; 0x24
    huart->TxXferCount = Size;
 80064f2:	f8a4 8026 	strh.w	r8, [r4, #38]	; 0x26
    while (huart->TxXferCount > 0U)
 80064f6:	e010      	b.n	800651a <HAL_UART_Transmit+0x6a>
        if (UART_WaitOnFlagUntilTimeout(huart, UART_FLAG_TXE, RESET, tickstart, Timeout) != HAL_OK)
 80064f8:	9600      	str	r6, [sp, #0]
 80064fa:	463b      	mov	r3, r7
 80064fc:	2200      	movs	r2, #0
 80064fe:	2180      	movs	r1, #128	; 0x80
 8006500:	4620      	mov	r0, r4
 8006502:	f7ff ff75 	bl	80063f0 <UART_WaitOnFlagUntilTimeout>
 8006506:	2800      	cmp	r0, #0
 8006508:	d13c      	bne.n	8006584 <HAL_UART_Transmit+0xd4>
        huart->Instance->DR = (*tmp & (uint16_t)0x01FF);
 800650a:	882b      	ldrh	r3, [r5, #0]
 800650c:	6822      	ldr	r2, [r4, #0]
 800650e:	f3c3 0308 	ubfx	r3, r3, #0, #9
 8006512:	6053      	str	r3, [r2, #4]
        if (huart->Init.Parity == UART_PARITY_NONE)
 8006514:	6923      	ldr	r3, [r4, #16]
 8006516:	b9c3      	cbnz	r3, 800654a <HAL_UART_Transmit+0x9a>
          pData += 2U;
 8006518:	3502      	adds	r5, #2
    while (huart->TxXferCount > 0U)
 800651a:	8ce3      	ldrh	r3, [r4, #38]	; 0x26
 800651c:	b29b      	uxth	r3, r3
 800651e:	b1b3      	cbz	r3, 800654e <HAL_UART_Transmit+0x9e>
      huart->TxXferCount--;
 8006520:	8ce3      	ldrh	r3, [r4, #38]	; 0x26
 8006522:	3b01      	subs	r3, #1
 8006524:	b29b      	uxth	r3, r3
 8006526:	84e3      	strh	r3, [r4, #38]	; 0x26
      if (huart->Init.WordLength == UART_WORDLENGTH_9B)
 8006528:	68a3      	ldr	r3, [r4, #8]
 800652a:	f5b3 5f80 	cmp.w	r3, #4096	; 0x1000
 800652e:	d0e3      	beq.n	80064f8 <HAL_UART_Transmit+0x48>
        if (UART_WaitOnFlagUntilTimeout(huart, UART_FLAG_TXE, RESET, tickstart, Timeout) != HAL_OK)
 8006530:	9600      	str	r6, [sp, #0]
 8006532:	463b      	mov	r3, r7
 8006534:	2200      	movs	r2, #0
 8006536:	2180      	movs	r1, #128	; 0x80
 8006538:	4620      	mov	r0, r4
 800653a:	f7ff ff59 	bl	80063f0 <UART_WaitOnFlagUntilTimeout>
 800653e:	bb18      	cbnz	r0, 8006588 <HAL_UART_Transmit+0xd8>
        huart->Instance->DR = (*pData++ & (uint8_t)0xFF);
 8006540:	782a      	ldrb	r2, [r5, #0]
 8006542:	6823      	ldr	r3, [r4, #0]
 8006544:	605a      	str	r2, [r3, #4]
 8006546:	3501      	adds	r5, #1
 8006548:	e7e7      	b.n	800651a <HAL_UART_Transmit+0x6a>
          pData += 1U;
 800654a:	3501      	adds	r5, #1
 800654c:	e7e5      	b.n	800651a <HAL_UART_Transmit+0x6a>
    if (UART_WaitOnFlagUntilTimeout(huart, UART_FLAG_TC, RESET, tickstart, Timeout) != HAL_OK)
 800654e:	9600      	str	r6, [sp, #0]
 8006550:	463b      	mov	r3, r7
 8006552:	2200      	movs	r2, #0
 8006554:	2140      	movs	r1, #64	; 0x40
 8006556:	4620      	mov	r0, r4
 8006558:	f7ff ff4a 	bl	80063f0 <UART_WaitOnFlagUntilTimeout>
 800655c:	4603      	mov	r3, r0
 800655e:	b9a8      	cbnz	r0, 800658c <HAL_UART_Transmit+0xdc>
    huart->gState = HAL_UART_STATE_READY;
 8006560:	2220      	movs	r2, #32
 8006562:	f884 2039 	strb.w	r2, [r4, #57]	; 0x39
    __HAL_UNLOCK(huart);
 8006566:	2200      	movs	r2, #0
 8006568:	f884 2038 	strb.w	r2, [r4, #56]	; 0x38
    return HAL_OK;
 800656c:	e000      	b.n	8006570 <HAL_UART_Transmit+0xc0>
    return HAL_BUSY;
 800656e:	2302      	movs	r3, #2
}
 8006570:	4618      	mov	r0, r3
 8006572:	b002      	add	sp, #8
 8006574:	e8bd 81f0 	ldmia.w	sp!, {r4, r5, r6, r7, r8, pc}
      return  HAL_ERROR;
 8006578:	2301      	movs	r3, #1
 800657a:	e7f9      	b.n	8006570 <HAL_UART_Transmit+0xc0>
 800657c:	2301      	movs	r3, #1
 800657e:	e7f7      	b.n	8006570 <HAL_UART_Transmit+0xc0>
    __HAL_LOCK(huart);
 8006580:	2302      	movs	r3, #2
 8006582:	e7f5      	b.n	8006570 <HAL_UART_Transmit+0xc0>
          return HAL_TIMEOUT;
 8006584:	2303      	movs	r3, #3
 8006586:	e7f3      	b.n	8006570 <HAL_UART_Transmit+0xc0>
          return HAL_TIMEOUT;
 8006588:	2303      	movs	r3, #3
 800658a:	e7f1      	b.n	8006570 <HAL_UART_Transmit+0xc0>
      return HAL_TIMEOUT;
 800658c:	2303      	movs	r3, #3
 800658e:	e7ef      	b.n	8006570 <HAL_UART_Transmit+0xc0>

08006590 <HAL_UART_TxCpltCallback>:
}
 8006590:	4770      	bx	lr

08006592 <UART_EndTransmit_IT>:
{
 8006592:	b508      	push	{r3, lr}
  __HAL_UART_DISABLE_IT(huart, UART_IT_TC);
 8006594:	6801      	ldr	r1, [r0, #0]
 8006596:	68cb      	ldr	r3, [r1, #12]
 8006598:	f023 0340 	bic.w	r3, r3, #64	; 0x40
 800659c:	60cb      	str	r3, [r1, #12]
  huart->gState = HAL_UART_STATE_READY;
 800659e:	2320      	movs	r3, #32
 80065a0:	f880 3039 	strb.w	r3, [r0, #57]	; 0x39
  HAL_UART_TxCpltCallback(huart);
 80065a4:	f7ff fff4 	bl	8006590 <HAL_UART_TxCpltCallback>
}
 80065a8:	2000      	movs	r0, #0
 80065aa:	bd08      	pop	{r3, pc}

080065ac <HAL_UART_RxCpltCallback>:
}
 80065ac:	4770      	bx	lr

080065ae <UART_Receive_IT>:
{
 80065ae:	b508      	push	{r3, lr}
  if (huart->RxState == HAL_UART_STATE_BUSY_RX)
 80065b0:	f890 303a 	ldrb.w	r3, [r0, #58]	; 0x3a
 80065b4:	b2db      	uxtb	r3, r3
 80065b6:	2b22      	cmp	r3, #34	; 0x22
 80065b8:	d145      	bne.n	8006646 <UART_Receive_IT+0x98>
    if (huart->Init.WordLength == UART_WORDLENGTH_9B)
 80065ba:	6883      	ldr	r3, [r0, #8]
 80065bc:	f5b3 5f80 	cmp.w	r3, #4096	; 0x1000
 80065c0:	d00e      	beq.n	80065e0 <UART_Receive_IT+0x32>
      if (huart->Init.Parity == UART_PARITY_NONE)
 80065c2:	6903      	ldr	r3, [r0, #16]
 80065c4:	bb03      	cbnz	r3, 8006608 <UART_Receive_IT+0x5a>
        *huart->pRxBuffPtr++ = (uint8_t)(huart->Instance->DR & (uint8_t)0x00FF);
 80065c6:	6803      	ldr	r3, [r0, #0]
 80065c8:	685a      	ldr	r2, [r3, #4]
 80065ca:	6a83      	ldr	r3, [r0, #40]	; 0x28
 80065cc:	1c59      	adds	r1, r3, #1
 80065ce:	6281      	str	r1, [r0, #40]	; 0x28
 80065d0:	701a      	strb	r2, [r3, #0]
    if (--huart->RxXferCount == 0U)
 80065d2:	8dc3      	ldrh	r3, [r0, #46]	; 0x2e
 80065d4:	3b01      	subs	r3, #1
 80065d6:	b29b      	uxth	r3, r3
 80065d8:	85c3      	strh	r3, [r0, #46]	; 0x2e
 80065da:	b1f3      	cbz	r3, 800661a <UART_Receive_IT+0x6c>
    return HAL_OK;
 80065dc:	2000      	movs	r0, #0
 80065de:	e033      	b.n	8006648 <UART_Receive_IT+0x9a>
      tmp = (uint16_t *) huart->pRxBuffPtr;
 80065e0:	6a82      	ldr	r2, [r0, #40]	; 0x28
      if (huart->Init.Parity == UART_PARITY_NONE)
 80065e2:	6903      	ldr	r3, [r0, #16]
 80065e4:	b943      	cbnz	r3, 80065f8 <UART_Receive_IT+0x4a>
        *tmp = (uint16_t)(huart->Instance->DR & (uint16_t)0x01FF);
 80065e6:	6803      	ldr	r3, [r0, #0]
 80065e8:	685b      	ldr	r3, [r3, #4]
 80065ea:	f3c3 0308 	ubfx	r3, r3, #0, #9
 80065ee:	8013      	strh	r3, [r2, #0]
        huart->pRxBuffPtr += 2U;
 80065f0:	6a83      	ldr	r3, [r0, #40]	; 0x28
 80065f2:	3302      	adds	r3, #2
 80065f4:	6283      	str	r3, [r0, #40]	; 0x28
 80065f6:	e7ec      	b.n	80065d2 <UART_Receive_IT+0x24>
        *tmp = (uint16_t)(huart->Instance->DR & (uint16_t)0x00FF);
 80065f8:	6803      	ldr	r3, [r0, #0]
 80065fa:	685b      	ldr	r3, [r3, #4]
 80065fc:	b2db      	uxtb	r3, r3
 80065fe:	8013      	strh	r3, [r2, #0]
        huart->pRxBuffPtr += 1U;
 8006600:	6a83      	ldr	r3, [r0, #40]	; 0x28
 8006602:	3301      	adds	r3, #1
 8006604:	6283      	str	r3, [r0, #40]	; 0x28
 8006606:	e7e4      	b.n	80065d2 <UART_Receive_IT+0x24>
        *huart->pRxBuffPtr++ = (uint8_t)(huart->Instance->DR & (uint8_t)0x007F);
 8006608:	6803      	ldr	r3, [r0, #0]
 800660a:	685b      	ldr	r3, [r3, #4]
 800660c:	6a82      	ldr	r2, [r0, #40]	; 0x28
 800660e:	1c51      	adds	r1, r2, #1
 8006610:	6281      	str	r1, [r0, #40]	; 0x28
 8006612:	f003 037f 	and.w	r3, r3, #127	; 0x7f
 8006616:	7013      	strb	r3, [r2, #0]
 8006618:	e7db      	b.n	80065d2 <UART_Receive_IT+0x24>
      __HAL_UART_DISABLE_IT(huart, UART_IT_RXNE);
 800661a:	6802      	ldr	r2, [r0, #0]
 800661c:	68d3      	ldr	r3, [r2, #12]
 800661e:	f023 0320 	bic.w	r3, r3, #32
 8006622:	60d3      	str	r3, [r2, #12]
      __HAL_UART_DISABLE_IT(huart, UART_IT_PE);
 8006624:	6802      	ldr	r2, [r0, #0]
 8006626:	68d3      	ldr	r3, [r2, #12]
 8006628:	f423 7380 	bic.w	r3, r3, #256	; 0x100
 800662c:	60d3      	str	r3, [r2, #12]
      __HAL_UART_DISABLE_IT(huart, UART_IT_ERR);
 800662e:	6802      	ldr	r2, [r0, #0]
 8006630:	6953      	ldr	r3, [r2, #20]
 8006632:	f023 0301 	bic.w	r3, r3, #1
 8006636:	6153      	str	r3, [r2, #20]
      huart->RxState = HAL_UART_STATE_READY;
 8006638:	2320      	movs	r3, #32
 800663a:	f880 303a 	strb.w	r3, [r0, #58]	; 0x3a
      HAL_UART_RxCpltCallback(huart);
 800663e:	f7ff ffb5 	bl	80065ac <HAL_UART_RxCpltCallback>
      return HAL_OK;
 8006642:	2000      	movs	r0, #0
 8006644:	e000      	b.n	8006648 <UART_Receive_IT+0x9a>
    return HAL_BUSY;
 8006646:	2002      	movs	r0, #2
}
 8006648:	bd08      	pop	{r3, pc}

0800664a <HAL_UART_ErrorCallback>:
}
 800664a:	4770      	bx	lr

0800664c <HAL_UART_IRQHandler>:
{
 800664c:	b510      	push	{r4, lr}
 800664e:	4604      	mov	r4, r0
  uint32_t isrflags   = READ_REG(huart->Instance->SR);
 8006650:	6802      	ldr	r2, [r0, #0]
 8006652:	6813      	ldr	r3, [r2, #0]
  uint32_t cr1its     = READ_REG(huart->Instance->CR1);
 8006654:	68d1      	ldr	r1, [r2, #12]
  uint32_t cr3its     = READ_REG(huart->Instance->CR3);
 8006656:	6952      	ldr	r2, [r2, #20]
  if (errorflags == RESET)
 8006658:	f013 000f 	ands.w	r0, r3, #15
 800665c:	d105      	bne.n	800666a <HAL_UART_IRQHandler+0x1e>
    if (((isrflags & USART_SR_RXNE) != RESET) && ((cr1its & USART_CR1_RXNEIE) != RESET))
 800665e:	f013 0f20 	tst.w	r3, #32
 8006662:	d002      	beq.n	800666a <HAL_UART_IRQHandler+0x1e>
 8006664:	f011 0f20 	tst.w	r1, #32
 8006668:	d153      	bne.n	8006712 <HAL_UART_IRQHandler+0xc6>
  if ((errorflags != RESET) && (((cr3its & USART_CR3_EIE) != RESET) || ((cr1its & (USART_CR1_RXNEIE | USART_CR1_PEIE)) != RESET)))
 800666a:	2800      	cmp	r0, #0
 800666c:	d067      	beq.n	800673e <HAL_UART_IRQHandler+0xf2>
 800666e:	f012 0201 	ands.w	r2, r2, #1
 8006672:	d102      	bne.n	800667a <HAL_UART_IRQHandler+0x2e>
 8006674:	f411 7f90 	tst.w	r1, #288	; 0x120
 8006678:	d061      	beq.n	800673e <HAL_UART_IRQHandler+0xf2>
    if (((isrflags & USART_SR_PE) != RESET) && ((cr1its & USART_CR1_PEIE) != RESET))
 800667a:	f013 0f01 	tst.w	r3, #1
 800667e:	d006      	beq.n	800668e <HAL_UART_IRQHandler+0x42>
 8006680:	f411 7f80 	tst.w	r1, #256	; 0x100
 8006684:	d003      	beq.n	800668e <HAL_UART_IRQHandler+0x42>
      huart->ErrorCode |= HAL_UART_ERROR_PE;
 8006686:	6be0      	ldr	r0, [r4, #60]	; 0x3c
 8006688:	f040 0001 	orr.w	r0, r0, #1
 800668c:	63e0      	str	r0, [r4, #60]	; 0x3c
    if (((isrflags & USART_SR_NE) != RESET) && ((cr3its & USART_CR3_EIE) != RESET))
 800668e:	f013 0f04 	tst.w	r3, #4
 8006692:	d004      	beq.n	800669e <HAL_UART_IRQHandler+0x52>
 8006694:	b11a      	cbz	r2, 800669e <HAL_UART_IRQHandler+0x52>
      huart->ErrorCode |= HAL_UART_ERROR_NE;
 8006696:	6be0      	ldr	r0, [r4, #60]	; 0x3c
 8006698:	f040 0002 	orr.w	r0, r0, #2
 800669c:	63e0      	str	r0, [r4, #60]	; 0x3c
    if (((isrflags & USART_SR_FE) != RESET) && ((cr3its & USART_CR3_EIE) != RESET))
 800669e:	f013 0f02 	tst.w	r3, #2
 80066a2:	d004      	beq.n	80066ae <HAL_UART_IRQHandler+0x62>
 80066a4:	b11a      	cbz	r2, 80066ae <HAL_UART_IRQHandler+0x62>
      huart->ErrorCode |= HAL_UART_ERROR_FE;
 80066a6:	6be0      	ldr	r0, [r4, #60]	; 0x3c
 80066a8:	f040 0004 	orr.w	r0, r0, #4
 80066ac:	63e0      	str	r0, [r4, #60]	; 0x3c
    if (((isrflags & USART_SR_ORE) != RESET) && ((cr3its & USART_CR3_EIE) != RESET))
 80066ae:	f013 0f08 	tst.w	r3, #8
 80066b2:	d004      	beq.n	80066be <HAL_UART_IRQHandler+0x72>
 80066b4:	b11a      	cbz	r2, 80066be <HAL_UART_IRQHandler+0x72>
      huart->ErrorCode |= HAL_UART_ERROR_ORE;
 80066b6:	6be2      	ldr	r2, [r4, #60]	; 0x3c
 80066b8:	f042 0208 	orr.w	r2, r2, #8
 80066bc:	63e2      	str	r2, [r4, #60]	; 0x3c
    if (huart->ErrorCode != HAL_UART_ERROR_NONE)
 80066be:	6be2      	ldr	r2, [r4, #60]	; 0x3c
 80066c0:	2a00      	cmp	r2, #0
 80066c2:	d048      	beq.n	8006756 <HAL_UART_IRQHandler+0x10a>
      if (((isrflags & USART_SR_RXNE) != RESET) && ((cr1its & USART_CR1_RXNEIE) != RESET))
 80066c4:	f013 0f20 	tst.w	r3, #32
 80066c8:	d002      	beq.n	80066d0 <HAL_UART_IRQHandler+0x84>
 80066ca:	f011 0f20 	tst.w	r1, #32
 80066ce:	d124      	bne.n	800671a <HAL_UART_IRQHandler+0xce>
      dmarequest = HAL_IS_BIT_SET(huart->Instance->CR3, USART_CR3_DMAR);
 80066d0:	6823      	ldr	r3, [r4, #0]
 80066d2:	695b      	ldr	r3, [r3, #20]
 80066d4:	f003 0340 	and.w	r3, r3, #64	; 0x40
      if (((huart->ErrorCode & HAL_UART_ERROR_ORE) != RESET) || dmarequest)
 80066d8:	6be2      	ldr	r2, [r4, #60]	; 0x3c
 80066da:	f012 0f08 	tst.w	r2, #8
 80066de:	d100      	bne.n	80066e2 <HAL_UART_IRQHandler+0x96>
 80066e0:	b33b      	cbz	r3, 8006732 <HAL_UART_IRQHandler+0xe6>
        UART_EndRxTransfer(huart);
 80066e2:	4620      	mov	r0, r4
 80066e4:	f7ff fca7 	bl	8006036 <UART_EndRxTransfer>
        if (HAL_IS_BIT_SET(huart->Instance->CR3, USART_CR3_DMAR))
 80066e8:	6823      	ldr	r3, [r4, #0]
 80066ea:	695a      	ldr	r2, [r3, #20]
 80066ec:	f012 0f40 	tst.w	r2, #64	; 0x40
 80066f0:	d01b      	beq.n	800672a <HAL_UART_IRQHandler+0xde>
          CLEAR_BIT(huart->Instance->CR3, USART_CR3_DMAR);
 80066f2:	695a      	ldr	r2, [r3, #20]
 80066f4:	f022 0240 	bic.w	r2, r2, #64	; 0x40
 80066f8:	615a      	str	r2, [r3, #20]
          if (huart->hdmarx != NULL)
 80066fa:	6b63      	ldr	r3, [r4, #52]	; 0x34
 80066fc:	b18b      	cbz	r3, 8006722 <HAL_UART_IRQHandler+0xd6>
            huart->hdmarx->XferAbortCallback = UART_DMAAbortOnError;
 80066fe:	4a1a      	ldr	r2, [pc, #104]	; (8006768 <HAL_UART_IRQHandler+0x11c>)
 8006700:	651a      	str	r2, [r3, #80]	; 0x50
            if (HAL_DMA_Abort_IT(huart->hdmarx) != HAL_OK)
 8006702:	6b60      	ldr	r0, [r4, #52]	; 0x34
 8006704:	f7fd fab0 	bl	8003c68 <HAL_DMA_Abort_IT>
 8006708:	b328      	cbz	r0, 8006756 <HAL_UART_IRQHandler+0x10a>
              huart->hdmarx->XferAbortCallback(huart->hdmarx);
 800670a:	6b60      	ldr	r0, [r4, #52]	; 0x34
 800670c:	6d03      	ldr	r3, [r0, #80]	; 0x50
 800670e:	4798      	blx	r3
 8006710:	e021      	b.n	8006756 <HAL_UART_IRQHandler+0x10a>
      UART_Receive_IT(huart);
 8006712:	4620      	mov	r0, r4
 8006714:	f7ff ff4b 	bl	80065ae <UART_Receive_IT>
      return;
 8006718:	e01d      	b.n	8006756 <HAL_UART_IRQHandler+0x10a>
        UART_Receive_IT(huart);
 800671a:	4620      	mov	r0, r4
 800671c:	f7ff ff47 	bl	80065ae <UART_Receive_IT>
 8006720:	e7d6      	b.n	80066d0 <HAL_UART_IRQHandler+0x84>
            HAL_UART_ErrorCallback(huart);
 8006722:	4620      	mov	r0, r4
 8006724:	f7ff ff91 	bl	800664a <HAL_UART_ErrorCallback>
 8006728:	e015      	b.n	8006756 <HAL_UART_IRQHandler+0x10a>
          HAL_UART_ErrorCallback(huart);
 800672a:	4620      	mov	r0, r4
 800672c:	f7ff ff8d 	bl	800664a <HAL_UART_ErrorCallback>
 8006730:	e011      	b.n	8006756 <HAL_UART_IRQHandler+0x10a>
        HAL_UART_ErrorCallback(huart);
 8006732:	4620      	mov	r0, r4
 8006734:	f7ff ff89 	bl	800664a <HAL_UART_ErrorCallback>
        huart->ErrorCode = HAL_UART_ERROR_NONE;
 8006738:	2300      	movs	r3, #0
 800673a:	63e3      	str	r3, [r4, #60]	; 0x3c
 800673c:	e00b      	b.n	8006756 <HAL_UART_IRQHandler+0x10a>
  if (((isrflags & USART_SR_TXE) != RESET) && ((cr1its & USART_CR1_TXEIE) != RESET))
 800673e:	f013 0f80 	tst.w	r3, #128	; 0x80
 8006742:	d002      	beq.n	800674a <HAL_UART_IRQHandler+0xfe>
 8006744:	f011 0f80 	tst.w	r1, #128	; 0x80
 8006748:	d106      	bne.n	8006758 <HAL_UART_IRQHandler+0x10c>
  if (((isrflags & USART_SR_TC) != RESET) && ((cr1its & USART_CR1_TCIE) != RESET))
 800674a:	f013 0f40 	tst.w	r3, #64	; 0x40
 800674e:	d002      	beq.n	8006756 <HAL_UART_IRQHandler+0x10a>
 8006750:	f011 0f40 	tst.w	r1, #64	; 0x40
 8006754:	d104      	bne.n	8006760 <HAL_UART_IRQHandler+0x114>
}
 8006756:	bd10      	pop	{r4, pc}
    UART_Transmit_IT(huart);
 8006758:	4620      	mov	r0, r4
 800675a:	f7ff fc7a 	bl	8006052 <UART_Transmit_IT>
    return;
 800675e:	e7fa      	b.n	8006756 <HAL_UART_IRQHandler+0x10a>
    UART_EndTransmit_IT(huart);
 8006760:	4620      	mov	r0, r4
 8006762:	f7ff ff16 	bl	8006592 <UART_EndTransmit_IT>
    return;
 8006766:	e7f6      	b.n	8006756 <HAL_UART_IRQHandler+0x10a>
 8006768:	0800676d 	.word	0x0800676d

0800676c <UART_DMAAbortOnError>:
{
 800676c:	b508      	push	{r3, lr}
  UART_HandleTypeDef *huart = (UART_HandleTypeDef *)((DMA_HandleTypeDef *)hdma)->Parent;
 800676e:	6b80      	ldr	r0, [r0, #56]	; 0x38
  huart->RxXferCount = 0x00U;
 8006770:	2300      	movs	r3, #0
 8006772:	85c3      	strh	r3, [r0, #46]	; 0x2e
  huart->TxXferCount = 0x00U;
 8006774:	84c3      	strh	r3, [r0, #38]	; 0x26
  HAL_UART_ErrorCallback(huart);
 8006776:	f7ff ff68 	bl	800664a <HAL_UART_ErrorCallback>
}
 800677a:	bd08      	pop	{r3, pc}

0800677c <arm_add_f32>:
  blkCnt = blockSize;

#endif /* #if defined (ARM_MATH_LOOPUNROLL) */
#endif /* #if defined(ARM_MATH_NEON) */

  while (blkCnt > 0U)
 800677c:	e00b      	b.n	8006796 <arm_add_f32+0x1a>
  {
    /* C = A + B */

    /* Add and store result in destination buffer. */
    *pDst++ = (*pSrcA++) + (*pSrcB++);
 800677e:	edd0 7a00 	vldr	s15, [r0]
 8006782:	ed91 7a00 	vldr	s14, [r1]
 8006786:	ee77 7a87 	vadd.f32	s15, s15, s14
 800678a:	edc2 7a00 	vstr	s15, [r2]

    /* Decrement loop counter */
    blkCnt--;
 800678e:	3b01      	subs	r3, #1
    *pDst++ = (*pSrcA++) + (*pSrcB++);
 8006790:	3204      	adds	r2, #4
 8006792:	3104      	adds	r1, #4
 8006794:	3004      	adds	r0, #4
  while (blkCnt > 0U)
 8006796:	2b00      	cmp	r3, #0
 8006798:	d1f1      	bne.n	800677e <arm_add_f32+0x2>
  }

}
 800679a:	4770      	bx	lr

0800679c <arm_mult_f32>:
  blkCnt = blockSize;

#endif /* #if defined (ARM_MATH_LOOPUNROLL) */
#endif /* #if defined(ARM_MATH_NEON) */

  while (blkCnt > 0U)
 800679c:	e00b      	b.n	80067b6 <arm_mult_f32+0x1a>
  {
    /* C = A * B */

    /* Multiply input and store result in destination buffer. */
    *pDst++ = (*pSrcA++) * (*pSrcB++);
 800679e:	edd0 7a00 	vldr	s15, [r0]
 80067a2:	ed91 7a00 	vldr	s14, [r1]
 80067a6:	ee67 7a87 	vmul.f32	s15, s15, s14
 80067aa:	edc2 7a00 	vstr	s15, [r2]

    /* Decrement loop counter */
    blkCnt--;
 80067ae:	3b01      	subs	r3, #1
    *pDst++ = (*pSrcA++) * (*pSrcB++);
 80067b0:	3204      	adds	r2, #4
 80067b2:	3104      	adds	r1, #4
 80067b4:	3004      	adds	r0, #4
  while (blkCnt > 0U)
 80067b6:	2b00      	cmp	r3, #0
 80067b8:	d1f1      	bne.n	800679e <arm_mult_f32+0x2>
  }

}
 80067ba:	4770      	bx	lr

080067bc <arm_sub_f32>:
  blkCnt = blockSize;

#endif /* #if defined (ARM_MATH_LOOPUNROLL) */
#endif /* #if defined(ARM_MATH_NEON) */

  while (blkCnt > 0U)
 80067bc:	e00b      	b.n	80067d6 <arm_sub_f32+0x1a>
  {
    /* C = A - B */

    /* Subtract and store result in destination buffer. */
    *pDst++ = (*pSrcA++) - (*pSrcB++);
 80067be:	edd0 7a00 	vldr	s15, [r0]
 80067c2:	ed91 7a00 	vldr	s14, [r1]
 80067c6:	ee77 7ac7 	vsub.f32	s15, s15, s14
 80067ca:	edc2 7a00 	vstr	s15, [r2]

    /* Decrement loop counter */
    blkCnt--;
 80067ce:	3b01      	subs	r3, #1
    *pDst++ = (*pSrcA++) - (*pSrcB++);
 80067d0:	3204      	adds	r2, #4
 80067d2:	3104      	adds	r1, #4
 80067d4:	3004      	adds	r0, #4
  while (blkCnt > 0U)
 80067d6:	2b00      	cmp	r3, #0
 80067d8:	d1f1      	bne.n	80067be <arm_sub_f32+0x2>
  }

}
 80067da:	4770      	bx	lr

080067dc <MX_GPIO_Init>:
  * @brief GPIO Initialization Function
  * @param None
  * @retval None
  */
static void MX_GPIO_Init(void)
{
 80067dc:	e92d 41f0 	stmdb	sp!, {r4, r5, r6, r7, r8, lr}
 80067e0:	b08a      	sub	sp, #40	; 0x28
  GPIO_InitTypeDef GPIO_InitStruct = {0};
 80067e2:	2400      	movs	r4, #0
 80067e4:	9405      	str	r4, [sp, #20]
 80067e6:	9406      	str	r4, [sp, #24]
 80067e8:	9407      	str	r4, [sp, #28]
 80067ea:	9408      	str	r4, [sp, #32]
 80067ec:	9409      	str	r4, [sp, #36]	; 0x24

  /* GPIO Ports Clock Enable */
  __HAL_RCC_GPIOH_CLK_ENABLE();
 80067ee:	9401      	str	r4, [sp, #4]
 80067f0:	4b36      	ldr	r3, [pc, #216]	; (80068cc <MX_GPIO_Init+0xf0>)
 80067f2:	6b1a      	ldr	r2, [r3, #48]	; 0x30
 80067f4:	f042 0280 	orr.w	r2, r2, #128	; 0x80
 80067f8:	631a      	str	r2, [r3, #48]	; 0x30
 80067fa:	6b1a      	ldr	r2, [r3, #48]	; 0x30
 80067fc:	f002 0280 	and.w	r2, r2, #128	; 0x80
 8006800:	9201      	str	r2, [sp, #4]
 8006802:	9a01      	ldr	r2, [sp, #4]
  __HAL_RCC_GPIOC_CLK_ENABLE();
 8006804:	9402      	str	r4, [sp, #8]
 8006806:	6b1a      	ldr	r2, [r3, #48]	; 0x30
 8006808:	f042 0204 	orr.w	r2, r2, #4
 800680c:	631a      	str	r2, [r3, #48]	; 0x30
 800680e:	6b1a      	ldr	r2, [r3, #48]	; 0x30
 8006810:	f002 0204 	and.w	r2, r2, #4
 8006814:	9202      	str	r2, [sp, #8]
 8006816:	9a02      	ldr	r2, [sp, #8]
  __HAL_RCC_GPIOA_CLK_ENABLE();
 8006818:	9403      	str	r4, [sp, #12]
 800681a:	6b1a      	ldr	r2, [r3, #48]	; 0x30
 800681c:	f042 0201 	orr.w	r2, r2, #1
 8006820:	631a      	str	r2, [r3, #48]	; 0x30
 8006822:	6b1a      	ldr	r2, [r3, #48]	; 0x30
 8006824:	f002 0201 	and.w	r2, r2, #1
 8006828:	9203      	str	r2, [sp, #12]
 800682a:	9a03      	ldr	r2, [sp, #12]
  __HAL_RCC_GPIOB_CLK_ENABLE();
 800682c:	9404      	str	r4, [sp, #16]
 800682e:	6b1a      	ldr	r2, [r3, #48]	; 0x30
 8006830:	f042 0202 	orr.w	r2, r2, #2
 8006834:	631a      	str	r2, [r3, #48]	; 0x30
 8006836:	6b1b      	ldr	r3, [r3, #48]	; 0x30
 8006838:	f003 0302 	and.w	r3, r3, #2
 800683c:	9304      	str	r3, [sp, #16]
 800683e:	9b04      	ldr	r3, [sp, #16]

  /*Configure GPIO pin Output Level */
  HAL_GPIO_WritePin(GPIOC, GPIO_PIN_3, GPIO_PIN_RESET);
 8006840:	f8df 8098 	ldr.w	r8, [pc, #152]	; 80068dc <MX_GPIO_Init+0x100>
 8006844:	4622      	mov	r2, r4
 8006846:	2108      	movs	r1, #8
 8006848:	4640      	mov	r0, r8
 800684a:	f7fd fbe1 	bl	8004010 <HAL_GPIO_WritePin>

  /*Configure GPIO pin Output Level */
  HAL_GPIO_WritePin(GPIOA, GPIO_PIN_5, GPIO_PIN_RESET);
 800684e:	4d20      	ldr	r5, [pc, #128]	; (80068d0 <MX_GPIO_Init+0xf4>)
 8006850:	4622      	mov	r2, r4
 8006852:	2120      	movs	r1, #32
 8006854:	4628      	mov	r0, r5
 8006856:	f7fd fbdb 	bl	8004010 <HAL_GPIO_WritePin>

  /*Configure GPIO pin Output Level */
  HAL_GPIO_WritePin(GPIOB, CE_Pin|CSN_Pin, GPIO_PIN_RESET);
 800685a:	4f1e      	ldr	r7, [pc, #120]	; (80068d4 <MX_GPIO_Init+0xf8>)
 800685c:	4622      	mov	r2, r4
 800685e:	f44f 41a0 	mov.w	r1, #20480	; 0x5000
 8006862:	4638      	mov	r0, r7
 8006864:	f7fd fbd4 	bl	8004010 <HAL_GPIO_WritePin>

  /*Configure GPIO pin : PC3 */
  GPIO_InitStruct.Pin = GPIO_PIN_3;
 8006868:	2308      	movs	r3, #8
 800686a:	9305      	str	r3, [sp, #20]
  GPIO_InitStruct.Mode = GPIO_MODE_OUTPUT_PP;
 800686c:	2601      	movs	r6, #1
 800686e:	9606      	str	r6, [sp, #24]
  GPIO_InitStruct.Pull = GPIO_NOPULL;
 8006870:	9407      	str	r4, [sp, #28]
  GPIO_InitStruct.Speed = GPIO_SPEED_FREQ_LOW;
 8006872:	9408      	str	r4, [sp, #32]
  HAL_GPIO_Init(GPIOC, &GPIO_InitStruct);
 8006874:	a905      	add	r1, sp, #20
 8006876:	4640      	mov	r0, r8
 8006878:	f7fd faf8 	bl	8003e6c <HAL_GPIO_Init>

  /*Configure GPIO pin : PA5 */
  GPIO_InitStruct.Pin = GPIO_PIN_5;
 800687c:	2320      	movs	r3, #32
 800687e:	9305      	str	r3, [sp, #20]
  GPIO_InitStruct.Mode = GPIO_MODE_OUTPUT_PP;
 8006880:	9606      	str	r6, [sp, #24]
  GPIO_InitStruct.Pull = GPIO_NOPULL;
 8006882:	9407      	str	r4, [sp, #28]
  GPIO_InitStruct.Speed = GPIO_SPEED_FREQ_LOW;
 8006884:	9408      	str	r4, [sp, #32]
  HAL_GPIO_Init(GPIOA, &GPIO_InitStruct);
 8006886:	a905      	add	r1, sp, #20
 8006888:	4628      	mov	r0, r5
 800688a:	f7fd faef 	bl	8003e6c <HAL_GPIO_Init>

  /*Configure GPIO pins : CE_Pin CSN_Pin */
  GPIO_InitStruct.Pin = CE_Pin|CSN_Pin;
 800688e:	f44f 43a0 	mov.w	r3, #20480	; 0x5000
 8006892:	9305      	str	r3, [sp, #20]
  GPIO_InitStruct.Mode = GPIO_MODE_OUTPUT_PP;
 8006894:	9606      	str	r6, [sp, #24]
  GPIO_InitStruct.Pull = GPIO_NOPULL;
 8006896:	9407      	str	r4, [sp, #28]
  GPIO_InitStruct.Speed = GPIO_SPEED_FREQ_LOW;
 8006898:	9408      	str	r4, [sp, #32]
  HAL_GPIO_Init(GPIOB, &GPIO_InitStruct);
 800689a:	a905      	add	r1, sp, #20
 800689c:	4638      	mov	r0, r7
 800689e:	f7fd fae5 	bl	8003e6c <HAL_GPIO_Init>

  /*Configure GPIO pin : PWM_RE_INT_Pin */
  GPIO_InitStruct.Pin = PWM_RE_INT_Pin;
 80068a2:	f44f 7380 	mov.w	r3, #256	; 0x100
 80068a6:	9305      	str	r3, [sp, #20]
  GPIO_InitStruct.Mode = GPIO_MODE_IT_RISING;
 80068a8:	4b0b      	ldr	r3, [pc, #44]	; (80068d8 <MX_GPIO_Init+0xfc>)
 80068aa:	9306      	str	r3, [sp, #24]
  GPIO_InitStruct.Pull = GPIO_NOPULL;
 80068ac:	9407      	str	r4, [sp, #28]
  HAL_GPIO_Init(PWM_RE_INT_GPIO_Port, &GPIO_InitStruct);
 80068ae:	a905      	add	r1, sp, #20
 80068b0:	4628      	mov	r0, r5
 80068b2:	f7fd fadb 	bl	8003e6c <HAL_GPIO_Init>

  /* EXTI interrupt init*/
  HAL_NVIC_SetPriority(EXTI9_5_IRQn, 0, 0);
 80068b6:	4622      	mov	r2, r4
 80068b8:	4621      	mov	r1, r4
 80068ba:	2017      	movs	r0, #23
 80068bc:	f7fd f8b0 	bl	8003a20 <HAL_NVIC_SetPriority>
  HAL_NVIC_EnableIRQ(EXTI9_5_IRQn);
 80068c0:	2017      	movs	r0, #23
 80068c2:	f7fd f8e1 	bl	8003a88 <HAL_NVIC_EnableIRQ>

}
 80068c6:	b00a      	add	sp, #40	; 0x28
 80068c8:	e8bd 81f0 	ldmia.w	sp!, {r4, r5, r6, r7, r8, pc}
 80068cc:	40023800 	.word	0x40023800
 80068d0:	40020000 	.word	0x40020000
 80068d4:	40020400 	.word	0x40020400
 80068d8:	10110000 	.word	0x10110000
 80068dc:	40020800 	.word	0x40020800

080068e0 <MX_DMA_Init>:
{
 80068e0:	b510      	push	{r4, lr}
 80068e2:	b082      	sub	sp, #8
  __HAL_RCC_DMA1_CLK_ENABLE();
 80068e4:	2400      	movs	r4, #0
 80068e6:	9401      	str	r4, [sp, #4]
 80068e8:	4b0d      	ldr	r3, [pc, #52]	; (8006920 <MX_DMA_Init+0x40>)
 80068ea:	6b1a      	ldr	r2, [r3, #48]	; 0x30
 80068ec:	f442 1200 	orr.w	r2, r2, #2097152	; 0x200000
 80068f0:	631a      	str	r2, [r3, #48]	; 0x30
 80068f2:	6b1b      	ldr	r3, [r3, #48]	; 0x30
 80068f4:	f403 1300 	and.w	r3, r3, #2097152	; 0x200000
 80068f8:	9301      	str	r3, [sp, #4]
 80068fa:	9b01      	ldr	r3, [sp, #4]
  HAL_NVIC_SetPriority(DMA1_Stream5_IRQn, 0, 0);
 80068fc:	4622      	mov	r2, r4
 80068fe:	4621      	mov	r1, r4
 8006900:	2010      	movs	r0, #16
 8006902:	f7fd f88d 	bl	8003a20 <HAL_NVIC_SetPriority>
  HAL_NVIC_EnableIRQ(DMA1_Stream5_IRQn);
 8006906:	2010      	movs	r0, #16
 8006908:	f7fd f8be 	bl	8003a88 <HAL_NVIC_EnableIRQ>
  HAL_NVIC_SetPriority(DMA1_Stream6_IRQn, 0, 0);
 800690c:	4622      	mov	r2, r4
 800690e:	4621      	mov	r1, r4
 8006910:	2011      	movs	r0, #17
 8006912:	f7fd f885 	bl	8003a20 <HAL_NVIC_SetPriority>
  HAL_NVIC_EnableIRQ(DMA1_Stream6_IRQn);
 8006916:	2011      	movs	r0, #17
 8006918:	f7fd f8b6 	bl	8003a88 <HAL_NVIC_EnableIRQ>
}
 800691c:	b002      	add	sp, #8
 800691e:	bd10      	pop	{r4, pc}
 8006920:	40023800 	.word	0x40023800

08006924 <MX_USART2_UART_Init>:
{
 8006924:	b508      	push	{r3, lr}
  huart2.Instance = USART2;
 8006926:	4808      	ldr	r0, [pc, #32]	; (8006948 <MX_USART2_UART_Init+0x24>)
 8006928:	4b08      	ldr	r3, [pc, #32]	; (800694c <MX_USART2_UART_Init+0x28>)
 800692a:	6003      	str	r3, [r0, #0]
  huart2.Init.BaudRate = 115200;
 800692c:	f44f 33e1 	mov.w	r3, #115200	; 0x1c200
 8006930:	6043      	str	r3, [r0, #4]
  huart2.Init.WordLength = UART_WORDLENGTH_8B;
 8006932:	2300      	movs	r3, #0
 8006934:	6083      	str	r3, [r0, #8]
  huart2.Init.StopBits = UART_STOPBITS_1;
 8006936:	60c3      	str	r3, [r0, #12]
  huart2.Init.Parity = UART_PARITY_NONE;
 8006938:	6103      	str	r3, [r0, #16]
  huart2.Init.Mode = UART_MODE_TX_RX;
 800693a:	220c      	movs	r2, #12
 800693c:	6142      	str	r2, [r0, #20]
  huart2.Init.HwFlowCtl = UART_HWCONTROL_NONE;
 800693e:	6183      	str	r3, [r0, #24]
  huart2.Init.OverSampling = UART_OVERSAMPLING_16;
 8006940:	61c3      	str	r3, [r0, #28]
  if (HAL_UART_Init(&huart2) != HAL_OK)
 8006942:	f7ff fd86 	bl	8006452 <HAL_UART_Init>
}
 8006946:	bd08      	pop	{r3, pc}
 8006948:	20000718 	.word	0x20000718
 800694c:	40004400 	.word	0x40004400

08006950 <MX_USART6_UART_Init>:
{
 8006950:	b508      	push	{r3, lr}
  huart6.Instance = USART6;
 8006952:	4808      	ldr	r0, [pc, #32]	; (8006974 <MX_USART6_UART_Init+0x24>)
 8006954:	4b08      	ldr	r3, [pc, #32]	; (8006978 <MX_USART6_UART_Init+0x28>)
 8006956:	6003      	str	r3, [r0, #0]
  huart6.Init.BaudRate = 115200;
 8006958:	f44f 33e1 	mov.w	r3, #115200	; 0x1c200
 800695c:	6043      	str	r3, [r0, #4]
  huart6.Init.WordLength = UART_WORDLENGTH_8B;
 800695e:	2300      	movs	r3, #0
 8006960:	6083      	str	r3, [r0, #8]
  huart6.Init.StopBits = UART_STOPBITS_1;
 8006962:	60c3      	str	r3, [r0, #12]
  huart6.Init.Parity = UART_PARITY_NONE;
 8006964:	6103      	str	r3, [r0, #16]
  huart6.Init.Mode = UART_MODE_TX_RX;
 8006966:	220c      	movs	r2, #12
 8006968:	6142      	str	r2, [r0, #20]
  huart6.Init.HwFlowCtl = UART_HWCONTROL_NONE;
 800696a:	6183      	str	r3, [r0, #24]
  huart6.Init.OverSampling = UART_OVERSAMPLING_16;
 800696c:	61c3      	str	r3, [r0, #28]
  if (HAL_UART_Init(&huart6) != HAL_OK)
 800696e:	f7ff fd70 	bl	8006452 <HAL_UART_Init>
}
 8006972:	bd08      	pop	{r3, pc}
 8006974:	200006b8 	.word	0x200006b8
 8006978:	40011400 	.word	0x40011400

0800697c <MX_I2C2_Init>:
{
 800697c:	b508      	push	{r3, lr}
  hi2c2.Instance = I2C2;
 800697e:	4809      	ldr	r0, [pc, #36]	; (80069a4 <MX_I2C2_Init+0x28>)
 8006980:	4b09      	ldr	r3, [pc, #36]	; (80069a8 <MX_I2C2_Init+0x2c>)
 8006982:	6003      	str	r3, [r0, #0]
  hi2c2.Init.ClockSpeed = 400000;
 8006984:	4b09      	ldr	r3, [pc, #36]	; (80069ac <MX_I2C2_Init+0x30>)
 8006986:	6043      	str	r3, [r0, #4]
  hi2c2.Init.DutyCycle = I2C_DUTYCYCLE_2;
 8006988:	2300      	movs	r3, #0
 800698a:	6083      	str	r3, [r0, #8]
  hi2c2.Init.OwnAddress1 = 0;
 800698c:	60c3      	str	r3, [r0, #12]
  hi2c2.Init.AddressingMode = I2C_ADDRESSINGMODE_7BIT;
 800698e:	f44f 4280 	mov.w	r2, #16384	; 0x4000
 8006992:	6102      	str	r2, [r0, #16]
  hi2c2.Init.DualAddressMode = I2C_DUALADDRESS_DISABLE;
 8006994:	6143      	str	r3, [r0, #20]
  hi2c2.Init.OwnAddress2 = 0;
 8006996:	6183      	str	r3, [r0, #24]
  hi2c2.Init.GeneralCallMode = I2C_GENERALCALL_DISABLE;
 8006998:	61c3      	str	r3, [r0, #28]
  hi2c2.Init.NoStretchMode = I2C_NOSTRETCH_DISABLE;
 800699a:	6203      	str	r3, [r0, #32]
  if (HAL_I2C_Init(&hi2c2) != HAL_OK)
 800699c:	f7fd fd5a 	bl	8004454 <HAL_I2C_Init>
}
 80069a0:	bd08      	pop	{r3, pc}
 80069a2:	bf00      	nop
 80069a4:	200003f4 	.word	0x200003f4
 80069a8:	40005800 	.word	0x40005800
 80069ac:	00061a80 	.word	0x00061a80

080069b0 <MX_TIM3_Init>:
{
 80069b0:	b530      	push	{r4, r5, lr}
 80069b2:	b087      	sub	sp, #28
  TIM_ClockConfigTypeDef sClockSourceConfig = {0};
 80069b4:	2400      	movs	r4, #0
 80069b6:	9402      	str	r4, [sp, #8]
 80069b8:	9403      	str	r4, [sp, #12]
 80069ba:	9404      	str	r4, [sp, #16]
 80069bc:	9405      	str	r4, [sp, #20]
  TIM_MasterConfigTypeDef sMasterConfig = {0};
 80069be:	9400      	str	r4, [sp, #0]
 80069c0:	9401      	str	r4, [sp, #4]
  htim3.Instance = TIM3;
 80069c2:	4d0f      	ldr	r5, [pc, #60]	; (8006a00 <MX_TIM3_Init+0x50>)
 80069c4:	4b0f      	ldr	r3, [pc, #60]	; (8006a04 <MX_TIM3_Init+0x54>)
 80069c6:	602b      	str	r3, [r5, #0]
  htim3.Init.Prescaler = 2000;
 80069c8:	f44f 63fa 	mov.w	r3, #2000	; 0x7d0
 80069cc:	606b      	str	r3, [r5, #4]
  htim3.Init.CounterMode = TIM_COUNTERMODE_UP;
 80069ce:	60ac      	str	r4, [r5, #8]
  htim3.Init.Period = 65535;
 80069d0:	f64f 73ff 	movw	r3, #65535	; 0xffff
 80069d4:	60eb      	str	r3, [r5, #12]
  htim3.Init.ClockDivision = TIM_CLOCKDIVISION_DIV1;
 80069d6:	612c      	str	r4, [r5, #16]
  htim3.Init.AutoReloadPreload = TIM_AUTORELOAD_PRELOAD_DISABLE;
 80069d8:	61ac      	str	r4, [r5, #24]
  if (HAL_TIM_Base_Init(&htim3) != HAL_OK)
 80069da:	4628      	mov	r0, r5
 80069dc:	f7ff f96a 	bl	8005cb4 <HAL_TIM_Base_Init>
  sClockSourceConfig.ClockSource = TIM_CLOCKSOURCE_INTERNAL;
 80069e0:	f44f 5380 	mov.w	r3, #4096	; 0x1000
 80069e4:	9302      	str	r3, [sp, #8]
  if (HAL_TIM_ConfigClockSource(&htim3, &sClockSourceConfig) != HAL_OK)
 80069e6:	a902      	add	r1, sp, #8
 80069e8:	4628      	mov	r0, r5
 80069ea:	f7ff fa41 	bl	8005e70 <HAL_TIM_ConfigClockSource>
  sMasterConfig.MasterOutputTrigger = TIM_TRGO_RESET;
 80069ee:	9400      	str	r4, [sp, #0]
  sMasterConfig.MasterSlaveMode = TIM_MASTERSLAVEMODE_DISABLE;
 80069f0:	9401      	str	r4, [sp, #4]
  if (HAL_TIMEx_MasterConfigSynchronization(&htim3, &sMasterConfig) != HAL_OK)
 80069f2:	4669      	mov	r1, sp
 80069f4:	4628      	mov	r0, r5
 80069f6:	f7ff faf9 	bl	8005fec <HAL_TIMEx_MasterConfigSynchronization>
}
 80069fa:	b007      	add	sp, #28
 80069fc:	bd30      	pop	{r4, r5, pc}
 80069fe:	bf00      	nop
 8006a00:	200005c4 	.word	0x200005c4
 8006a04:	40000400 	.word	0x40000400

08006a08 <MX_TIM4_Init>:
{
 8006a08:	b570      	push	{r4, r5, r6, lr}
 8006a0a:	b08a      	sub	sp, #40	; 0x28
  TIM_MasterConfigTypeDef sMasterConfig = {0};
 8006a0c:	2400      	movs	r4, #0
 8006a0e:	9408      	str	r4, [sp, #32]
 8006a10:	9409      	str	r4, [sp, #36]	; 0x24
  TIM_OC_InitTypeDef sConfigOC = {0};
 8006a12:	9401      	str	r4, [sp, #4]
 8006a14:	9402      	str	r4, [sp, #8]
 8006a16:	9403      	str	r4, [sp, #12]
 8006a18:	9404      	str	r4, [sp, #16]
 8006a1a:	9405      	str	r4, [sp, #20]
 8006a1c:	9406      	str	r4, [sp, #24]
 8006a1e:	9407      	str	r4, [sp, #28]
  htim4.Instance = TIM4;
 8006a20:	4d1b      	ldr	r5, [pc, #108]	; (8006a90 <MX_TIM4_Init+0x88>)
 8006a22:	4b1c      	ldr	r3, [pc, #112]	; (8006a94 <MX_TIM4_Init+0x8c>)
 8006a24:	602b      	str	r3, [r5, #0]
  htim4.Init.Prescaler = 9;
 8006a26:	2309      	movs	r3, #9
 8006a28:	606b      	str	r3, [r5, #4]
  htim4.Init.CounterMode = TIM_COUNTERMODE_UP;
 8006a2a:	60ac      	str	r4, [r5, #8]
  htim4.Init.Period = 20000;
 8006a2c:	f644 6320 	movw	r3, #20000	; 0x4e20
 8006a30:	60eb      	str	r3, [r5, #12]
  htim4.Init.ClockDivision = TIM_CLOCKDIVISION_DIV1;
 8006a32:	612c      	str	r4, [r5, #16]
  htim4.Init.AutoReloadPreload = TIM_AUTORELOAD_PRELOAD_DISABLE;
 8006a34:	61ac      	str	r4, [r5, #24]
  if (HAL_TIM_PWM_Init(&htim4) != HAL_OK)
 8006a36:	4628      	mov	r0, r5
 8006a38:	f7ff f955 	bl	8005ce6 <HAL_TIM_PWM_Init>
  sMasterConfig.MasterOutputTrigger = TIM_TRGO_RESET;
 8006a3c:	9408      	str	r4, [sp, #32]
  sMasterConfig.MasterSlaveMode = TIM_MASTERSLAVEMODE_DISABLE;
 8006a3e:	9409      	str	r4, [sp, #36]	; 0x24
  if (HAL_TIMEx_MasterConfigSynchronization(&htim4, &sMasterConfig) != HAL_OK)
 8006a40:	a908      	add	r1, sp, #32
 8006a42:	4628      	mov	r0, r5
 8006a44:	f7ff fad2 	bl	8005fec <HAL_TIMEx_MasterConfigSynchronization>
  sConfigOC.OCMode = TIM_OCMODE_PWM1;
 8006a48:	2360      	movs	r3, #96	; 0x60
 8006a4a:	9301      	str	r3, [sp, #4]
  sConfigOC.Pulse = 0;
 8006a4c:	9402      	str	r4, [sp, #8]
  sConfigOC.OCPolarity = TIM_OCPOLARITY_HIGH;
 8006a4e:	9403      	str	r4, [sp, #12]
  sConfigOC.OCFastMode = TIM_OCFAST_ENABLE;
 8006a50:	2604      	movs	r6, #4
 8006a52:	9605      	str	r6, [sp, #20]
  if (HAL_TIM_PWM_ConfigChannel(&htim4, &sConfigOC, TIM_CHANNEL_1) != HAL_OK)
 8006a54:	4622      	mov	r2, r4
 8006a56:	eb0d 0106 	add.w	r1, sp, r6
 8006a5a:	4628      	mov	r0, r5
 8006a5c:	f7ff f98e 	bl	8005d7c <HAL_TIM_PWM_ConfigChannel>
  if (HAL_TIM_PWM_ConfigChannel(&htim4, &sConfigOC, TIM_CHANNEL_2) != HAL_OK)
 8006a60:	4632      	mov	r2, r6
 8006a62:	eb0d 0106 	add.w	r1, sp, r6
 8006a66:	4628      	mov	r0, r5
 8006a68:	f7ff f988 	bl	8005d7c <HAL_TIM_PWM_ConfigChannel>
  if (HAL_TIM_PWM_ConfigChannel(&htim4, &sConfigOC, TIM_CHANNEL_3) != HAL_OK)
 8006a6c:	2208      	movs	r2, #8
 8006a6e:	eb0d 0106 	add.w	r1, sp, r6
 8006a72:	4628      	mov	r0, r5
 8006a74:	f7ff f982 	bl	8005d7c <HAL_TIM_PWM_ConfigChannel>
  if (HAL_TIM_PWM_ConfigChannel(&htim4, &sConfigOC, TIM_CHANNEL_4) != HAL_OK)
 8006a78:	220c      	movs	r2, #12
 8006a7a:	eb0d 0106 	add.w	r1, sp, r6
 8006a7e:	4628      	mov	r0, r5
 8006a80:	f7ff f97c 	bl	8005d7c <HAL_TIM_PWM_ConfigChannel>
  HAL_TIM_MspPostInit(&htim4);
 8006a84:	4628      	mov	r0, r5
 8006a86:	f000 fbed 	bl	8007264 <HAL_TIM_MspPostInit>
}
 8006a8a:	b00a      	add	sp, #40	; 0x28
 8006a8c:	bd70      	pop	{r4, r5, r6, pc}
 8006a8e:	bf00      	nop
 8006a90:	20000584 	.word	0x20000584
 8006a94:	40000800 	.word	0x40000800

08006a98 <MX_ADC1_Init>:
{
 8006a98:	b570      	push	{r4, r5, r6, lr}
 8006a9a:	b084      	sub	sp, #16
  ADC_ChannelConfTypeDef sConfig = {0};
 8006a9c:	2500      	movs	r5, #0
 8006a9e:	9500      	str	r5, [sp, #0]
 8006aa0:	9501      	str	r5, [sp, #4]
 8006aa2:	9502      	str	r5, [sp, #8]
 8006aa4:	9503      	str	r5, [sp, #12]
  hadc1.Instance = ADC1;
 8006aa6:	4c10      	ldr	r4, [pc, #64]	; (8006ae8 <MX_ADC1_Init+0x50>)
 8006aa8:	4b10      	ldr	r3, [pc, #64]	; (8006aec <MX_ADC1_Init+0x54>)
 8006aaa:	6023      	str	r3, [r4, #0]
  hadc1.Init.ClockPrescaler = ADC_CLOCK_SYNC_PCLK_DIV4;
 8006aac:	f44f 3380 	mov.w	r3, #65536	; 0x10000
 8006ab0:	6063      	str	r3, [r4, #4]
  hadc1.Init.Resolution = ADC_RESOLUTION_12B;
 8006ab2:	60a5      	str	r5, [r4, #8]
  hadc1.Init.ScanConvMode = DISABLE;
 8006ab4:	6125      	str	r5, [r4, #16]
  hadc1.Init.ContinuousConvMode = DISABLE;
 8006ab6:	7625      	strb	r5, [r4, #24]
  hadc1.Init.DiscontinuousConvMode = DISABLE;
 8006ab8:	f884 5020 	strb.w	r5, [r4, #32]
  hadc1.Init.ExternalTrigConvEdge = ADC_EXTERNALTRIGCONVEDGE_NONE;
 8006abc:	62e5      	str	r5, [r4, #44]	; 0x2c
  hadc1.Init.ExternalTrigConv = ADC_SOFTWARE_START;
 8006abe:	4b0c      	ldr	r3, [pc, #48]	; (8006af0 <MX_ADC1_Init+0x58>)
 8006ac0:	62a3      	str	r3, [r4, #40]	; 0x28
  hadc1.Init.DataAlign = ADC_DATAALIGN_RIGHT;
 8006ac2:	60e5      	str	r5, [r4, #12]
  hadc1.Init.NbrOfConversion = 1;
 8006ac4:	2601      	movs	r6, #1
 8006ac6:	61e6      	str	r6, [r4, #28]
  hadc1.Init.DMAContinuousRequests = DISABLE;
 8006ac8:	f884 5030 	strb.w	r5, [r4, #48]	; 0x30
  hadc1.Init.EOCSelection = ADC_EOC_SINGLE_CONV;
 8006acc:	6166      	str	r6, [r4, #20]
  if (HAL_ADC_Init(&hadc1) != HAL_OK)
 8006ace:	4620      	mov	r0, r4
 8006ad0:	f7fc fe96 	bl	8003800 <HAL_ADC_Init>
  sConfig.Channel = ADC_CHANNEL_8;
 8006ad4:	2308      	movs	r3, #8
 8006ad6:	9300      	str	r3, [sp, #0]
  sConfig.Rank = 1;
 8006ad8:	9601      	str	r6, [sp, #4]
  sConfig.SamplingTime = ADC_SAMPLETIME_3CYCLES;
 8006ada:	9502      	str	r5, [sp, #8]
  if (HAL_ADC_ConfigChannel(&hadc1, &sConfig) != HAL_OK)
 8006adc:	4669      	mov	r1, sp
 8006ade:	4620      	mov	r0, r4
 8006ae0:	f7fc feba 	bl	8003858 <HAL_ADC_ConfigChannel>
}
 8006ae4:	b004      	add	sp, #16
 8006ae6:	bd70      	pop	{r4, r5, r6, pc}
 8006ae8:	20000604 	.word	0x20000604
 8006aec:	40012000 	.word	0x40012000
 8006af0:	0f000001 	.word	0x0f000001

08006af4 <MX_SPI2_Init>:
{
 8006af4:	b508      	push	{r3, lr}
  hspi2.Instance = SPI2;
 8006af6:	480c      	ldr	r0, [pc, #48]	; (8006b28 <MX_SPI2_Init+0x34>)
 8006af8:	4b0c      	ldr	r3, [pc, #48]	; (8006b2c <MX_SPI2_Init+0x38>)
 8006afa:	6003      	str	r3, [r0, #0]
  hspi2.Init.Mode = SPI_MODE_MASTER;
 8006afc:	f44f 7382 	mov.w	r3, #260	; 0x104
 8006b00:	6043      	str	r3, [r0, #4]
  hspi2.Init.Direction = SPI_DIRECTION_2LINES;
 8006b02:	2300      	movs	r3, #0
 8006b04:	6083      	str	r3, [r0, #8]
  hspi2.Init.DataSize = SPI_DATASIZE_8BIT;
 8006b06:	60c3      	str	r3, [r0, #12]
  hspi2.Init.CLKPolarity = SPI_POLARITY_LOW;
 8006b08:	6103      	str	r3, [r0, #16]
  hspi2.Init.CLKPhase = SPI_PHASE_1EDGE;
 8006b0a:	6143      	str	r3, [r0, #20]
  hspi2.Init.NSS = SPI_NSS_SOFT;
 8006b0c:	f44f 7200 	mov.w	r2, #512	; 0x200
 8006b10:	6182      	str	r2, [r0, #24]
  hspi2.Init.BaudRatePrescaler = SPI_BAUDRATEPRESCALER_64;
 8006b12:	2228      	movs	r2, #40	; 0x28
 8006b14:	61c2      	str	r2, [r0, #28]
  hspi2.Init.FirstBit = SPI_FIRSTBIT_MSB;
 8006b16:	6203      	str	r3, [r0, #32]
  hspi2.Init.TIMode = SPI_TIMODE_DISABLE;
 8006b18:	6243      	str	r3, [r0, #36]	; 0x24
  hspi2.Init.CRCCalculation = SPI_CRCCALCULATION_DISABLE;
 8006b1a:	6283      	str	r3, [r0, #40]	; 0x28
  hspi2.Init.CRCPolynomial = 10;
 8006b1c:	230a      	movs	r3, #10
 8006b1e:	62c3      	str	r3, [r0, #44]	; 0x2c
  if (HAL_SPI_Init(&hspi2) != HAL_OK)
 8006b20:	f7fe fc1e 	bl	8005360 <HAL_SPI_Init>
}
 8006b24:	bd08      	pop	{r3, pc}
 8006b26:	bf00      	nop
 8006b28:	2000052c 	.word	0x2000052c
 8006b2c:	40003800 	.word	0x40003800

08006b30 <SystemClock_Config>:
{
 8006b30:	b530      	push	{r4, r5, lr}
 8006b32:	b095      	sub	sp, #84	; 0x54
  RCC_OscInitTypeDef RCC_OscInitStruct = {0};
 8006b34:	2230      	movs	r2, #48	; 0x30
 8006b36:	2100      	movs	r1, #0
 8006b38:	a808      	add	r0, sp, #32
 8006b3a:	f000 fd6c 	bl	8007616 <memset>
  RCC_ClkInitTypeDef RCC_ClkInitStruct = {0};
 8006b3e:	2400      	movs	r4, #0
 8006b40:	9403      	str	r4, [sp, #12]
 8006b42:	9404      	str	r4, [sp, #16]
 8006b44:	9405      	str	r4, [sp, #20]
 8006b46:	9406      	str	r4, [sp, #24]
 8006b48:	9407      	str	r4, [sp, #28]
  __HAL_RCC_PWR_CLK_ENABLE();
 8006b4a:	9401      	str	r4, [sp, #4]
 8006b4c:	4b1a      	ldr	r3, [pc, #104]	; (8006bb8 <SystemClock_Config+0x88>)
 8006b4e:	6c1a      	ldr	r2, [r3, #64]	; 0x40
 8006b50:	f042 5280 	orr.w	r2, r2, #268435456	; 0x10000000
 8006b54:	641a      	str	r2, [r3, #64]	; 0x40
 8006b56:	6c1b      	ldr	r3, [r3, #64]	; 0x40
 8006b58:	f003 5380 	and.w	r3, r3, #268435456	; 0x10000000
 8006b5c:	9301      	str	r3, [sp, #4]
 8006b5e:	9b01      	ldr	r3, [sp, #4]
  __HAL_PWR_VOLTAGESCALING_CONFIG(PWR_REGULATOR_VOLTAGE_SCALE1);
 8006b60:	9402      	str	r4, [sp, #8]
 8006b62:	4b16      	ldr	r3, [pc, #88]	; (8006bbc <SystemClock_Config+0x8c>)
 8006b64:	681a      	ldr	r2, [r3, #0]
 8006b66:	f442 4240 	orr.w	r2, r2, #49152	; 0xc000
 8006b6a:	601a      	str	r2, [r3, #0]
 8006b6c:	681b      	ldr	r3, [r3, #0]
 8006b6e:	f403 4340 	and.w	r3, r3, #49152	; 0xc000
 8006b72:	9302      	str	r3, [sp, #8]
 8006b74:	9b02      	ldr	r3, [sp, #8]
  RCC_OscInitStruct.OscillatorType = RCC_OSCILLATORTYPE_HSE;
 8006b76:	2301      	movs	r3, #1
 8006b78:	9308      	str	r3, [sp, #32]
  RCC_OscInitStruct.HSEState = RCC_HSE_ON;
 8006b7a:	f44f 3380 	mov.w	r3, #65536	; 0x10000
 8006b7e:	9309      	str	r3, [sp, #36]	; 0x24
  RCC_OscInitStruct.PLL.PLLState = RCC_PLL_ON;
 8006b80:	2502      	movs	r5, #2
 8006b82:	950e      	str	r5, [sp, #56]	; 0x38
  RCC_OscInitStruct.PLL.PLLSource = RCC_PLLSOURCE_HSE;
 8006b84:	f44f 0380 	mov.w	r3, #4194304	; 0x400000
 8006b88:	930f      	str	r3, [sp, #60]	; 0x3c
  RCC_OscInitStruct.PLL.PLLM = 4;
 8006b8a:	2304      	movs	r3, #4
 8006b8c:	9310      	str	r3, [sp, #64]	; 0x40
  RCC_OscInitStruct.PLL.PLLN = 100;
 8006b8e:	2264      	movs	r2, #100	; 0x64
 8006b90:	9211      	str	r2, [sp, #68]	; 0x44
  RCC_OscInitStruct.PLL.PLLP = RCC_PLLP_DIV2;
 8006b92:	9512      	str	r5, [sp, #72]	; 0x48
  RCC_OscInitStruct.PLL.PLLQ = 4;
 8006b94:	9313      	str	r3, [sp, #76]	; 0x4c
  if (HAL_RCC_OscConfig(&RCC_OscInitStruct) != HAL_OK)
 8006b96:	a808      	add	r0, sp, #32
 8006b98:	f7fe f810 	bl	8004bbc <HAL_RCC_OscConfig>
  RCC_ClkInitStruct.ClockType = RCC_CLOCKTYPE_HCLK|RCC_CLOCKTYPE_SYSCLK
 8006b9c:	230f      	movs	r3, #15
 8006b9e:	9303      	str	r3, [sp, #12]
  RCC_ClkInitStruct.SYSCLKSource = RCC_SYSCLKSOURCE_PLLCLK;
 8006ba0:	9504      	str	r5, [sp, #16]
  RCC_ClkInitStruct.AHBCLKDivider = RCC_SYSCLK_DIV1;
 8006ba2:	9405      	str	r4, [sp, #20]
  RCC_ClkInitStruct.APB1CLKDivider = RCC_HCLK_DIV2;
 8006ba4:	f44f 5380 	mov.w	r3, #4096	; 0x1000
 8006ba8:	9306      	str	r3, [sp, #24]
  RCC_ClkInitStruct.APB2CLKDivider = RCC_HCLK_DIV1;
 8006baa:	9407      	str	r4, [sp, #28]
  if (HAL_RCC_ClockConfig(&RCC_ClkInitStruct, FLASH_LATENCY_3) != HAL_OK)
 8006bac:	2103      	movs	r1, #3
 8006bae:	a803      	add	r0, sp, #12
 8006bb0:	f7fe fa3c 	bl	800502c <HAL_RCC_ClockConfig>
}
 8006bb4:	b015      	add	sp, #84	; 0x54
 8006bb6:	bd30      	pop	{r4, r5, pc}
 8006bb8:	40023800 	.word	0x40023800
 8006bbc:	40007000 	.word	0x40007000

08006bc0 <main>:
{
 8006bc0:	b500      	push	{lr}
 8006bc2:	b097      	sub	sp, #92	; 0x5c
  HAL_Init();
 8006bc4:	f7fc fd42 	bl	800364c <HAL_Init>
  SystemClock_Config();
 8006bc8:	f7ff ffb2 	bl	8006b30 <SystemClock_Config>
  MX_GPIO_Init();
 8006bcc:	f7ff fe06 	bl	80067dc <MX_GPIO_Init>
  MX_DMA_Init();
 8006bd0:	f7ff fe86 	bl	80068e0 <MX_DMA_Init>
  MX_USART2_UART_Init();
 8006bd4:	f7ff fea6 	bl	8006924 <MX_USART2_UART_Init>
  MX_I2C2_Init();
 8006bd8:	f7ff fed0 	bl	800697c <MX_I2C2_Init>
  MX_TIM3_Init();
 8006bdc:	f7ff fee8 	bl	80069b0 <MX_TIM3_Init>
  MX_TIM4_Init();
 8006be0:	f7ff ff12 	bl	8006a08 <MX_TIM4_Init>
  MX_USART6_UART_Init();
 8006be4:	f7ff feb4 	bl	8006950 <MX_USART6_UART_Init>
  MX_ADC1_Init();
 8006be8:	f7ff ff56 	bl	8006a98 <MX_ADC1_Init>
  MX_SPI2_Init();
 8006bec:	f7ff ff82 	bl	8006af4 <MX_SPI2_Init>
	if (imu_init(&hi2c2) == IMU_SUCCESS) {
 8006bf0:	482a      	ldr	r0, [pc, #168]	; (8006c9c <main+0xdc>)
 8006bf2:	f7fa f9f5 	bl	8000fe0 <imu_init>
 8006bf6:	2800      	cmp	r0, #0
 8006bf8:	d04d      	beq.n	8006c96 <main+0xd6>
	DWT_Init(); //Enable some of the MCUs special registers so we can get microsecond (us) delays
 8006bfa:	f7fc fcd9 	bl	80035b0 <DWT_Init>
	NRF24_begin(GPIOB, nrf_CSN_PIN, nrf_CE_PIN, hspi2);
 8006bfe:	4c28      	ldr	r4, [pc, #160]	; (8006ca0 <main+0xe0>)
 8006c00:	2254      	movs	r2, #84	; 0x54
 8006c02:	1d21      	adds	r1, r4, #4
 8006c04:	4668      	mov	r0, sp
 8006c06:	f000 fcfb 	bl	8007600 <memcpy>
 8006c0a:	6823      	ldr	r3, [r4, #0]
 8006c0c:	f44f 5280 	mov.w	r2, #4096	; 0x1000
 8006c10:	f44f 4180 	mov.w	r1, #16384	; 0x4000
 8006c14:	4823      	ldr	r0, [pc, #140]	; (8006ca4 <main+0xe4>)
 8006c16:	f7fc fa31 	bl	800307c <NRF24_begin>
	nrf24_DebugUART_Init(huart2);
 8006c1a:	4e23      	ldr	r6, [pc, #140]	; (8006ca8 <main+0xe8>)
 8006c1c:	466c      	mov	r4, sp
 8006c1e:	f106 0510 	add.w	r5, r6, #16
 8006c22:	cd0f      	ldmia	r5!, {r0, r1, r2, r3}
 8006c24:	c40f      	stmia	r4!, {r0, r1, r2, r3}
 8006c26:	cd0f      	ldmia	r5!, {r0, r1, r2, r3}
 8006c28:	c40f      	stmia	r4!, {r0, r1, r2, r3}
 8006c2a:	e895 000f 	ldmia.w	r5, {r0, r1, r2, r3}
 8006c2e:	e884 000f 	stmia.w	r4, {r0, r1, r2, r3}
 8006c32:	e896 000f 	ldmia.w	r6, {r0, r1, r2, r3}
 8006c36:	f7fc faf3 	bl	8003220 <nrf24_DebugUART_Init>
	NRF24_setAutoAck(true);
 8006c3a:	2001      	movs	r0, #1
 8006c3c:	f7fb fe4b 	bl	80028d6 <NRF24_setAutoAck>
	NRF24_enableAckPayload();
 8006c40:	f7fb ff08 	bl	8002a54 <NRF24_enableAckPayload>
	NRF24_openReadingPipe(1, TxpipeAddrs);
 8006c44:	4b19      	ldr	r3, [pc, #100]	; (8006cac <main+0xec>)
 8006c46:	e9d3 2300 	ldrd	r2, r3, [r3]
 8006c4a:	2001      	movs	r0, #1
 8006c4c:	f7fb fda2 	bl	8002794 <NRF24_openReadingPipe>
	NRF24_startListening();
 8006c50:	f7fb fd7e 	bl	8002750 <NRF24_startListening>
	printRadioSettings();
 8006c54:	f7fb ff22 	bl	8002a9c <printRadioSettings>
	 HAL_TIM_Base_Start_IT(&htim3);
 8006c58:	4815      	ldr	r0, [pc, #84]	; (8006cb0 <main+0xf0>)
 8006c5a:	f7fe ff0a 	bl	8005a72 <HAL_TIM_Base_Start_IT>
	 HAL_TIM_PWM_Start_IT(&htim4, TIM_CHANNEL_1);
 8006c5e:	4c15      	ldr	r4, [pc, #84]	; (8006cb4 <main+0xf4>)
 8006c60:	2100      	movs	r1, #0
 8006c62:	4620      	mov	r0, r4
 8006c64:	f7ff f982 	bl	8005f6c <HAL_TIM_PWM_Start_IT>
	 HAL_TIM_PWM_Start_IT(&htim4, TIM_CHANNEL_2);
 8006c68:	2104      	movs	r1, #4
 8006c6a:	4620      	mov	r0, r4
 8006c6c:	f7ff f97e 	bl	8005f6c <HAL_TIM_PWM_Start_IT>
	 HAL_TIM_PWM_Start_IT(&htim4, TIM_CHANNEL_3);
 8006c70:	2108      	movs	r1, #8
 8006c72:	4620      	mov	r0, r4
 8006c74:	f7ff f97a 	bl	8005f6c <HAL_TIM_PWM_Start_IT>
	 HAL_TIM_PWM_Start_IT(&htim4, TIM_CHANNEL_4);
 8006c78:	210c      	movs	r1, #12
 8006c7a:	4620      	mov	r0, r4
 8006c7c:	f7ff f976 	bl	8005f6c <HAL_TIM_PWM_Start_IT>
		htim4.Instance->CCR1 = 2500;
 8006c80:	6823      	ldr	r3, [r4, #0]
 8006c82:	f640 12c4 	movw	r2, #2500	; 0x9c4
 8006c86:	635a      	str	r2, [r3, #52]	; 0x34
		htim4.Instance->CCR2 = 2500;
 8006c88:	639a      	str	r2, [r3, #56]	; 0x38
		htim4.Instance->CCR3 = 2500;
 8006c8a:	63da      	str	r2, [r3, #60]	; 0x3c
		htim4.Instance->CCR4 = 2500;
 8006c8c:	641a      	str	r2, [r3, #64]	; 0x40
		main_loop = 1;
 8006c8e:	4b0a      	ldr	r3, [pc, #40]	; (8006cb8 <main+0xf8>)
 8006c90:	2201      	movs	r2, #1
 8006c92:	701a      	strb	r2, [r3, #0]
 8006c94:	e7fb      	b.n	8006c8e <main+0xce>
		imu_calibrate();
 8006c96:	f7fa ff53 	bl	8001b40 <imu_calibrate>
 8006c9a:	e7ae      	b.n	8006bfa <main+0x3a>
 8006c9c:	200003f4 	.word	0x200003f4
 8006ca0:	2000052c 	.word	0x2000052c
 8006ca4:	40020400 	.word	0x40020400
 8006ca8:	20000718 	.word	0x20000718
 8006cac:	20000088 	.word	0x20000088
 8006cb0:	200005c4 	.word	0x200005c4
 8006cb4:	20000584 	.word	0x20000584
 8006cb8:	200003a4 	.word	0x200003a4

08006cbc <PWM1_Set>:

}

//These 4 functions set the PWM duty cycles
void PWM1_Set(uint16_t value) {
	htim4.Instance->CCR1 = value;
 8006cbc:	4b01      	ldr	r3, [pc, #4]	; (8006cc4 <PWM1_Set+0x8>)
 8006cbe:	681b      	ldr	r3, [r3, #0]
 8006cc0:	6358      	str	r0, [r3, #52]	; 0x34
}
 8006cc2:	4770      	bx	lr
 8006cc4:	20000584 	.word	0x20000584

08006cc8 <PWM2_Set>:

void PWM2_Set(uint16_t value) {
	htim4.Instance->CCR2 = value;
 8006cc8:	4b01      	ldr	r3, [pc, #4]	; (8006cd0 <PWM2_Set+0x8>)
 8006cca:	681b      	ldr	r3, [r3, #0]
 8006ccc:	6398      	str	r0, [r3, #56]	; 0x38

}
 8006cce:	4770      	bx	lr
 8006cd0:	20000584 	.word	0x20000584

08006cd4 <PWM3_Set>:

void PWM3_Set(uint16_t value) {
	htim4.Instance->CCR3 = value;
 8006cd4:	4b01      	ldr	r3, [pc, #4]	; (8006cdc <PWM3_Set+0x8>)
 8006cd6:	681b      	ldr	r3, [r3, #0]
 8006cd8:	63d8      	str	r0, [r3, #60]	; 0x3c
}
 8006cda:	4770      	bx	lr
 8006cdc:	20000584 	.word	0x20000584

08006ce0 <PWM4_Set>:

void PWM4_Set(uint16_t value) {
	htim4.Instance->CCR4 = value;
 8006ce0:	4b01      	ldr	r3, [pc, #4]	; (8006ce8 <PWM4_Set+0x8>)
 8006ce2:	681b      	ldr	r3, [r3, #0]
 8006ce4:	6418      	str	r0, [r3, #64]	; 0x40
}
 8006ce6:	4770      	bx	lr
 8006ce8:	20000584 	.word	0x20000584

08006cec <map>:

	}

}

int map(int x, int in_min, int in_max, int out_min, int out_max) {
 8006cec:	b410      	push	{r4}
	return (x - in_min) * (out_max - out_min) / (in_max - in_min) + out_min;
 8006cee:	1a40      	subs	r0, r0, r1
 8006cf0:	9c01      	ldr	r4, [sp, #4]
 8006cf2:	1ae4      	subs	r4, r4, r3
 8006cf4:	fb04 f000 	mul.w	r0, r4, r0
 8006cf8:	1a52      	subs	r2, r2, r1
 8006cfa:	fb90 f0f2 	sdiv	r0, r0, r2
}
 8006cfe:	4418      	add	r0, r3
 8006d00:	f85d 4b04 	ldr.w	r4, [sp], #4
 8006d04:	4770      	bx	lr
	...

08006d08 <__io_putchar>:
/*
 *	Some functions to allow the program to use printf,
 *	from http://www.emcu.eu/how-to-implement-printf-for-send-message-via-usb-on-stm32-nucleo-boards-using-atollic/
 *
 */
int __io_putchar(int ch) {
 8006d08:	b510      	push	{r4, lr}
 8006d0a:	b082      	sub	sp, #8
 8006d0c:	4604      	mov	r4, r0
	uint8_t c[1];
	c[0] = ch & 0x00FF;
 8006d0e:	a902      	add	r1, sp, #8
 8006d10:	f801 0d04 	strb.w	r0, [r1, #-4]!

	HAL_UART_Transmit(&huart2, &*c, 1, 10);
 8006d14:	230a      	movs	r3, #10
 8006d16:	2201      	movs	r2, #1
 8006d18:	4802      	ldr	r0, [pc, #8]	; (8006d24 <__io_putchar+0x1c>)
 8006d1a:	f7ff fbc9 	bl	80064b0 <HAL_UART_Transmit>
	return ch;
}
 8006d1e:	4620      	mov	r0, r4
 8006d20:	b002      	add	sp, #8
 8006d22:	bd10      	pop	{r4, pc}
 8006d24:	20000718 	.word	0x20000718

08006d28 <_write>:

int _write(int file, char *ptr, int len) {
 8006d28:	b570      	push	{r4, r5, r6, lr}
 8006d2a:	4616      	mov	r6, r2
	int DataIdx;
	for (DataIdx = 0; DataIdx < len; DataIdx++) {
 8006d2c:	2400      	movs	r4, #0
 8006d2e:	e005      	b.n	8006d3c <_write+0x14>
		__io_putchar(*ptr++);
 8006d30:	1c4d      	adds	r5, r1, #1
 8006d32:	7808      	ldrb	r0, [r1, #0]
 8006d34:	f7ff ffe8 	bl	8006d08 <__io_putchar>
	for (DataIdx = 0; DataIdx < len; DataIdx++) {
 8006d38:	3401      	adds	r4, #1
		__io_putchar(*ptr++);
 8006d3a:	4629      	mov	r1, r5
	for (DataIdx = 0; DataIdx < len; DataIdx++) {
 8006d3c:	42b4      	cmp	r4, r6
 8006d3e:	dbf7      	blt.n	8006d30 <_write+0x8>
	}
	return len;
}
 8006d40:	4630      	mov	r0, r6
 8006d42:	bd70      	pop	{r4, r5, r6, pc}

08006d44 <unpackRxData>:
}

void unpackRxData() {

	/** Unpack received 32 byte payload from transmitter, see documentation for specification details **/
	L_Joystick_XPos = (RxData[0] & 0xFF) | (RxData[1] << 8);
 8006d44:	4b0c      	ldr	r3, [pc, #48]	; (8006d78 <unpackRxData+0x34>)
 8006d46:	781a      	ldrb	r2, [r3, #0]
 8006d48:	7859      	ldrb	r1, [r3, #1]
 8006d4a:	ea42 2201 	orr.w	r2, r2, r1, lsl #8
 8006d4e:	490b      	ldr	r1, [pc, #44]	; (8006d7c <unpackRxData+0x38>)
 8006d50:	800a      	strh	r2, [r1, #0]
	L_Joystick_YPos = (RxData[2] & 0xFF) | (RxData[3] << 8);
 8006d52:	789a      	ldrb	r2, [r3, #2]
 8006d54:	78d9      	ldrb	r1, [r3, #3]
 8006d56:	ea42 2201 	orr.w	r2, r2, r1, lsl #8
 8006d5a:	4909      	ldr	r1, [pc, #36]	; (8006d80 <unpackRxData+0x3c>)
 8006d5c:	800a      	strh	r2, [r1, #0]
	R_Joystick_XPos = (RxData[4] & 0xFF) | (RxData[5] << 8);
 8006d5e:	791a      	ldrb	r2, [r3, #4]
 8006d60:	7959      	ldrb	r1, [r3, #5]
 8006d62:	ea42 2201 	orr.w	r2, r2, r1, lsl #8
 8006d66:	4907      	ldr	r1, [pc, #28]	; (8006d84 <unpackRxData+0x40>)
 8006d68:	800a      	strh	r2, [r1, #0]
	R_Joystick_YPos = (RxData[6] & 0xFF) | (RxData[7] << 8);
 8006d6a:	799a      	ldrb	r2, [r3, #6]
 8006d6c:	79db      	ldrb	r3, [r3, #7]
 8006d6e:	ea42 2303 	orr.w	r3, r2, r3, lsl #8
 8006d72:	4a05      	ldr	r2, [pc, #20]	; (8006d88 <unpackRxData+0x44>)
 8006d74:	8013      	strh	r3, [r2, #0]

}
 8006d76:	4770      	bx	lr
 8006d78:	200006f8 	.word	0x200006f8
 8006d7c:	2000075a 	.word	0x2000075a
 8006d80:	200004c8 	.word	0x200004c8
 8006d84:	200006ac 	.word	0x200006ac
 8006d88:	20000758 	.word	0x20000758

08006d8c <pulse_posedge_handler>:
	if (main_loop) {
 8006d8c:	4b79      	ldr	r3, [pc, #484]	; (8006f74 <pulse_posedge_handler+0x1e8>)
 8006d8e:	781b      	ldrb	r3, [r3, #0]
 8006d90:	b903      	cbnz	r3, 8006d94 <pulse_posedge_handler+0x8>
 8006d92:	4770      	bx	lr
void pulse_posedge_handler() {
 8006d94:	e92d 43f0 	stmdb	sp!, {r4, r5, r6, r7, r8, r9, lr}
 8006d98:	b083      	sub	sp, #12
		if (NRF24_available()) {
 8006d9a:	f7fb fe20 	bl	80029de <NRF24_available>
 8006d9e:	2800      	cmp	r0, #0
 8006da0:	f040 80de 	bne.w	8006f60 <pulse_posedge_handler+0x1d4>
		unpackRxData();
 8006da4:	f7ff ffce 	bl	8006d44 <unpackRxData>
		throttle = map(L_Joystick_YPos, 900, 3000, ESC_MIN, ESC_MAX);
 8006da8:	4b73      	ldr	r3, [pc, #460]	; (8006f78 <pulse_posedge_handler+0x1ec>)
 8006daa:	f9b3 0000 	ldrsh.w	r0, [r3]
 8006dae:	f640 13c4 	movw	r3, #2500	; 0x9c4
 8006db2:	9300      	str	r3, [sp, #0]
 8006db4:	f240 43e2 	movw	r3, #1250	; 0x4e2
 8006db8:	f640 32b8 	movw	r2, #3000	; 0xbb8
 8006dbc:	f44f 7161 	mov.w	r1, #900	; 0x384
 8006dc0:	f7ff ff94 	bl	8006cec <map>
 8006dc4:	4f6d      	ldr	r7, [pc, #436]	; (8006f7c <pulse_posedge_handler+0x1f0>)
 8006dc6:	6038      	str	r0, [r7, #0]
		roll_setpoint = map(R_Joystick_XPos, 0, 4095, -33, 33);
 8006dc8:	4b6d      	ldr	r3, [pc, #436]	; (8006f80 <pulse_posedge_handler+0x1f4>)
 8006dca:	f9b3 0000 	ldrsh.w	r0, [r3]
 8006dce:	2421      	movs	r4, #33	; 0x21
 8006dd0:	9400      	str	r4, [sp, #0]
 8006dd2:	f06f 0320 	mvn.w	r3, #32
 8006dd6:	f640 72ff 	movw	r2, #4095	; 0xfff
 8006dda:	2100      	movs	r1, #0
 8006ddc:	f7ff ff86 	bl	8006cec <map>
 8006de0:	f8df 81e0 	ldr.w	r8, [pc, #480]	; 8006fc4 <pulse_posedge_handler+0x238>
 8006de4:	ee07 0a90 	vmov	s15, r0
 8006de8:	eef8 7ae7 	vcvt.f32.s32	s15, s15
 8006dec:	edc8 7a00 	vstr	s15, [r8]
		pitch_setpoint = map(R_Joystick_YPos, 0, 4095, -33, 33);
 8006df0:	4b64      	ldr	r3, [pc, #400]	; (8006f84 <pulse_posedge_handler+0x1f8>)
 8006df2:	f9b3 0000 	ldrsh.w	r0, [r3]
 8006df6:	9400      	str	r4, [sp, #0]
 8006df8:	f06f 0320 	mvn.w	r3, #32
 8006dfc:	f640 72ff 	movw	r2, #4095	; 0xfff
 8006e00:	2100      	movs	r1, #0
 8006e02:	f7ff ff73 	bl	8006cec <map>
 8006e06:	f8df 91c0 	ldr.w	r9, [pc, #448]	; 8006fc8 <pulse_posedge_handler+0x23c>
 8006e0a:	ee07 0a90 	vmov	s15, r0
 8006e0e:	eef8 7ae7 	vcvt.f32.s32	s15, s15
 8006e12:	edc9 7a00 	vstr	s15, [r9]
		tim3_count = htim3.Instance->CNT; //read TIM3 counter value, used for integral calculations
 8006e16:	4d5c      	ldr	r5, [pc, #368]	; (8006f88 <pulse_posedge_handler+0x1fc>)
 8006e18:	682b      	ldr	r3, [r5, #0]
 8006e1a:	6a58      	ldr	r0, [r3, #36]	; 0x24
 8006e1c:	4c5b      	ldr	r4, [pc, #364]	; (8006f8c <pulse_posedge_handler+0x200>)
 8006e1e:	6020      	str	r0, [r4, #0]
		calc_RollPitchYaw(tim3_count);
 8006e20:	f7fb f952 	bl	80020c8 <calc_RollPitchYaw>
		imu_pitch = get_pitch();
 8006e24:	f7fa f8a0 	bl	8000f68 <get_pitch>
 8006e28:	4e59      	ldr	r6, [pc, #356]	; (8006f90 <pulse_posedge_handler+0x204>)
 8006e2a:	ed86 0a00 	vstr	s0, [r6]
		tim3_count = htim3.Instance->CNT;
 8006e2e:	682b      	ldr	r3, [r5, #0]
 8006e30:	6a58      	ldr	r0, [r3, #36]	; 0x24
 8006e32:	6020      	str	r0, [r4, #0]
		pid_output_pitch = pid_calculate_pitch(imu_pitch, tim3_count, pitch_setpoint);
 8006e34:	edd9 0a00 	vldr	s1, [r9]
 8006e38:	f7fc fa9a 	bl	8003370 <pid_calculate_pitch>
 8006e3c:	4b55      	ldr	r3, [pc, #340]	; (8006f94 <pulse_posedge_handler+0x208>)
 8006e3e:	ed83 0a00 	vstr	s0, [r3]
		imu_roll = get_roll();
 8006e42:	f7fa f88b 	bl	8000f5c <get_roll>
 8006e46:	4b54      	ldr	r3, [pc, #336]	; (8006f98 <pulse_posedge_handler+0x20c>)
 8006e48:	ed83 0a00 	vstr	s0, [r3]
		tim3_count = htim3.Instance->CNT;
 8006e4c:	682b      	ldr	r3, [r5, #0]
 8006e4e:	6a58      	ldr	r0, [r3, #36]	; 0x24
 8006e50:	6020      	str	r0, [r4, #0]
		pid_output_roll = pid_calculate_roll(imu_pitch, tim3_count, roll_setpoint);
 8006e52:	edd8 0a00 	vldr	s1, [r8]
 8006e56:	ed96 0a00 	vldr	s0, [r6]
 8006e5a:	f7fc f9f9 	bl	8003250 <pid_calculate_roll>
 8006e5e:	4e4f      	ldr	r6, [pc, #316]	; (8006f9c <pulse_posedge_handler+0x210>)
 8006e60:	ed86 0a00 	vstr	s0, [r6]
		imu_yaw = get_yaw();
 8006e64:	f7fa f886 	bl	8000f74 <get_yaw>
 8006e68:	4b4d      	ldr	r3, [pc, #308]	; (8006fa0 <pulse_posedge_handler+0x214>)
 8006e6a:	ed83 0a00 	vstr	s0, [r3]
		tim3_count = htim3.Instance->CNT;
 8006e6e:	682b      	ldr	r3, [r5, #0]
 8006e70:	6a58      	ldr	r0, [r3, #36]	; 0x24
 8006e72:	6020      	str	r0, [r4, #0]
		pid_output_yaw = pid_calculate_yaw(imu_yaw, tim3_count, yaw_setpoint);
 8006e74:	4b4b      	ldr	r3, [pc, #300]	; (8006fa4 <pulse_posedge_handler+0x218>)
 8006e76:	edd3 0a00 	vldr	s1, [r3]
 8006e7a:	f7fc fb09 	bl	8003490 <pid_calculate_yaw>
 8006e7e:	4b4a      	ldr	r3, [pc, #296]	; (8006fa8 <pulse_posedge_handler+0x21c>)
 8006e80:	ed83 0a00 	vstr	s0, [r3]
		esc1_total = ESC_MIN + throttle + (int) pid_output_roll;
 8006e84:	6839      	ldr	r1, [r7, #0]
 8006e86:	f201 41e2 	addw	r1, r1, #1250	; 0x4e2
 8006e8a:	edd6 7a00 	vldr	s15, [r6]
 8006e8e:	eefd 7ae7 	vcvt.s32.f32	s15, s15
 8006e92:	ee17 3a90 	vmov	r3, s15
 8006e96:	18ca      	adds	r2, r1, r3
 8006e98:	4844      	ldr	r0, [pc, #272]	; (8006fac <pulse_posedge_handler+0x220>)
 8006e9a:	6002      	str	r2, [r0, #0]
		esc2_total = ESC_MIN + throttle + (int) pid_output_roll;
 8006e9c:	4844      	ldr	r0, [pc, #272]	; (8006fb0 <pulse_posedge_handler+0x224>)
 8006e9e:	6002      	str	r2, [r0, #0]
		esc3_total = (ESC_MIN + throttle) - (int) pid_output_roll;
 8006ea0:	1acb      	subs	r3, r1, r3
 8006ea2:	4944      	ldr	r1, [pc, #272]	; (8006fb4 <pulse_posedge_handler+0x228>)
 8006ea4:	600b      	str	r3, [r1, #0]
		esc4_total = (ESC_MIN + throttle) - (int) pid_output_roll;
 8006ea6:	4944      	ldr	r1, [pc, #272]	; (8006fb8 <pulse_posedge_handler+0x22c>)
 8006ea8:	600b      	str	r3, [r1, #0]
		if (esc1_total < ESC_MIN) {
 8006eaa:	f240 41e1 	movw	r1, #1249	; 0x4e1
 8006eae:	428a      	cmp	r2, r1
 8006eb0:	dc03      	bgt.n	8006eba <pulse_posedge_handler+0x12e>
			esc1_total = ESC_MIN;
 8006eb2:	493e      	ldr	r1, [pc, #248]	; (8006fac <pulse_posedge_handler+0x220>)
 8006eb4:	f240 40e2 	movw	r0, #1250	; 0x4e2
 8006eb8:	6008      	str	r0, [r1, #0]
		if (esc1_total > ESC_MAX) {
 8006eba:	493c      	ldr	r1, [pc, #240]	; (8006fac <pulse_posedge_handler+0x220>)
 8006ebc:	6808      	ldr	r0, [r1, #0]
 8006ebe:	f640 11c4 	movw	r1, #2500	; 0x9c4
 8006ec2:	4288      	cmp	r0, r1
 8006ec4:	dd03      	ble.n	8006ece <pulse_posedge_handler+0x142>
			esc1_total = ESC_MAX;
 8006ec6:	4939      	ldr	r1, [pc, #228]	; (8006fac <pulse_posedge_handler+0x220>)
 8006ec8:	f640 10c4 	movw	r0, #2500	; 0x9c4
 8006ecc:	6008      	str	r0, [r1, #0]
		if (esc2_total < ESC_MIN) {
 8006ece:	f240 41e1 	movw	r1, #1249	; 0x4e1
 8006ed2:	428a      	cmp	r2, r1
 8006ed4:	dc03      	bgt.n	8006ede <pulse_posedge_handler+0x152>
			esc2_total = ESC_MIN;
 8006ed6:	4a36      	ldr	r2, [pc, #216]	; (8006fb0 <pulse_posedge_handler+0x224>)
 8006ed8:	f240 41e2 	movw	r1, #1250	; 0x4e2
 8006edc:	6011      	str	r1, [r2, #0]
		if (esc2_total > ESC_MAX) {
 8006ede:	4a34      	ldr	r2, [pc, #208]	; (8006fb0 <pulse_posedge_handler+0x224>)
 8006ee0:	6811      	ldr	r1, [r2, #0]
 8006ee2:	f640 12c4 	movw	r2, #2500	; 0x9c4
 8006ee6:	4291      	cmp	r1, r2
 8006ee8:	dd03      	ble.n	8006ef2 <pulse_posedge_handler+0x166>
			esc2_total = ESC_MAX;
 8006eea:	4a31      	ldr	r2, [pc, #196]	; (8006fb0 <pulse_posedge_handler+0x224>)
 8006eec:	f640 11c4 	movw	r1, #2500	; 0x9c4
 8006ef0:	6011      	str	r1, [r2, #0]
		if (esc3_total < ESC_MIN) {
 8006ef2:	f240 42e1 	movw	r2, #1249	; 0x4e1
 8006ef6:	4293      	cmp	r3, r2
 8006ef8:	dc03      	bgt.n	8006f02 <pulse_posedge_handler+0x176>
			esc3_total = ESC_MIN;
 8006efa:	4a2e      	ldr	r2, [pc, #184]	; (8006fb4 <pulse_posedge_handler+0x228>)
 8006efc:	f240 41e2 	movw	r1, #1250	; 0x4e2
 8006f00:	6011      	str	r1, [r2, #0]
		if (esc3_total > ESC_MAX) {
 8006f02:	4a2c      	ldr	r2, [pc, #176]	; (8006fb4 <pulse_posedge_handler+0x228>)
 8006f04:	6811      	ldr	r1, [r2, #0]
 8006f06:	f640 12c4 	movw	r2, #2500	; 0x9c4
 8006f0a:	4291      	cmp	r1, r2
 8006f0c:	dd03      	ble.n	8006f16 <pulse_posedge_handler+0x18a>
			esc3_total = ESC_MAX;
 8006f0e:	4a29      	ldr	r2, [pc, #164]	; (8006fb4 <pulse_posedge_handler+0x228>)
 8006f10:	f640 11c4 	movw	r1, #2500	; 0x9c4
 8006f14:	6011      	str	r1, [r2, #0]
		if (esc4_total < ESC_MIN) {
 8006f16:	f240 42e1 	movw	r2, #1249	; 0x4e1
 8006f1a:	4293      	cmp	r3, r2
 8006f1c:	dc03      	bgt.n	8006f26 <pulse_posedge_handler+0x19a>
			esc4_total = ESC_MIN;
 8006f1e:	4b26      	ldr	r3, [pc, #152]	; (8006fb8 <pulse_posedge_handler+0x22c>)
 8006f20:	f240 42e2 	movw	r2, #1250	; 0x4e2
 8006f24:	601a      	str	r2, [r3, #0]
		if (esc4_total > ESC_MAX) {
 8006f26:	4b24      	ldr	r3, [pc, #144]	; (8006fb8 <pulse_posedge_handler+0x22c>)
 8006f28:	681a      	ldr	r2, [r3, #0]
 8006f2a:	f640 13c4 	movw	r3, #2500	; 0x9c4
 8006f2e:	429a      	cmp	r2, r3
 8006f30:	dd03      	ble.n	8006f3a <pulse_posedge_handler+0x1ae>
			esc4_total = ESC_MAX;
 8006f32:	4b21      	ldr	r3, [pc, #132]	; (8006fb8 <pulse_posedge_handler+0x22c>)
 8006f34:	f640 12c4 	movw	r2, #2500	; 0x9c4
 8006f38:	601a      	str	r2, [r3, #0]
		PWM1_Set(esc1_total); //PWM1 = Back left, CW
 8006f3a:	4b1c      	ldr	r3, [pc, #112]	; (8006fac <pulse_posedge_handler+0x220>)
 8006f3c:	8818      	ldrh	r0, [r3, #0]
 8006f3e:	f7ff febd 	bl	8006cbc <PWM1_Set>
		PWM2_Set(esc2_total); //PWM2 = Front left, CCW
 8006f42:	4b1b      	ldr	r3, [pc, #108]	; (8006fb0 <pulse_posedge_handler+0x224>)
 8006f44:	8818      	ldrh	r0, [r3, #0]
 8006f46:	f7ff febf 	bl	8006cc8 <PWM2_Set>
		PWM3_Set(esc3_total); //PWM3 = Back right, CCW
 8006f4a:	4b1a      	ldr	r3, [pc, #104]	; (8006fb4 <pulse_posedge_handler+0x228>)
 8006f4c:	8818      	ldrh	r0, [r3, #0]
 8006f4e:	f7ff fec1 	bl	8006cd4 <PWM3_Set>
		PWM4_Set(esc4_total); //PWM4 = Front right, CW
 8006f52:	4b19      	ldr	r3, [pc, #100]	; (8006fb8 <pulse_posedge_handler+0x22c>)
 8006f54:	8818      	ldrh	r0, [r3, #0]
 8006f56:	f7ff fec3 	bl	8006ce0 <PWM4_Set>
}
 8006f5a:	b003      	add	sp, #12
 8006f5c:	e8bd 83f0 	ldmia.w	sp!, {r4, r5, r6, r7, r8, r9, pc}
			NRF24_read(RxData, 32);
 8006f60:	2120      	movs	r1, #32
 8006f62:	4816      	ldr	r0, [pc, #88]	; (8006fbc <pulse_posedge_handler+0x230>)
 8006f64:	f7fb fc9b 	bl	800289e <NRF24_read>
			NRF24_writeAckPayload(1, AckPayload, 32);
 8006f68:	2220      	movs	r2, #32
 8006f6a:	4915      	ldr	r1, [pc, #84]	; (8006fc0 <pulse_posedge_handler+0x234>)
 8006f6c:	2001      	movs	r0, #1
 8006f6e:	f7fb fd3b 	bl	80029e8 <NRF24_writeAckPayload>
 8006f72:	e717      	b.n	8006da4 <pulse_posedge_handler+0x18>
 8006f74:	200003a4 	.word	0x200003a4
 8006f78:	200004c8 	.word	0x200004c8
 8006f7c:	200003bc 	.word	0x200003bc
 8006f80:	200006ac 	.word	0x200006ac
 8006f84:	20000758 	.word	0x20000758
 8006f88:	200005c4 	.word	0x200005c4
 8006f8c:	200003c0 	.word	0x200003c0
 8006f90:	200006b4 	.word	0x200006b4
 8006f94:	200003a8 	.word	0x200003a8
 8006f98:	200006b0 	.word	0x200006b0
 8006f9c:	200003ac 	.word	0x200003ac
 8006fa0:	200004c4 	.word	0x200004c4
 8006fa4:	200003c4 	.word	0x200003c4
 8006fa8:	200003b0 	.word	0x200003b0
 8006fac:	20000394 	.word	0x20000394
 8006fb0:	20000398 	.word	0x20000398
 8006fb4:	2000039c 	.word	0x2000039c
 8006fb8:	200003a0 	.word	0x200003a0
 8006fbc:	200006f8 	.word	0x200006f8
 8006fc0:	20000064 	.word	0x20000064
 8006fc4:	200003b8 	.word	0x200003b8
 8006fc8:	200003b4 	.word	0x200003b4

08006fcc <HAL_GPIO_EXTI_Callback>:
	if (GPIO_Pin == PWM_RE_INT_Pin && main_loop) {
 8006fcc:	f5b0 7f80 	cmp.w	r0, #256	; 0x100
 8006fd0:	d000      	beq.n	8006fd4 <HAL_GPIO_EXTI_Callback+0x8>
 8006fd2:	4770      	bx	lr
 8006fd4:	4b08      	ldr	r3, [pc, #32]	; (8006ff8 <HAL_GPIO_EXTI_Callback+0x2c>)
 8006fd6:	781b      	ldrb	r3, [r3, #0]
 8006fd8:	2b00      	cmp	r3, #0
 8006fda:	d0fa      	beq.n	8006fd2 <HAL_GPIO_EXTI_Callback+0x6>
void HAL_GPIO_EXTI_Callback(uint16_t GPIO_Pin) {
 8006fdc:	b510      	push	{r4, lr}
		HAL_GPIO_TogglePin(GPIOC, GPIO_PIN_3);
 8006fde:	4c07      	ldr	r4, [pc, #28]	; (8006ffc <HAL_GPIO_EXTI_Callback+0x30>)
 8006fe0:	2108      	movs	r1, #8
 8006fe2:	4620      	mov	r0, r4
 8006fe4:	f7fd f81a 	bl	800401c <HAL_GPIO_TogglePin>
		pulse_posedge_handler();
 8006fe8:	f7ff fed0 	bl	8006d8c <pulse_posedge_handler>
		HAL_GPIO_TogglePin(GPIOC, GPIO_PIN_3);
 8006fec:	2108      	movs	r1, #8
 8006fee:	4620      	mov	r0, r4
 8006ff0:	f7fd f814 	bl	800401c <HAL_GPIO_TogglePin>
}
 8006ff4:	bd10      	pop	{r4, pc}
 8006ff6:	bf00      	nop
 8006ff8:	200003a4 	.word	0x200003a4
 8006ffc:	40020800 	.word	0x40020800

08007000 <Error_Handler>:
{
  /* USER CODE BEGIN Error_Handler_Debug */
	/* User can add his own implementation to report the HAL error return state */

  /* USER CODE END Error_Handler_Debug */
}
 8007000:	4770      	bx	lr
	...

08007004 <HAL_MspInit>:
void HAL_TIM_MspPostInit(TIM_HandleTypeDef *htim);
                    /**
  * Initializes the Global MSP.
  */
void HAL_MspInit(void)
{
 8007004:	b500      	push	{lr}
 8007006:	b083      	sub	sp, #12
  /* USER CODE BEGIN MspInit 0 */

  /* USER CODE END MspInit 0 */

  __HAL_RCC_SYSCFG_CLK_ENABLE();
 8007008:	2100      	movs	r1, #0
 800700a:	9100      	str	r1, [sp, #0]
 800700c:	4b0c      	ldr	r3, [pc, #48]	; (8007040 <HAL_MspInit+0x3c>)
 800700e:	6c5a      	ldr	r2, [r3, #68]	; 0x44
 8007010:	f442 4280 	orr.w	r2, r2, #16384	; 0x4000
 8007014:	645a      	str	r2, [r3, #68]	; 0x44
 8007016:	6c5a      	ldr	r2, [r3, #68]	; 0x44
 8007018:	f402 4280 	and.w	r2, r2, #16384	; 0x4000
 800701c:	9200      	str	r2, [sp, #0]
 800701e:	9a00      	ldr	r2, [sp, #0]
  __HAL_RCC_PWR_CLK_ENABLE();
 8007020:	9101      	str	r1, [sp, #4]
 8007022:	6c1a      	ldr	r2, [r3, #64]	; 0x40
 8007024:	f042 5280 	orr.w	r2, r2, #268435456	; 0x10000000
 8007028:	641a      	str	r2, [r3, #64]	; 0x40
 800702a:	6c1b      	ldr	r3, [r3, #64]	; 0x40
 800702c:	f003 5380 	and.w	r3, r3, #268435456	; 0x10000000
 8007030:	9301      	str	r3, [sp, #4]
 8007032:	9b01      	ldr	r3, [sp, #4]

  HAL_NVIC_SetPriorityGrouping(NVIC_PRIORITYGROUP_0);
 8007034:	2007      	movs	r0, #7
 8007036:	f7fc fce1 	bl	80039fc <HAL_NVIC_SetPriorityGrouping>
  /* System interrupt init*/

  /* USER CODE BEGIN MspInit 1 */

  /* USER CODE END MspInit 1 */
}
 800703a:	b003      	add	sp, #12
 800703c:	f85d fb04 	ldr.w	pc, [sp], #4
 8007040:	40023800 	.word	0x40023800

08007044 <HAL_ADC_MspInit>:
* This function configures the hardware resources used in this example
* @param hadc: ADC handle pointer
* @retval None
*/
void HAL_ADC_MspInit(ADC_HandleTypeDef* hadc)
{
 8007044:	b500      	push	{lr}
 8007046:	b089      	sub	sp, #36	; 0x24
  GPIO_InitTypeDef GPIO_InitStruct = {0};
 8007048:	2300      	movs	r3, #0
 800704a:	9303      	str	r3, [sp, #12]
 800704c:	9304      	str	r3, [sp, #16]
 800704e:	9305      	str	r3, [sp, #20]
 8007050:	9306      	str	r3, [sp, #24]
 8007052:	9307      	str	r3, [sp, #28]
  if(hadc->Instance==ADC1)
 8007054:	6802      	ldr	r2, [r0, #0]
 8007056:	f103 4380 	add.w	r3, r3, #1073741824	; 0x40000000
 800705a:	f503 3390 	add.w	r3, r3, #73728	; 0x12000
 800705e:	429a      	cmp	r2, r3
 8007060:	d002      	beq.n	8007068 <HAL_ADC_MspInit+0x24>
  /* USER CODE BEGIN ADC1_MspInit 1 */

  /* USER CODE END ADC1_MspInit 1 */
  }

}
 8007062:	b009      	add	sp, #36	; 0x24
 8007064:	f85d fb04 	ldr.w	pc, [sp], #4
    __HAL_RCC_ADC1_CLK_ENABLE();
 8007068:	2100      	movs	r1, #0
 800706a:	9101      	str	r1, [sp, #4]
 800706c:	f503 338c 	add.w	r3, r3, #71680	; 0x11800
 8007070:	6c5a      	ldr	r2, [r3, #68]	; 0x44
 8007072:	f442 7280 	orr.w	r2, r2, #256	; 0x100
 8007076:	645a      	str	r2, [r3, #68]	; 0x44
 8007078:	6c5a      	ldr	r2, [r3, #68]	; 0x44
 800707a:	f402 7280 	and.w	r2, r2, #256	; 0x100
 800707e:	9201      	str	r2, [sp, #4]
 8007080:	9a01      	ldr	r2, [sp, #4]
    __HAL_RCC_GPIOB_CLK_ENABLE();
 8007082:	9102      	str	r1, [sp, #8]
 8007084:	6b1a      	ldr	r2, [r3, #48]	; 0x30
 8007086:	f042 0202 	orr.w	r2, r2, #2
 800708a:	631a      	str	r2, [r3, #48]	; 0x30
 800708c:	6b1b      	ldr	r3, [r3, #48]	; 0x30
 800708e:	f003 0302 	and.w	r3, r3, #2
 8007092:	9302      	str	r3, [sp, #8]
 8007094:	9b02      	ldr	r3, [sp, #8]
    GPIO_InitStruct.Pin = GPIO_PIN_0;
 8007096:	2301      	movs	r3, #1
 8007098:	9303      	str	r3, [sp, #12]
    GPIO_InitStruct.Mode = GPIO_MODE_ANALOG;
 800709a:	2303      	movs	r3, #3
 800709c:	9304      	str	r3, [sp, #16]
    HAL_GPIO_Init(GPIOB, &GPIO_InitStruct);
 800709e:	a903      	add	r1, sp, #12
 80070a0:	4801      	ldr	r0, [pc, #4]	; (80070a8 <HAL_ADC_MspInit+0x64>)
 80070a2:	f7fc fee3 	bl	8003e6c <HAL_GPIO_Init>
}
 80070a6:	e7dc      	b.n	8007062 <HAL_ADC_MspInit+0x1e>
 80070a8:	40020400 	.word	0x40020400

080070ac <HAL_I2C_MspInit>:
* This function configures the hardware resources used in this example
* @param hi2c: I2C handle pointer
* @retval None
*/
void HAL_I2C_MspInit(I2C_HandleTypeDef* hi2c)
{
 80070ac:	e92d 43f0 	stmdb	sp!, {r4, r5, r6, r7, r8, r9, lr}
 80070b0:	b089      	sub	sp, #36	; 0x24
  GPIO_InitTypeDef GPIO_InitStruct = {0};
 80070b2:	2300      	movs	r3, #0
 80070b4:	9303      	str	r3, [sp, #12]
 80070b6:	9304      	str	r3, [sp, #16]
 80070b8:	9305      	str	r3, [sp, #20]
 80070ba:	9306      	str	r3, [sp, #24]
 80070bc:	9307      	str	r3, [sp, #28]
  if(hi2c->Instance==I2C2)
 80070be:	6802      	ldr	r2, [r0, #0]
 80070c0:	4b1e      	ldr	r3, [pc, #120]	; (800713c <HAL_I2C_MspInit+0x90>)
 80070c2:	429a      	cmp	r2, r3
 80070c4:	d002      	beq.n	80070cc <HAL_I2C_MspInit+0x20>
  /* USER CODE BEGIN I2C2_MspInit 1 */

  /* USER CODE END I2C2_MspInit 1 */
  }

}
 80070c6:	b009      	add	sp, #36	; 0x24
 80070c8:	e8bd 83f0 	ldmia.w	sp!, {r4, r5, r6, r7, r8, r9, pc}
    __HAL_RCC_GPIOB_CLK_ENABLE();
 80070cc:	2500      	movs	r5, #0
 80070ce:	9501      	str	r5, [sp, #4]
 80070d0:	4c1b      	ldr	r4, [pc, #108]	; (8007140 <HAL_I2C_MspInit+0x94>)
 80070d2:	6b23      	ldr	r3, [r4, #48]	; 0x30
 80070d4:	f043 0302 	orr.w	r3, r3, #2
 80070d8:	6323      	str	r3, [r4, #48]	; 0x30
 80070da:	6b23      	ldr	r3, [r4, #48]	; 0x30
 80070dc:	f003 0302 	and.w	r3, r3, #2
 80070e0:	9301      	str	r3, [sp, #4]
 80070e2:	9b01      	ldr	r3, [sp, #4]
    GPIO_InitStruct.Pin = GPIO_PIN_10;
 80070e4:	f44f 6380 	mov.w	r3, #1024	; 0x400
 80070e8:	9303      	str	r3, [sp, #12]
    GPIO_InitStruct.Mode = GPIO_MODE_AF_OD;
 80070ea:	f04f 0912 	mov.w	r9, #18
 80070ee:	f8cd 9010 	str.w	r9, [sp, #16]
    GPIO_InitStruct.Pull = GPIO_PULLUP;
 80070f2:	f04f 0801 	mov.w	r8, #1
 80070f6:	f8cd 8014 	str.w	r8, [sp, #20]
    GPIO_InitStruct.Speed = GPIO_SPEED_FREQ_VERY_HIGH;
 80070fa:	2703      	movs	r7, #3
 80070fc:	9706      	str	r7, [sp, #24]
    GPIO_InitStruct.Alternate = GPIO_AF4_I2C2;
 80070fe:	2304      	movs	r3, #4
 8007100:	9307      	str	r3, [sp, #28]
    HAL_GPIO_Init(GPIOB, &GPIO_InitStruct);
 8007102:	4e10      	ldr	r6, [pc, #64]	; (8007144 <HAL_I2C_MspInit+0x98>)
 8007104:	a903      	add	r1, sp, #12
 8007106:	4630      	mov	r0, r6
 8007108:	f7fc feb0 	bl	8003e6c <HAL_GPIO_Init>
    GPIO_InitStruct.Pin = GPIO_PIN_3;
 800710c:	2308      	movs	r3, #8
 800710e:	9303      	str	r3, [sp, #12]
    GPIO_InitStruct.Mode = GPIO_MODE_AF_OD;
 8007110:	f8cd 9010 	str.w	r9, [sp, #16]
    GPIO_InitStruct.Pull = GPIO_PULLUP;
 8007114:	f8cd 8014 	str.w	r8, [sp, #20]
    GPIO_InitStruct.Speed = GPIO_SPEED_FREQ_VERY_HIGH;
 8007118:	9706      	str	r7, [sp, #24]
    GPIO_InitStruct.Alternate = GPIO_AF9_I2C2;
 800711a:	2309      	movs	r3, #9
 800711c:	9307      	str	r3, [sp, #28]
    HAL_GPIO_Init(GPIOB, &GPIO_InitStruct);
 800711e:	a903      	add	r1, sp, #12
 8007120:	4630      	mov	r0, r6
 8007122:	f7fc fea3 	bl	8003e6c <HAL_GPIO_Init>
    __HAL_RCC_I2C2_CLK_ENABLE();
 8007126:	9502      	str	r5, [sp, #8]
 8007128:	6c23      	ldr	r3, [r4, #64]	; 0x40
 800712a:	f443 0380 	orr.w	r3, r3, #4194304	; 0x400000
 800712e:	6423      	str	r3, [r4, #64]	; 0x40
 8007130:	6c23      	ldr	r3, [r4, #64]	; 0x40
 8007132:	f403 0380 	and.w	r3, r3, #4194304	; 0x400000
 8007136:	9302      	str	r3, [sp, #8]
 8007138:	9b02      	ldr	r3, [sp, #8]
}
 800713a:	e7c4      	b.n	80070c6 <HAL_I2C_MspInit+0x1a>
 800713c:	40005800 	.word	0x40005800
 8007140:	40023800 	.word	0x40023800
 8007144:	40020400 	.word	0x40020400

08007148 <HAL_SPI_MspInit>:
* This function configures the hardware resources used in this example
* @param hspi: SPI handle pointer
* @retval None
*/
void HAL_SPI_MspInit(SPI_HandleTypeDef* hspi)
{
 8007148:	b5f0      	push	{r4, r5, r6, r7, lr}
 800714a:	b089      	sub	sp, #36	; 0x24
  GPIO_InitTypeDef GPIO_InitStruct = {0};
 800714c:	2300      	movs	r3, #0
 800714e:	9303      	str	r3, [sp, #12]
 8007150:	9304      	str	r3, [sp, #16]
 8007152:	9305      	str	r3, [sp, #20]
 8007154:	9306      	str	r3, [sp, #24]
 8007156:	9307      	str	r3, [sp, #28]
  if(hspi->Instance==SPI2)
 8007158:	6802      	ldr	r2, [r0, #0]
 800715a:	4b1f      	ldr	r3, [pc, #124]	; (80071d8 <HAL_SPI_MspInit+0x90>)
 800715c:	429a      	cmp	r2, r3
 800715e:	d001      	beq.n	8007164 <HAL_SPI_MspInit+0x1c>
  /* USER CODE BEGIN SPI2_MspInit 1 */

  /* USER CODE END SPI2_MspInit 1 */
  }

}
 8007160:	b009      	add	sp, #36	; 0x24
 8007162:	bdf0      	pop	{r4, r5, r6, r7, pc}
    __HAL_RCC_SPI2_CLK_ENABLE();
 8007164:	2400      	movs	r4, #0
 8007166:	9400      	str	r4, [sp, #0]
 8007168:	f503 3300 	add.w	r3, r3, #131072	; 0x20000
 800716c:	6c1a      	ldr	r2, [r3, #64]	; 0x40
 800716e:	f442 4280 	orr.w	r2, r2, #16384	; 0x4000
 8007172:	641a      	str	r2, [r3, #64]	; 0x40
 8007174:	6c1a      	ldr	r2, [r3, #64]	; 0x40
 8007176:	f402 4280 	and.w	r2, r2, #16384	; 0x4000
 800717a:	9200      	str	r2, [sp, #0]
 800717c:	9a00      	ldr	r2, [sp, #0]
    __HAL_RCC_GPIOC_CLK_ENABLE();
 800717e:	9401      	str	r4, [sp, #4]
 8007180:	6b1a      	ldr	r2, [r3, #48]	; 0x30
 8007182:	f042 0204 	orr.w	r2, r2, #4
 8007186:	631a      	str	r2, [r3, #48]	; 0x30
 8007188:	6b1a      	ldr	r2, [r3, #48]	; 0x30
 800718a:	f002 0204 	and.w	r2, r2, #4
 800718e:	9201      	str	r2, [sp, #4]
 8007190:	9a01      	ldr	r2, [sp, #4]
    __HAL_RCC_GPIOB_CLK_ENABLE();
 8007192:	9402      	str	r4, [sp, #8]
 8007194:	6b1a      	ldr	r2, [r3, #48]	; 0x30
 8007196:	f042 0202 	orr.w	r2, r2, #2
 800719a:	631a      	str	r2, [r3, #48]	; 0x30
 800719c:	6b1b      	ldr	r3, [r3, #48]	; 0x30
 800719e:	f003 0302 	and.w	r3, r3, #2
 80071a2:	9302      	str	r3, [sp, #8]
 80071a4:	9b02      	ldr	r3, [sp, #8]
    GPIO_InitStruct.Pin = GPIO_PIN_2;
 80071a6:	2304      	movs	r3, #4
 80071a8:	9303      	str	r3, [sp, #12]
    GPIO_InitStruct.Mode = GPIO_MODE_AF_PP;
 80071aa:	2702      	movs	r7, #2
 80071ac:	9704      	str	r7, [sp, #16]
    GPIO_InitStruct.Speed = GPIO_SPEED_FREQ_VERY_HIGH;
 80071ae:	2603      	movs	r6, #3
 80071b0:	9606      	str	r6, [sp, #24]
    GPIO_InitStruct.Alternate = GPIO_AF5_SPI2;
 80071b2:	2505      	movs	r5, #5
 80071b4:	9507      	str	r5, [sp, #28]
    HAL_GPIO_Init(GPIOC, &GPIO_InitStruct);
 80071b6:	a903      	add	r1, sp, #12
 80071b8:	4808      	ldr	r0, [pc, #32]	; (80071dc <HAL_SPI_MspInit+0x94>)
 80071ba:	f7fc fe57 	bl	8003e6c <HAL_GPIO_Init>
    GPIO_InitStruct.Pin = GPIO_PIN_13|GPIO_PIN_15;
 80071be:	f44f 4320 	mov.w	r3, #40960	; 0xa000
 80071c2:	9303      	str	r3, [sp, #12]
    GPIO_InitStruct.Mode = GPIO_MODE_AF_PP;
 80071c4:	9704      	str	r7, [sp, #16]
    GPIO_InitStruct.Pull = GPIO_NOPULL;
 80071c6:	9405      	str	r4, [sp, #20]
    GPIO_InitStruct.Speed = GPIO_SPEED_FREQ_VERY_HIGH;
 80071c8:	9606      	str	r6, [sp, #24]
    GPIO_InitStruct.Alternate = GPIO_AF5_SPI2;
 80071ca:	9507      	str	r5, [sp, #28]
    HAL_GPIO_Init(GPIOB, &GPIO_InitStruct);
 80071cc:	a903      	add	r1, sp, #12
 80071ce:	4804      	ldr	r0, [pc, #16]	; (80071e0 <HAL_SPI_MspInit+0x98>)
 80071d0:	f7fc fe4c 	bl	8003e6c <HAL_GPIO_Init>
}
 80071d4:	e7c4      	b.n	8007160 <HAL_SPI_MspInit+0x18>
 80071d6:	bf00      	nop
 80071d8:	40003800 	.word	0x40003800
 80071dc:	40020800 	.word	0x40020800
 80071e0:	40020400 	.word	0x40020400

080071e4 <HAL_TIM_Base_MspInit>:
* @param htim_base: TIM_Base handle pointer
* @retval None
*/
void HAL_TIM_Base_MspInit(TIM_HandleTypeDef* htim_base)
{
  if(htim_base->Instance==TIM3)
 80071e4:	6802      	ldr	r2, [r0, #0]
 80071e6:	4b0e      	ldr	r3, [pc, #56]	; (8007220 <HAL_TIM_Base_MspInit+0x3c>)
 80071e8:	429a      	cmp	r2, r3
 80071ea:	d000      	beq.n	80071ee <HAL_TIM_Base_MspInit+0xa>
 80071ec:	4770      	bx	lr
{
 80071ee:	b500      	push	{lr}
 80071f0:	b083      	sub	sp, #12
  {
  /* USER CODE BEGIN TIM3_MspInit 0 */

  /* USER CODE END TIM3_MspInit 0 */
    /* Peripheral clock enable */
    __HAL_RCC_TIM3_CLK_ENABLE();
 80071f2:	2100      	movs	r1, #0
 80071f4:	9101      	str	r1, [sp, #4]
 80071f6:	f503 330d 	add.w	r3, r3, #144384	; 0x23400
 80071fa:	6c1a      	ldr	r2, [r3, #64]	; 0x40
 80071fc:	f042 0202 	orr.w	r2, r2, #2
 8007200:	641a      	str	r2, [r3, #64]	; 0x40
 8007202:	6c1b      	ldr	r3, [r3, #64]	; 0x40
 8007204:	f003 0302 	and.w	r3, r3, #2
 8007208:	9301      	str	r3, [sp, #4]
 800720a:	9b01      	ldr	r3, [sp, #4]
    /* TIM3 interrupt Init */
    HAL_NVIC_SetPriority(TIM3_IRQn, 0, 0);
 800720c:	460a      	mov	r2, r1
 800720e:	201d      	movs	r0, #29
 8007210:	f7fc fc06 	bl	8003a20 <HAL_NVIC_SetPriority>
    HAL_NVIC_EnableIRQ(TIM3_IRQn);
 8007214:	201d      	movs	r0, #29
 8007216:	f7fc fc37 	bl	8003a88 <HAL_NVIC_EnableIRQ>
  /* USER CODE BEGIN TIM3_MspInit 1 */

  /* USER CODE END TIM3_MspInit 1 */
  }

}
 800721a:	b003      	add	sp, #12
 800721c:	f85d fb04 	ldr.w	pc, [sp], #4
 8007220:	40000400 	.word	0x40000400

08007224 <HAL_TIM_PWM_MspInit>:
* @param htim_pwm: TIM_PWM handle pointer
* @retval None
*/
void HAL_TIM_PWM_MspInit(TIM_HandleTypeDef* htim_pwm)
{
  if(htim_pwm->Instance==TIM4)
 8007224:	6802      	ldr	r2, [r0, #0]
 8007226:	4b0e      	ldr	r3, [pc, #56]	; (8007260 <HAL_TIM_PWM_MspInit+0x3c>)
 8007228:	429a      	cmp	r2, r3
 800722a:	d000      	beq.n	800722e <HAL_TIM_PWM_MspInit+0xa>
 800722c:	4770      	bx	lr
{
 800722e:	b500      	push	{lr}
 8007230:	b083      	sub	sp, #12
  {
  /* USER CODE BEGIN TIM4_MspInit 0 */

  /* USER CODE END TIM4_MspInit 0 */
    /* Peripheral clock enable */
    __HAL_RCC_TIM4_CLK_ENABLE();
 8007232:	2100      	movs	r1, #0
 8007234:	9101      	str	r1, [sp, #4]
 8007236:	f503 330c 	add.w	r3, r3, #143360	; 0x23000
 800723a:	6c1a      	ldr	r2, [r3, #64]	; 0x40
 800723c:	f042 0204 	orr.w	r2, r2, #4
 8007240:	641a      	str	r2, [r3, #64]	; 0x40
 8007242:	6c1b      	ldr	r3, [r3, #64]	; 0x40
 8007244:	f003 0304 	and.w	r3, r3, #4
 8007248:	9301      	str	r3, [sp, #4]
 800724a:	9b01      	ldr	r3, [sp, #4]
    /* TIM4 interrupt Init */
    HAL_NVIC_SetPriority(TIM4_IRQn, 0, 0);
 800724c:	460a      	mov	r2, r1
 800724e:	201e      	movs	r0, #30
 8007250:	f7fc fbe6 	bl	8003a20 <HAL_NVIC_SetPriority>
    HAL_NVIC_EnableIRQ(TIM4_IRQn);
 8007254:	201e      	movs	r0, #30
 8007256:	f7fc fc17 	bl	8003a88 <HAL_NVIC_EnableIRQ>
  /* USER CODE BEGIN TIM4_MspInit 1 */

  /* USER CODE END TIM4_MspInit 1 */
  }

}
 800725a:	b003      	add	sp, #12
 800725c:	f85d fb04 	ldr.w	pc, [sp], #4
 8007260:	40000800 	.word	0x40000800

08007264 <HAL_TIM_MspPostInit>:

void HAL_TIM_MspPostInit(TIM_HandleTypeDef* htim)
{
 8007264:	b570      	push	{r4, r5, r6, lr}
 8007266:	b086      	sub	sp, #24
  GPIO_InitTypeDef GPIO_InitStruct = {0};
 8007268:	2300      	movs	r3, #0
 800726a:	9301      	str	r3, [sp, #4]
 800726c:	9302      	str	r3, [sp, #8]
 800726e:	9303      	str	r3, [sp, #12]
 8007270:	9304      	str	r3, [sp, #16]
 8007272:	9305      	str	r3, [sp, #20]
  if(htim->Instance==TIM4)
 8007274:	6802      	ldr	r2, [r0, #0]
 8007276:	4b15      	ldr	r3, [pc, #84]	; (80072cc <HAL_TIM_MspPostInit+0x68>)
 8007278:	429a      	cmp	r2, r3
 800727a:	d001      	beq.n	8007280 <HAL_TIM_MspPostInit+0x1c>
  /* USER CODE BEGIN TIM4_MspPostInit 1 */

  /* USER CODE END TIM4_MspPostInit 1 */
  }

}
 800727c:	b006      	add	sp, #24
 800727e:	bd70      	pop	{r4, r5, r6, pc}
    __HAL_RCC_GPIOB_CLK_ENABLE();
 8007280:	2500      	movs	r5, #0
 8007282:	9500      	str	r5, [sp, #0]
 8007284:	f503 330c 	add.w	r3, r3, #143360	; 0x23000
 8007288:	6b1a      	ldr	r2, [r3, #48]	; 0x30
 800728a:	f042 0202 	orr.w	r2, r2, #2
 800728e:	631a      	str	r2, [r3, #48]	; 0x30
 8007290:	6b1b      	ldr	r3, [r3, #48]	; 0x30
 8007292:	f003 0302 	and.w	r3, r3, #2
 8007296:	9300      	str	r3, [sp, #0]
 8007298:	9b00      	ldr	r3, [sp, #0]
    GPIO_InitStruct.Pin = GPIO_PIN_6|GPIO_PIN_7|GPIO_PIN_8;
 800729a:	f44f 73e0 	mov.w	r3, #448	; 0x1c0
 800729e:	9301      	str	r3, [sp, #4]
    GPIO_InitStruct.Mode = GPIO_MODE_AF_PP;
 80072a0:	2402      	movs	r4, #2
 80072a2:	9402      	str	r4, [sp, #8]
    GPIO_InitStruct.Speed = GPIO_SPEED_FREQ_VERY_HIGH;
 80072a4:	2303      	movs	r3, #3
 80072a6:	9304      	str	r3, [sp, #16]
    GPIO_InitStruct.Alternate = GPIO_AF2_TIM4;
 80072a8:	9405      	str	r4, [sp, #20]
    HAL_GPIO_Init(GPIOB, &GPIO_InitStruct);
 80072aa:	4e09      	ldr	r6, [pc, #36]	; (80072d0 <HAL_TIM_MspPostInit+0x6c>)
 80072ac:	a901      	add	r1, sp, #4
 80072ae:	4630      	mov	r0, r6
 80072b0:	f7fc fddc 	bl	8003e6c <HAL_GPIO_Init>
    GPIO_InitStruct.Pin = GPIO_PIN_9;
 80072b4:	f44f 7300 	mov.w	r3, #512	; 0x200
 80072b8:	9301      	str	r3, [sp, #4]
    GPIO_InitStruct.Mode = GPIO_MODE_AF_PP;
 80072ba:	9402      	str	r4, [sp, #8]
    GPIO_InitStruct.Pull = GPIO_NOPULL;
 80072bc:	9503      	str	r5, [sp, #12]
    GPIO_InitStruct.Speed = GPIO_SPEED_FREQ_LOW;
 80072be:	9504      	str	r5, [sp, #16]
    GPIO_InitStruct.Alternate = GPIO_AF2_TIM4;
 80072c0:	9405      	str	r4, [sp, #20]
    HAL_GPIO_Init(GPIOB, &GPIO_InitStruct);
 80072c2:	a901      	add	r1, sp, #4
 80072c4:	4630      	mov	r0, r6
 80072c6:	f7fc fdd1 	bl	8003e6c <HAL_GPIO_Init>
}
 80072ca:	e7d7      	b.n	800727c <HAL_TIM_MspPostInit+0x18>
 80072cc:	40000800 	.word	0x40000800
 80072d0:	40020400 	.word	0x40020400

080072d4 <HAL_UART_MspInit>:
* This function configures the hardware resources used in this example
* @param huart: UART handle pointer
* @retval None
*/
void HAL_UART_MspInit(UART_HandleTypeDef* huart)
{
 80072d4:	b530      	push	{r4, r5, lr}
 80072d6:	b08b      	sub	sp, #44	; 0x2c
  GPIO_InitTypeDef GPIO_InitStruct = {0};
 80072d8:	2300      	movs	r3, #0
 80072da:	9305      	str	r3, [sp, #20]
 80072dc:	9306      	str	r3, [sp, #24]
 80072de:	9307      	str	r3, [sp, #28]
 80072e0:	9308      	str	r3, [sp, #32]
 80072e2:	9309      	str	r3, [sp, #36]	; 0x24
  if(huart->Instance==USART2)
 80072e4:	6803      	ldr	r3, [r0, #0]
 80072e6:	4a47      	ldr	r2, [pc, #284]	; (8007404 <HAL_UART_MspInit+0x130>)
 80072e8:	4293      	cmp	r3, r2
 80072ea:	d004      	beq.n	80072f6 <HAL_UART_MspInit+0x22>
    HAL_NVIC_EnableIRQ(USART2_IRQn);
  /* USER CODE BEGIN USART2_MspInit 1 */

  /* USER CODE END USART2_MspInit 1 */
  }
  else if(huart->Instance==USART6)
 80072ec:	4a46      	ldr	r2, [pc, #280]	; (8007408 <HAL_UART_MspInit+0x134>)
 80072ee:	4293      	cmp	r3, r2
 80072f0:	d063      	beq.n	80073ba <HAL_UART_MspInit+0xe6>
  /* USER CODE BEGIN USART6_MspInit 1 */

  /* USER CODE END USART6_MspInit 1 */
  }

}
 80072f2:	b00b      	add	sp, #44	; 0x2c
 80072f4:	bd30      	pop	{r4, r5, pc}
 80072f6:	4604      	mov	r4, r0
    __HAL_RCC_USART2_CLK_ENABLE();
 80072f8:	2500      	movs	r5, #0
 80072fa:	9501      	str	r5, [sp, #4]
 80072fc:	4b43      	ldr	r3, [pc, #268]	; (800740c <HAL_UART_MspInit+0x138>)
 80072fe:	6c1a      	ldr	r2, [r3, #64]	; 0x40
 8007300:	f442 3200 	orr.w	r2, r2, #131072	; 0x20000
 8007304:	641a      	str	r2, [r3, #64]	; 0x40
 8007306:	6c1a      	ldr	r2, [r3, #64]	; 0x40
 8007308:	f402 3200 	and.w	r2, r2, #131072	; 0x20000
 800730c:	9201      	str	r2, [sp, #4]
 800730e:	9a01      	ldr	r2, [sp, #4]
    __HAL_RCC_GPIOA_CLK_ENABLE();
 8007310:	9502      	str	r5, [sp, #8]
 8007312:	6b1a      	ldr	r2, [r3, #48]	; 0x30
 8007314:	f042 0201 	orr.w	r2, r2, #1
 8007318:	631a      	str	r2, [r3, #48]	; 0x30
 800731a:	6b1b      	ldr	r3, [r3, #48]	; 0x30
 800731c:	f003 0301 	and.w	r3, r3, #1
 8007320:	9302      	str	r3, [sp, #8]
 8007322:	9b02      	ldr	r3, [sp, #8]
    GPIO_InitStruct.Pin = GPIO_PIN_2|GPIO_PIN_3;
 8007324:	230c      	movs	r3, #12
 8007326:	9305      	str	r3, [sp, #20]
    GPIO_InitStruct.Mode = GPIO_MODE_AF_PP;
 8007328:	2302      	movs	r3, #2
 800732a:	9306      	str	r3, [sp, #24]
    GPIO_InitStruct.Pull = GPIO_PULLUP;
 800732c:	2301      	movs	r3, #1
 800732e:	9307      	str	r3, [sp, #28]
    GPIO_InitStruct.Speed = GPIO_SPEED_FREQ_VERY_HIGH;
 8007330:	2303      	movs	r3, #3
 8007332:	9308      	str	r3, [sp, #32]
    GPIO_InitStruct.Alternate = GPIO_AF7_USART2;
 8007334:	2307      	movs	r3, #7
 8007336:	9309      	str	r3, [sp, #36]	; 0x24
    HAL_GPIO_Init(GPIOA, &GPIO_InitStruct);
 8007338:	a905      	add	r1, sp, #20
 800733a:	4835      	ldr	r0, [pc, #212]	; (8007410 <HAL_UART_MspInit+0x13c>)
 800733c:	f7fc fd96 	bl	8003e6c <HAL_GPIO_Init>
    hdma_usart2_rx.Instance = DMA1_Stream5;
 8007340:	4834      	ldr	r0, [pc, #208]	; (8007414 <HAL_UART_MspInit+0x140>)
 8007342:	4b35      	ldr	r3, [pc, #212]	; (8007418 <HAL_UART_MspInit+0x144>)
 8007344:	6003      	str	r3, [r0, #0]
    hdma_usart2_rx.Init.Channel = DMA_CHANNEL_4;
 8007346:	f04f 6300 	mov.w	r3, #134217728	; 0x8000000
 800734a:	6043      	str	r3, [r0, #4]
    hdma_usart2_rx.Init.Direction = DMA_PERIPH_TO_MEMORY;
 800734c:	6085      	str	r5, [r0, #8]
    hdma_usart2_rx.Init.PeriphInc = DMA_PINC_DISABLE;
 800734e:	60c5      	str	r5, [r0, #12]
    hdma_usart2_rx.Init.MemInc = DMA_MINC_ENABLE;
 8007350:	f44f 6380 	mov.w	r3, #1024	; 0x400
 8007354:	6103      	str	r3, [r0, #16]
    hdma_usart2_rx.Init.PeriphDataAlignment = DMA_PDATAALIGN_BYTE;
 8007356:	6145      	str	r5, [r0, #20]
    hdma_usart2_rx.Init.MemDataAlignment = DMA_MDATAALIGN_BYTE;
 8007358:	6185      	str	r5, [r0, #24]
    hdma_usart2_rx.Init.Mode = DMA_NORMAL;
 800735a:	61c5      	str	r5, [r0, #28]
    hdma_usart2_rx.Init.Priority = DMA_PRIORITY_LOW;
 800735c:	6205      	str	r5, [r0, #32]
    hdma_usart2_rx.Init.FIFOMode = DMA_FIFOMODE_DISABLE;
 800735e:	6245      	str	r5, [r0, #36]	; 0x24
    if (HAL_DMA_Init(&hdma_usart2_rx) != HAL_OK)
 8007360:	f7fc fc1c 	bl	8003b9c <HAL_DMA_Init>
 8007364:	bb18      	cbnz	r0, 80073ae <HAL_UART_MspInit+0xda>
    __HAL_LINKDMA(huart,hdmarx,hdma_usart2_rx);
 8007366:	4b2b      	ldr	r3, [pc, #172]	; (8007414 <HAL_UART_MspInit+0x140>)
 8007368:	6363      	str	r3, [r4, #52]	; 0x34
 800736a:	639c      	str	r4, [r3, #56]	; 0x38
    hdma_usart2_tx.Instance = DMA1_Stream6;
 800736c:	482b      	ldr	r0, [pc, #172]	; (800741c <HAL_UART_MspInit+0x148>)
 800736e:	4b2c      	ldr	r3, [pc, #176]	; (8007420 <HAL_UART_MspInit+0x14c>)
 8007370:	6003      	str	r3, [r0, #0]
    hdma_usart2_tx.Init.Channel = DMA_CHANNEL_4;
 8007372:	f04f 6300 	mov.w	r3, #134217728	; 0x8000000
 8007376:	6043      	str	r3, [r0, #4]
    hdma_usart2_tx.Init.Direction = DMA_MEMORY_TO_PERIPH;
 8007378:	2340      	movs	r3, #64	; 0x40
 800737a:	6083      	str	r3, [r0, #8]
    hdma_usart2_tx.Init.PeriphInc = DMA_PINC_DISABLE;
 800737c:	2300      	movs	r3, #0
 800737e:	60c3      	str	r3, [r0, #12]
    hdma_usart2_tx.Init.MemInc = DMA_MINC_ENABLE;
 8007380:	f44f 6280 	mov.w	r2, #1024	; 0x400
 8007384:	6102      	str	r2, [r0, #16]
    hdma_usart2_tx.Init.PeriphDataAlignment = DMA_PDATAALIGN_BYTE;
 8007386:	6143      	str	r3, [r0, #20]
    hdma_usart2_tx.Init.MemDataAlignment = DMA_MDATAALIGN_BYTE;
 8007388:	6183      	str	r3, [r0, #24]
    hdma_usart2_tx.Init.Mode = DMA_NORMAL;
 800738a:	61c3      	str	r3, [r0, #28]
    hdma_usart2_tx.Init.Priority = DMA_PRIORITY_LOW;
 800738c:	6203      	str	r3, [r0, #32]
    hdma_usart2_tx.Init.FIFOMode = DMA_FIFOMODE_DISABLE;
 800738e:	6243      	str	r3, [r0, #36]	; 0x24
    if (HAL_DMA_Init(&hdma_usart2_tx) != HAL_OK)
 8007390:	f7fc fc04 	bl	8003b9c <HAL_DMA_Init>
 8007394:	b970      	cbnz	r0, 80073b4 <HAL_UART_MspInit+0xe0>
    __HAL_LINKDMA(huart,hdmatx,hdma_usart2_tx);
 8007396:	4b21      	ldr	r3, [pc, #132]	; (800741c <HAL_UART_MspInit+0x148>)
 8007398:	6323      	str	r3, [r4, #48]	; 0x30
 800739a:	639c      	str	r4, [r3, #56]	; 0x38
    HAL_NVIC_SetPriority(USART2_IRQn, 0, 0);
 800739c:	2200      	movs	r2, #0
 800739e:	4611      	mov	r1, r2
 80073a0:	2026      	movs	r0, #38	; 0x26
 80073a2:	f7fc fb3d 	bl	8003a20 <HAL_NVIC_SetPriority>
    HAL_NVIC_EnableIRQ(USART2_IRQn);
 80073a6:	2026      	movs	r0, #38	; 0x26
 80073a8:	f7fc fb6e 	bl	8003a88 <HAL_NVIC_EnableIRQ>
 80073ac:	e7a1      	b.n	80072f2 <HAL_UART_MspInit+0x1e>
      Error_Handler();
 80073ae:	f7ff fe27 	bl	8007000 <Error_Handler>
 80073b2:	e7d8      	b.n	8007366 <HAL_UART_MspInit+0x92>
      Error_Handler();
 80073b4:	f7ff fe24 	bl	8007000 <Error_Handler>
 80073b8:	e7ed      	b.n	8007396 <HAL_UART_MspInit+0xc2>
    __HAL_RCC_USART6_CLK_ENABLE();
 80073ba:	2100      	movs	r1, #0
 80073bc:	9103      	str	r1, [sp, #12]
 80073be:	4b13      	ldr	r3, [pc, #76]	; (800740c <HAL_UART_MspInit+0x138>)
 80073c0:	6c5a      	ldr	r2, [r3, #68]	; 0x44
 80073c2:	f042 0220 	orr.w	r2, r2, #32
 80073c6:	645a      	str	r2, [r3, #68]	; 0x44
 80073c8:	6c5a      	ldr	r2, [r3, #68]	; 0x44
 80073ca:	f002 0220 	and.w	r2, r2, #32
 80073ce:	9203      	str	r2, [sp, #12]
 80073d0:	9a03      	ldr	r2, [sp, #12]
    __HAL_RCC_GPIOC_CLK_ENABLE();
 80073d2:	9104      	str	r1, [sp, #16]
 80073d4:	6b1a      	ldr	r2, [r3, #48]	; 0x30
 80073d6:	f042 0204 	orr.w	r2, r2, #4
 80073da:	631a      	str	r2, [r3, #48]	; 0x30
 80073dc:	6b1b      	ldr	r3, [r3, #48]	; 0x30
 80073de:	f003 0304 	and.w	r3, r3, #4
 80073e2:	9304      	str	r3, [sp, #16]
 80073e4:	9b04      	ldr	r3, [sp, #16]
    GPIO_InitStruct.Pin = GPIO_PIN_6|GPIO_PIN_7;
 80073e6:	23c0      	movs	r3, #192	; 0xc0
 80073e8:	9305      	str	r3, [sp, #20]
    GPIO_InitStruct.Mode = GPIO_MODE_AF_PP;
 80073ea:	2302      	movs	r3, #2
 80073ec:	9306      	str	r3, [sp, #24]
    GPIO_InitStruct.Pull = GPIO_PULLUP;
 80073ee:	2301      	movs	r3, #1
 80073f0:	9307      	str	r3, [sp, #28]
    GPIO_InitStruct.Speed = GPIO_SPEED_FREQ_VERY_HIGH;
 80073f2:	2303      	movs	r3, #3
 80073f4:	9308      	str	r3, [sp, #32]
    GPIO_InitStruct.Alternate = GPIO_AF8_USART6;
 80073f6:	2308      	movs	r3, #8
 80073f8:	9309      	str	r3, [sp, #36]	; 0x24
    HAL_GPIO_Init(GPIOC, &GPIO_InitStruct);
 80073fa:	a905      	add	r1, sp, #20
 80073fc:	4809      	ldr	r0, [pc, #36]	; (8007424 <HAL_UART_MspInit+0x150>)
 80073fe:	f7fc fd35 	bl	8003e6c <HAL_GPIO_Init>
}
 8007402:	e776      	b.n	80072f2 <HAL_UART_MspInit+0x1e>
 8007404:	40004400 	.word	0x40004400
 8007408:	40011400 	.word	0x40011400
 800740c:	40023800 	.word	0x40023800
 8007410:	40020000 	.word	0x40020000
 8007414:	200004cc 	.word	0x200004cc
 8007418:	40026088 	.word	0x40026088
 800741c:	2000064c 	.word	0x2000064c
 8007420:	400260a0 	.word	0x400260a0
 8007424:	40020800 	.word	0x40020800

08007428 <NMI_Handler>:

  /* USER CODE END NonMaskableInt_IRQn 0 */
  /* USER CODE BEGIN NonMaskableInt_IRQn 1 */

  /* USER CODE END NonMaskableInt_IRQn 1 */
}
 8007428:	4770      	bx	lr

0800742a <HardFault_Handler>:

/**
  * @brief This function handles Hard fault interrupt.
  */
void HardFault_Handler(void)
{
 800742a:	e7fe      	b.n	800742a <HardFault_Handler>

0800742c <MemManage_Handler>:

/**
  * @brief This function handles Memory management fault.
  */
void MemManage_Handler(void)
{
 800742c:	e7fe      	b.n	800742c <MemManage_Handler>

0800742e <BusFault_Handler>:

/**
  * @brief This function handles Pre-fetch fault, memory access fault.
  */
void BusFault_Handler(void)
{
 800742e:	e7fe      	b.n	800742e <BusFault_Handler>

08007430 <UsageFault_Handler>:

/**
  * @brief This function handles Undefined instruction or illegal state.
  */
void UsageFault_Handler(void)
{
 8007430:	e7fe      	b.n	8007430 <UsageFault_Handler>

08007432 <SVC_Handler>:

  /* USER CODE END SVCall_IRQn 0 */
  /* USER CODE BEGIN SVCall_IRQn 1 */

  /* USER CODE END SVCall_IRQn 1 */
}
 8007432:	4770      	bx	lr

08007434 <DebugMon_Handler>:

  /* USER CODE END DebugMonitor_IRQn 0 */
  /* USER CODE BEGIN DebugMonitor_IRQn 1 */

  /* USER CODE END DebugMonitor_IRQn 1 */
}
 8007434:	4770      	bx	lr

08007436 <PendSV_Handler>:

  /* USER CODE END PendSV_IRQn 0 */
  /* USER CODE BEGIN PendSV_IRQn 1 */

  /* USER CODE END PendSV_IRQn 1 */
}
 8007436:	4770      	bx	lr

08007438 <SysTick_Handler>:

/**
  * @brief This function handles System tick timer.
  */
void SysTick_Handler(void)
{
 8007438:	b508      	push	{r3, lr}
  /* USER CODE BEGIN SysTick_IRQn 0 */

  /* USER CODE END SysTick_IRQn 0 */
  HAL_IncTick();
 800743a:	f7fc f921 	bl	8003680 <HAL_IncTick>
  /* USER CODE BEGIN SysTick_IRQn 1 */

  /* USER CODE END SysTick_IRQn 1 */
}
 800743e:	bd08      	pop	{r3, pc}

08007440 <DMA1_Stream5_IRQHandler>:

/**
  * @brief This function handles DMA1 stream5 global interrupt.
  */
void DMA1_Stream5_IRQHandler(void)
{
 8007440:	b508      	push	{r3, lr}
  /* USER CODE BEGIN DMA1_Stream5_IRQn 0 */

  /* USER CODE END DMA1_Stream5_IRQn 0 */
  HAL_DMA_IRQHandler(&hdma_usart2_rx);
 8007442:	4802      	ldr	r0, [pc, #8]	; (800744c <DMA1_Stream5_IRQHandler+0xc>)
 8007444:	f7fc fc24 	bl	8003c90 <HAL_DMA_IRQHandler>
  /* USER CODE BEGIN DMA1_Stream5_IRQn 1 */

  /* USER CODE END DMA1_Stream5_IRQn 1 */
}
 8007448:	bd08      	pop	{r3, pc}
 800744a:	bf00      	nop
 800744c:	200004cc 	.word	0x200004cc

08007450 <DMA1_Stream6_IRQHandler>:

/**
  * @brief This function handles DMA1 stream6 global interrupt.
  */
void DMA1_Stream6_IRQHandler(void)
{
 8007450:	b508      	push	{r3, lr}
  /* USER CODE BEGIN DMA1_Stream6_IRQn 0 */

  /* USER CODE END DMA1_Stream6_IRQn 0 */
  HAL_DMA_IRQHandler(&hdma_usart2_tx);
 8007452:	4802      	ldr	r0, [pc, #8]	; (800745c <DMA1_Stream6_IRQHandler+0xc>)
 8007454:	f7fc fc1c 	bl	8003c90 <HAL_DMA_IRQHandler>
  /* USER CODE BEGIN DMA1_Stream6_IRQn 1 */

  /* USER CODE END DMA1_Stream6_IRQn 1 */
}
 8007458:	bd08      	pop	{r3, pc}
 800745a:	bf00      	nop
 800745c:	2000064c 	.word	0x2000064c

08007460 <EXTI9_5_IRQHandler>:

/**
  * @brief This function handles EXTI line[9:5] interrupts.
  */
void EXTI9_5_IRQHandler(void)
{
 8007460:	b508      	push	{r3, lr}
  /* USER CODE BEGIN EXTI9_5_IRQn 0 */

  /* USER CODE END EXTI9_5_IRQn 0 */
  HAL_GPIO_EXTI_IRQHandler(GPIO_PIN_8);
 8007462:	f44f 7080 	mov.w	r0, #256	; 0x100
 8007466:	f7fc fde3 	bl	8004030 <HAL_GPIO_EXTI_IRQHandler>
  /* USER CODE BEGIN EXTI9_5_IRQn 1 */

  /* USER CODE END EXTI9_5_IRQn 1 */
}
 800746a:	bd08      	pop	{r3, pc}

0800746c <TIM3_IRQHandler>:

/**
  * @brief This function handles TIM3 global interrupt.
  */
void TIM3_IRQHandler(void)
{
 800746c:	b508      	push	{r3, lr}
  /* USER CODE BEGIN TIM3_IRQn 0 */

  /* USER CODE END TIM3_IRQn 0 */
  HAL_TIM_IRQHandler(&htim3);
 800746e:	4802      	ldr	r0, [pc, #8]	; (8007478 <TIM3_IRQHandler+0xc>)
 8007470:	f7fe fb15 	bl	8005a9e <HAL_TIM_IRQHandler>
  /* USER CODE BEGIN TIM3_IRQn 1 */

  /* USER CODE END TIM3_IRQn 1 */
}
 8007474:	bd08      	pop	{r3, pc}
 8007476:	bf00      	nop
 8007478:	200005c4 	.word	0x200005c4

0800747c <TIM4_IRQHandler>:

/**
  * @brief This function handles TIM4 global interrupt.
  */
void TIM4_IRQHandler(void)
{
 800747c:	b508      	push	{r3, lr}
  /* USER CODE BEGIN TIM4_IRQn 0 */
  /* USER CODE END TIM4_IRQn 0 */
  HAL_TIM_IRQHandler(&htim4);
 800747e:	4802      	ldr	r0, [pc, #8]	; (8007488 <TIM4_IRQHandler+0xc>)
 8007480:	f7fe fb0d 	bl	8005a9e <HAL_TIM_IRQHandler>

*/


  /* USER CODE END TIM4_IRQn 1 */
}
 8007484:	bd08      	pop	{r3, pc}
 8007486:	bf00      	nop
 8007488:	20000584 	.word	0x20000584

0800748c <USART2_IRQHandler>:

/**
  * @brief This function handles USART2 global interrupt.
  */
void USART2_IRQHandler(void)
{
 800748c:	b508      	push	{r3, lr}
  /* USER CODE BEGIN USART2_IRQn 0 */

  /* USER CODE END USART2_IRQn 0 */
  HAL_UART_IRQHandler(&huart2);
 800748e:	4802      	ldr	r0, [pc, #8]	; (8007498 <USART2_IRQHandler+0xc>)
 8007490:	f7ff f8dc 	bl	800664c <HAL_UART_IRQHandler>
  /* USER CODE BEGIN USART2_IRQn 1 */

  /* USER CODE END USART2_IRQn 1 */
}
 8007494:	bd08      	pop	{r3, pc}
 8007496:	bf00      	nop
 8007498:	20000718 	.word	0x20000718

0800749c <_read>:
	_kill(status, -1);
	while (1) {}		/* Make sure we hang here */
}

__attribute__((weak)) int _read(int file, char *ptr, int len)
{
 800749c:	b570      	push	{r4, r5, r6, lr}
 800749e:	460d      	mov	r5, r1
 80074a0:	4616      	mov	r6, r2
	int DataIdx;

	for (DataIdx = 0; DataIdx < len; DataIdx++)
 80074a2:	2400      	movs	r4, #0
 80074a4:	e004      	b.n	80074b0 <_read+0x14>
	{
		*ptr++ = __io_getchar();
 80074a6:	f3af 8000 	nop.w
 80074aa:	7028      	strb	r0, [r5, #0]
	for (DataIdx = 0; DataIdx < len; DataIdx++)
 80074ac:	3401      	adds	r4, #1
		*ptr++ = __io_getchar();
 80074ae:	3501      	adds	r5, #1
	for (DataIdx = 0; DataIdx < len; DataIdx++)
 80074b0:	42b4      	cmp	r4, r6
 80074b2:	dbf8      	blt.n	80074a6 <_read+0xa>
	}

return len;
}
 80074b4:	4630      	mov	r0, r6
 80074b6:	bd70      	pop	{r4, r5, r6, pc}

080074b8 <_close>:
}

int _close(int file)
{
	return -1;
}
 80074b8:	f04f 30ff 	mov.w	r0, #4294967295	; 0xffffffff
 80074bc:	4770      	bx	lr

080074be <_fstat>:


int _fstat(int file, struct stat *st)
{
	st->st_mode = S_IFCHR;
 80074be:	f44f 5300 	mov.w	r3, #8192	; 0x2000
 80074c2:	604b      	str	r3, [r1, #4]
	return 0;
}
 80074c4:	2000      	movs	r0, #0
 80074c6:	4770      	bx	lr

080074c8 <_isatty>:

int _isatty(int file)
{
	return 1;
}
 80074c8:	2001      	movs	r0, #1
 80074ca:	4770      	bx	lr

080074cc <_lseek>:

int _lseek(int file, int ptr, int dir)
{
	return 0;
}
 80074cc:	2000      	movs	r0, #0
 80074ce:	4770      	bx	lr

080074d0 <_sbrk>:
/**
 _sbrk
 Increase program data space. Malloc and related functions depend on this
**/
caddr_t _sbrk(int incr)
{
 80074d0:	b508      	push	{r3, lr}
 80074d2:	4603      	mov	r3, r0
	extern char end asm("end");
	static char *heap_end;
	char *prev_heap_end;

	if (heap_end == 0)
 80074d4:	4a0b      	ldr	r2, [pc, #44]	; (8007504 <_sbrk+0x34>)
 80074d6:	6812      	ldr	r2, [r2, #0]
 80074d8:	b142      	cbz	r2, 80074ec <_sbrk+0x1c>
		heap_end = &end;

	prev_heap_end = heap_end;
 80074da:	4a0a      	ldr	r2, [pc, #40]	; (8007504 <_sbrk+0x34>)
 80074dc:	6810      	ldr	r0, [r2, #0]
	if (heap_end + incr > stack_ptr)
 80074de:	4403      	add	r3, r0
 80074e0:	466a      	mov	r2, sp
 80074e2:	4293      	cmp	r3, r2
 80074e4:	d806      	bhi.n	80074f4 <_sbrk+0x24>
	{
		errno = ENOMEM;
		return (caddr_t) -1;
	}

	heap_end += incr;
 80074e6:	4a07      	ldr	r2, [pc, #28]	; (8007504 <_sbrk+0x34>)
 80074e8:	6013      	str	r3, [r2, #0]

	return (caddr_t) prev_heap_end;
}
 80074ea:	bd08      	pop	{r3, pc}
		heap_end = &end;
 80074ec:	4a05      	ldr	r2, [pc, #20]	; (8007504 <_sbrk+0x34>)
 80074ee:	4906      	ldr	r1, [pc, #24]	; (8007508 <_sbrk+0x38>)
 80074f0:	6011      	str	r1, [r2, #0]
 80074f2:	e7f2      	b.n	80074da <_sbrk+0xa>
		errno = ENOMEM;
 80074f4:	f000 f85a 	bl	80075ac <__errno>
 80074f8:	230c      	movs	r3, #12
 80074fa:	6003      	str	r3, [r0, #0]
		return (caddr_t) -1;
 80074fc:	f04f 30ff 	mov.w	r0, #4294967295	; 0xffffffff
 8007500:	e7f3      	b.n	80074ea <_sbrk+0x1a>
 8007502:	bf00      	nop
 8007504:	200003c8 	.word	0x200003c8
 8007508:	20000760 	.word	0x20000760

0800750c <SystemInit>:
  */
void SystemInit(void)
{
  /* FPU settings ------------------------------------------------------------*/
  #if (__FPU_PRESENT == 1) && (__FPU_USED == 1)
    SCB->CPACR |= ((3UL << 10*2)|(3UL << 11*2));  /* set CP10 and CP11 Full Access */
 800750c:	490f      	ldr	r1, [pc, #60]	; (800754c <SystemInit+0x40>)
 800750e:	f8d1 3088 	ldr.w	r3, [r1, #136]	; 0x88
 8007512:	f443 0370 	orr.w	r3, r3, #15728640	; 0xf00000
 8007516:	f8c1 3088 	str.w	r3, [r1, #136]	; 0x88
  #endif
  /* Reset the RCC clock configuration to the default reset state ------------*/
  /* Set HSION bit */
  RCC->CR |= (uint32_t)0x00000001;
 800751a:	4b0d      	ldr	r3, [pc, #52]	; (8007550 <SystemInit+0x44>)
 800751c:	681a      	ldr	r2, [r3, #0]
 800751e:	f042 0201 	orr.w	r2, r2, #1
 8007522:	601a      	str	r2, [r3, #0]

  /* Reset CFGR register */
  RCC->CFGR = 0x00000000;
 8007524:	2000      	movs	r0, #0
 8007526:	6098      	str	r0, [r3, #8]

  /* Reset HSEON, CSSON and PLLON bits */
  RCC->CR &= (uint32_t)0xFEF6FFFF;
 8007528:	681a      	ldr	r2, [r3, #0]
 800752a:	f022 7284 	bic.w	r2, r2, #17301504	; 0x1080000
 800752e:	f422 3280 	bic.w	r2, r2, #65536	; 0x10000
 8007532:	601a      	str	r2, [r3, #0]

  /* Reset PLLCFGR register */
  RCC->PLLCFGR = 0x24003010;
 8007534:	4a07      	ldr	r2, [pc, #28]	; (8007554 <SystemInit+0x48>)
 8007536:	605a      	str	r2, [r3, #4]

  /* Reset HSEBYP bit */
  RCC->CR &= (uint32_t)0xFFFBFFFF;
 8007538:	681a      	ldr	r2, [r3, #0]
 800753a:	f422 2280 	bic.w	r2, r2, #262144	; 0x40000
 800753e:	601a      	str	r2, [r3, #0]

  /* Disable all interrupts */
  RCC->CIR = 0x00000000;
 8007540:	60d8      	str	r0, [r3, #12]

  /* Configure the Vector Table location add offset address ------------------*/
#ifdef VECT_TAB_SRAM
  SCB->VTOR = SRAM_BASE | VECT_TAB_OFFSET; /* Vector Table Relocation in Internal SRAM */
#else
  SCB->VTOR = FLASH_BASE | VECT_TAB_OFFSET; /* Vector Table Relocation in Internal FLASH */
 8007542:	f04f 6300 	mov.w	r3, #134217728	; 0x8000000
 8007546:	608b      	str	r3, [r1, #8]
#endif
}
 8007548:	4770      	bx	lr
 800754a:	bf00      	nop
 800754c:	e000ed00 	.word	0xe000ed00
 8007550:	40023800 	.word	0x40023800
 8007554:	24003010 	.word	0x24003010

08007558 <Reset_Handler>:

    .section  .text.Reset_Handler
  .weak  Reset_Handler
  .type  Reset_Handler, %function
Reset_Handler:  
  ldr   sp, =_estack    		 /* set stack pointer */
 8007558:	f8df d034 	ldr.w	sp, [pc, #52]	; 8007590 <LoopFillZerobss+0x14>

/* Copy the data segment initializers from flash to SRAM */  
  movs  r1, #0
 800755c:	2100      	movs	r1, #0
  b  LoopCopyDataInit
 800755e:	e003      	b.n	8007568 <LoopCopyDataInit>

08007560 <CopyDataInit>:

CopyDataInit:
  ldr  r3, =_sidata
 8007560:	4b0c      	ldr	r3, [pc, #48]	; (8007594 <LoopFillZerobss+0x18>)
  ldr  r3, [r3, r1]
 8007562:	585b      	ldr	r3, [r3, r1]
  str  r3, [r0, r1]
 8007564:	5043      	str	r3, [r0, r1]
  adds  r1, r1, #4
 8007566:	3104      	adds	r1, #4

08007568 <LoopCopyDataInit>:
    
LoopCopyDataInit:
  ldr  r0, =_sdata
 8007568:	480b      	ldr	r0, [pc, #44]	; (8007598 <LoopFillZerobss+0x1c>)
  ldr  r3, =_edata
 800756a:	4b0c      	ldr	r3, [pc, #48]	; (800759c <LoopFillZerobss+0x20>)
  adds  r2, r0, r1
 800756c:	1842      	adds	r2, r0, r1
  cmp  r2, r3
 800756e:	429a      	cmp	r2, r3
  bcc  CopyDataInit
 8007570:	d3f6      	bcc.n	8007560 <CopyDataInit>
  ldr  r2, =_sbss
 8007572:	4a0b      	ldr	r2, [pc, #44]	; (80075a0 <LoopFillZerobss+0x24>)
  b  LoopFillZerobss
 8007574:	e002      	b.n	800757c <LoopFillZerobss>

08007576 <FillZerobss>:
/* Zero fill the bss segment. */  
FillZerobss:
  movs  r3, #0
 8007576:	2300      	movs	r3, #0
  str  r3, [r2], #4
 8007578:	f842 3b04 	str.w	r3, [r2], #4

0800757c <LoopFillZerobss>:
    
LoopFillZerobss:
  ldr  r3, = _ebss
 800757c:	4b09      	ldr	r3, [pc, #36]	; (80075a4 <LoopFillZerobss+0x28>)
  cmp  r2, r3
 800757e:	429a      	cmp	r2, r3
  bcc  FillZerobss
 8007580:	d3f9      	bcc.n	8007576 <FillZerobss>

/* Call the clock system intitialization function.*/
  bl  SystemInit   
 8007582:	f7ff ffc3 	bl	800750c <SystemInit>
/* Call static constructors */
    bl __libc_init_array
 8007586:	f000 f817 	bl	80075b8 <__libc_init_array>
/* Call the application's entry point.*/
  bl  main
 800758a:	f7ff fb19 	bl	8006bc0 <main>
  bx  lr    
 800758e:	4770      	bx	lr
  ldr   sp, =_estack    		 /* set stack pointer */
 8007590:	20020000 	.word	0x20020000
  ldr  r3, =_sidata
 8007594:	0800c660 	.word	0x0800c660
  ldr  r0, =_sdata
 8007598:	20000000 	.word	0x20000000
  ldr  r3, =_edata
 800759c:	20000268 	.word	0x20000268
  ldr  r2, =_sbss
 80075a0:	20000268 	.word	0x20000268
  ldr  r3, = _ebss
 80075a4:	20000760 	.word	0x20000760

080075a8 <ADC_IRQHandler>:
 * @retval None       
*/
    .section  .text.Default_Handler,"ax",%progbits
Default_Handler:
Infinite_Loop:
  b  Infinite_Loop
 80075a8:	e7fe      	b.n	80075a8 <ADC_IRQHandler>
	...

080075ac <__errno>:
 80075ac:	4b01      	ldr	r3, [pc, #4]	; (80075b4 <__errno+0x8>)
 80075ae:	6818      	ldr	r0, [r3, #0]
 80075b0:	4770      	bx	lr
 80075b2:	bf00      	nop
 80075b4:	20000094 	.word	0x20000094

080075b8 <__libc_init_array>:
 80075b8:	b570      	push	{r4, r5, r6, lr}
 80075ba:	4e0d      	ldr	r6, [pc, #52]	; (80075f0 <__libc_init_array+0x38>)
 80075bc:	4c0d      	ldr	r4, [pc, #52]	; (80075f4 <__libc_init_array+0x3c>)
 80075be:	1ba4      	subs	r4, r4, r6
 80075c0:	10a4      	asrs	r4, r4, #2
 80075c2:	2500      	movs	r5, #0
 80075c4:	42a5      	cmp	r5, r4
 80075c6:	d109      	bne.n	80075dc <__libc_init_array+0x24>
 80075c8:	4e0b      	ldr	r6, [pc, #44]	; (80075f8 <__libc_init_array+0x40>)
 80075ca:	4c0c      	ldr	r4, [pc, #48]	; (80075fc <__libc_init_array+0x44>)
 80075cc:	f004 fb02 	bl	800bbd4 <_init>
 80075d0:	1ba4      	subs	r4, r4, r6
 80075d2:	10a4      	asrs	r4, r4, #2
 80075d4:	2500      	movs	r5, #0
 80075d6:	42a5      	cmp	r5, r4
 80075d8:	d105      	bne.n	80075e6 <__libc_init_array+0x2e>
 80075da:	bd70      	pop	{r4, r5, r6, pc}
 80075dc:	f856 3025 	ldr.w	r3, [r6, r5, lsl #2]
 80075e0:	4798      	blx	r3
 80075e2:	3501      	adds	r5, #1
 80075e4:	e7ee      	b.n	80075c4 <__libc_init_array+0xc>
 80075e6:	f856 3025 	ldr.w	r3, [r6, r5, lsl #2]
 80075ea:	4798      	blx	r3
 80075ec:	3501      	adds	r5, #1
 80075ee:	e7f2      	b.n	80075d6 <__libc_init_array+0x1e>
 80075f0:	0800c658 	.word	0x0800c658
 80075f4:	0800c658 	.word	0x0800c658
 80075f8:	0800c658 	.word	0x0800c658
 80075fc:	0800c65c 	.word	0x0800c65c

08007600 <memcpy>:
 8007600:	b510      	push	{r4, lr}
 8007602:	1e43      	subs	r3, r0, #1
 8007604:	440a      	add	r2, r1
 8007606:	4291      	cmp	r1, r2
 8007608:	d100      	bne.n	800760c <memcpy+0xc>
 800760a:	bd10      	pop	{r4, pc}
 800760c:	f811 4b01 	ldrb.w	r4, [r1], #1
 8007610:	f803 4f01 	strb.w	r4, [r3, #1]!
 8007614:	e7f7      	b.n	8007606 <memcpy+0x6>

08007616 <memset>:
 8007616:	4402      	add	r2, r0
 8007618:	4603      	mov	r3, r0
 800761a:	4293      	cmp	r3, r2
 800761c:	d100      	bne.n	8007620 <memset+0xa>
 800761e:	4770      	bx	lr
 8007620:	f803 1b01 	strb.w	r1, [r3], #1
 8007624:	e7f9      	b.n	800761a <memset+0x4>

08007626 <__cvt>:
 8007626:	e92d 47ff 	stmdb	sp!, {r0, r1, r2, r3, r4, r5, r6, r7, r8, r9, sl, lr}
 800762a:	ec55 4b10 	vmov	r4, r5, d0
 800762e:	9f0d      	ldr	r7, [sp, #52]	; 0x34
 8007630:	f8dd a030 	ldr.w	sl, [sp, #48]	; 0x30
 8007634:	2d00      	cmp	r5, #0
 8007636:	460e      	mov	r6, r1
 8007638:	4691      	mov	r9, r2
 800763a:	4619      	mov	r1, r3
 800763c:	bfb8      	it	lt
 800763e:	4622      	movlt	r2, r4
 8007640:	462b      	mov	r3, r5
 8007642:	f027 0720 	bic.w	r7, r7, #32
 8007646:	bfbb      	ittet	lt
 8007648:	f105 4300 	addlt.w	r3, r5, #2147483648	; 0x80000000
 800764c:	461d      	movlt	r5, r3
 800764e:	2300      	movge	r3, #0
 8007650:	232d      	movlt	r3, #45	; 0x2d
 8007652:	bfb8      	it	lt
 8007654:	4614      	movlt	r4, r2
 8007656:	2f46      	cmp	r7, #70	; 0x46
 8007658:	700b      	strb	r3, [r1, #0]
 800765a:	d004      	beq.n	8007666 <__cvt+0x40>
 800765c:	2f45      	cmp	r7, #69	; 0x45
 800765e:	d100      	bne.n	8007662 <__cvt+0x3c>
 8007660:	3601      	adds	r6, #1
 8007662:	2102      	movs	r1, #2
 8007664:	e000      	b.n	8007668 <__cvt+0x42>
 8007666:	2103      	movs	r1, #3
 8007668:	ab03      	add	r3, sp, #12
 800766a:	9301      	str	r3, [sp, #4]
 800766c:	ab02      	add	r3, sp, #8
 800766e:	9300      	str	r3, [sp, #0]
 8007670:	4632      	mov	r2, r6
 8007672:	4653      	mov	r3, sl
 8007674:	ec45 4b10 	vmov	d0, r4, r5
 8007678:	f000 fe1a 	bl	80082b0 <_dtoa_r>
 800767c:	2f47      	cmp	r7, #71	; 0x47
 800767e:	4680      	mov	r8, r0
 8007680:	d102      	bne.n	8007688 <__cvt+0x62>
 8007682:	f019 0f01 	tst.w	r9, #1
 8007686:	d026      	beq.n	80076d6 <__cvt+0xb0>
 8007688:	2f46      	cmp	r7, #70	; 0x46
 800768a:	eb08 0906 	add.w	r9, r8, r6
 800768e:	d111      	bne.n	80076b4 <__cvt+0x8e>
 8007690:	f898 3000 	ldrb.w	r3, [r8]
 8007694:	2b30      	cmp	r3, #48	; 0x30
 8007696:	d10a      	bne.n	80076ae <__cvt+0x88>
 8007698:	2200      	movs	r2, #0
 800769a:	2300      	movs	r3, #0
 800769c:	4620      	mov	r0, r4
 800769e:	4629      	mov	r1, r5
 80076a0:	f7f9 fbec 	bl	8000e7c <__aeabi_dcmpeq>
 80076a4:	b918      	cbnz	r0, 80076ae <__cvt+0x88>
 80076a6:	f1c6 0601 	rsb	r6, r6, #1
 80076aa:	f8ca 6000 	str.w	r6, [sl]
 80076ae:	f8da 3000 	ldr.w	r3, [sl]
 80076b2:	4499      	add	r9, r3
 80076b4:	2200      	movs	r2, #0
 80076b6:	2300      	movs	r3, #0
 80076b8:	4620      	mov	r0, r4
 80076ba:	4629      	mov	r1, r5
 80076bc:	f7f9 fbde 	bl	8000e7c <__aeabi_dcmpeq>
 80076c0:	b938      	cbnz	r0, 80076d2 <__cvt+0xac>
 80076c2:	2230      	movs	r2, #48	; 0x30
 80076c4:	9b03      	ldr	r3, [sp, #12]
 80076c6:	454b      	cmp	r3, r9
 80076c8:	d205      	bcs.n	80076d6 <__cvt+0xb0>
 80076ca:	1c59      	adds	r1, r3, #1
 80076cc:	9103      	str	r1, [sp, #12]
 80076ce:	701a      	strb	r2, [r3, #0]
 80076d0:	e7f8      	b.n	80076c4 <__cvt+0x9e>
 80076d2:	f8cd 900c 	str.w	r9, [sp, #12]
 80076d6:	9b03      	ldr	r3, [sp, #12]
 80076d8:	9a0e      	ldr	r2, [sp, #56]	; 0x38
 80076da:	eba3 0308 	sub.w	r3, r3, r8
 80076de:	4640      	mov	r0, r8
 80076e0:	6013      	str	r3, [r2, #0]
 80076e2:	b004      	add	sp, #16
 80076e4:	e8bd 87f0 	ldmia.w	sp!, {r4, r5, r6, r7, r8, r9, sl, pc}

080076e8 <__exponent>:
 80076e8:	b5f7      	push	{r0, r1, r2, r4, r5, r6, r7, lr}
 80076ea:	2900      	cmp	r1, #0
 80076ec:	4604      	mov	r4, r0
 80076ee:	bfba      	itte	lt
 80076f0:	4249      	neglt	r1, r1
 80076f2:	232d      	movlt	r3, #45	; 0x2d
 80076f4:	232b      	movge	r3, #43	; 0x2b
 80076f6:	2909      	cmp	r1, #9
 80076f8:	f804 2b02 	strb.w	r2, [r4], #2
 80076fc:	7043      	strb	r3, [r0, #1]
 80076fe:	dd20      	ble.n	8007742 <__exponent+0x5a>
 8007700:	f10d 0307 	add.w	r3, sp, #7
 8007704:	461f      	mov	r7, r3
 8007706:	260a      	movs	r6, #10
 8007708:	fb91 f5f6 	sdiv	r5, r1, r6
 800770c:	fb06 1115 	mls	r1, r6, r5, r1
 8007710:	3130      	adds	r1, #48	; 0x30
 8007712:	2d09      	cmp	r5, #9
 8007714:	f803 1c01 	strb.w	r1, [r3, #-1]
 8007718:	f103 32ff 	add.w	r2, r3, #4294967295	; 0xffffffff
 800771c:	4629      	mov	r1, r5
 800771e:	dc09      	bgt.n	8007734 <__exponent+0x4c>
 8007720:	3130      	adds	r1, #48	; 0x30
 8007722:	3b02      	subs	r3, #2
 8007724:	f802 1c01 	strb.w	r1, [r2, #-1]
 8007728:	42bb      	cmp	r3, r7
 800772a:	4622      	mov	r2, r4
 800772c:	d304      	bcc.n	8007738 <__exponent+0x50>
 800772e:	1a10      	subs	r0, r2, r0
 8007730:	b003      	add	sp, #12
 8007732:	bdf0      	pop	{r4, r5, r6, r7, pc}
 8007734:	4613      	mov	r3, r2
 8007736:	e7e7      	b.n	8007708 <__exponent+0x20>
 8007738:	f813 2b01 	ldrb.w	r2, [r3], #1
 800773c:	f804 2b01 	strb.w	r2, [r4], #1
 8007740:	e7f2      	b.n	8007728 <__exponent+0x40>
 8007742:	2330      	movs	r3, #48	; 0x30
 8007744:	4419      	add	r1, r3
 8007746:	7083      	strb	r3, [r0, #2]
 8007748:	1d02      	adds	r2, r0, #4
 800774a:	70c1      	strb	r1, [r0, #3]
 800774c:	e7ef      	b.n	800772e <__exponent+0x46>
	...

08007750 <_printf_float>:
 8007750:	e92d 4ff0 	stmdb	sp!, {r4, r5, r6, r7, r8, r9, sl, fp, lr}
 8007754:	b08d      	sub	sp, #52	; 0x34
 8007756:	460c      	mov	r4, r1
 8007758:	f8dd 8058 	ldr.w	r8, [sp, #88]	; 0x58
 800775c:	4616      	mov	r6, r2
 800775e:	461f      	mov	r7, r3
 8007760:	4605      	mov	r5, r0
 8007762:	f001 fcd7 	bl	8009114 <_localeconv_r>
 8007766:	6803      	ldr	r3, [r0, #0]
 8007768:	9304      	str	r3, [sp, #16]
 800776a:	4618      	mov	r0, r3
 800776c:	f7f9 fad6 	bl	8000d1c <strlen>
 8007770:	2300      	movs	r3, #0
 8007772:	930a      	str	r3, [sp, #40]	; 0x28
 8007774:	f8d8 3000 	ldr.w	r3, [r8]
 8007778:	9005      	str	r0, [sp, #20]
 800777a:	3307      	adds	r3, #7
 800777c:	f023 0307 	bic.w	r3, r3, #7
 8007780:	f103 0208 	add.w	r2, r3, #8
 8007784:	f894 a018 	ldrb.w	sl, [r4, #24]
 8007788:	f8d4 b000 	ldr.w	fp, [r4]
 800778c:	f8c8 2000 	str.w	r2, [r8]
 8007790:	e9d3 2300 	ldrd	r2, r3, [r3]
 8007794:	e9c4 2312 	strd	r2, r3, [r4, #72]	; 0x48
 8007798:	e9d4 8912 	ldrd	r8, r9, [r4, #72]	; 0x48
 800779c:	f029 4300 	bic.w	r3, r9, #2147483648	; 0x80000000
 80077a0:	9307      	str	r3, [sp, #28]
 80077a2:	f8cd 8018 	str.w	r8, [sp, #24]
 80077a6:	f04f 32ff 	mov.w	r2, #4294967295	; 0xffffffff
 80077aa:	4ba7      	ldr	r3, [pc, #668]	; (8007a48 <_printf_float+0x2f8>)
 80077ac:	e9dd 0106 	ldrd	r0, r1, [sp, #24]
 80077b0:	f7f9 fb96 	bl	8000ee0 <__aeabi_dcmpun>
 80077b4:	bb70      	cbnz	r0, 8007814 <_printf_float+0xc4>
 80077b6:	f04f 32ff 	mov.w	r2, #4294967295	; 0xffffffff
 80077ba:	4ba3      	ldr	r3, [pc, #652]	; (8007a48 <_printf_float+0x2f8>)
 80077bc:	e9dd 0106 	ldrd	r0, r1, [sp, #24]
 80077c0:	f7f9 fb70 	bl	8000ea4 <__aeabi_dcmple>
 80077c4:	bb30      	cbnz	r0, 8007814 <_printf_float+0xc4>
 80077c6:	2200      	movs	r2, #0
 80077c8:	2300      	movs	r3, #0
 80077ca:	4640      	mov	r0, r8
 80077cc:	4649      	mov	r1, r9
 80077ce:	f7f9 fb5f 	bl	8000e90 <__aeabi_dcmplt>
 80077d2:	b110      	cbz	r0, 80077da <_printf_float+0x8a>
 80077d4:	232d      	movs	r3, #45	; 0x2d
 80077d6:	f884 3043 	strb.w	r3, [r4, #67]	; 0x43
 80077da:	4a9c      	ldr	r2, [pc, #624]	; (8007a4c <_printf_float+0x2fc>)
 80077dc:	4b9c      	ldr	r3, [pc, #624]	; (8007a50 <_printf_float+0x300>)
 80077de:	f1ba 0f47 	cmp.w	sl, #71	; 0x47
 80077e2:	bf8c      	ite	hi
 80077e4:	4690      	movhi	r8, r2
 80077e6:	4698      	movls	r8, r3
 80077e8:	2303      	movs	r3, #3
 80077ea:	f02b 0204 	bic.w	r2, fp, #4
 80077ee:	6123      	str	r3, [r4, #16]
 80077f0:	6022      	str	r2, [r4, #0]
 80077f2:	f04f 0900 	mov.w	r9, #0
 80077f6:	9700      	str	r7, [sp, #0]
 80077f8:	4633      	mov	r3, r6
 80077fa:	aa0b      	add	r2, sp, #44	; 0x2c
 80077fc:	4621      	mov	r1, r4
 80077fe:	4628      	mov	r0, r5
 8007800:	f000 f9e6 	bl	8007bd0 <_printf_common>
 8007804:	3001      	adds	r0, #1
 8007806:	f040 808d 	bne.w	8007924 <_printf_float+0x1d4>
 800780a:	f04f 30ff 	mov.w	r0, #4294967295	; 0xffffffff
 800780e:	b00d      	add	sp, #52	; 0x34
 8007810:	e8bd 8ff0 	ldmia.w	sp!, {r4, r5, r6, r7, r8, r9, sl, fp, pc}
 8007814:	4642      	mov	r2, r8
 8007816:	464b      	mov	r3, r9
 8007818:	4640      	mov	r0, r8
 800781a:	4649      	mov	r1, r9
 800781c:	f7f9 fb60 	bl	8000ee0 <__aeabi_dcmpun>
 8007820:	b110      	cbz	r0, 8007828 <_printf_float+0xd8>
 8007822:	4a8c      	ldr	r2, [pc, #560]	; (8007a54 <_printf_float+0x304>)
 8007824:	4b8c      	ldr	r3, [pc, #560]	; (8007a58 <_printf_float+0x308>)
 8007826:	e7da      	b.n	80077de <_printf_float+0x8e>
 8007828:	6861      	ldr	r1, [r4, #4]
 800782a:	1c4b      	adds	r3, r1, #1
 800782c:	f44b 6280 	orr.w	r2, fp, #1024	; 0x400
 8007830:	a80a      	add	r0, sp, #40	; 0x28
 8007832:	d13e      	bne.n	80078b2 <_printf_float+0x162>
 8007834:	2306      	movs	r3, #6
 8007836:	6063      	str	r3, [r4, #4]
 8007838:	2300      	movs	r3, #0
 800783a:	e9cd 0302 	strd	r0, r3, [sp, #8]
 800783e:	ab09      	add	r3, sp, #36	; 0x24
 8007840:	9300      	str	r3, [sp, #0]
 8007842:	ec49 8b10 	vmov	d0, r8, r9
 8007846:	f10d 0323 	add.w	r3, sp, #35	; 0x23
 800784a:	6022      	str	r2, [r4, #0]
 800784c:	f8cd a004 	str.w	sl, [sp, #4]
 8007850:	6861      	ldr	r1, [r4, #4]
 8007852:	4628      	mov	r0, r5
 8007854:	f7ff fee7 	bl	8007626 <__cvt>
 8007858:	f00a 03df 	and.w	r3, sl, #223	; 0xdf
 800785c:	2b47      	cmp	r3, #71	; 0x47
 800785e:	4680      	mov	r8, r0
 8007860:	d109      	bne.n	8007876 <_printf_float+0x126>
 8007862:	9b09      	ldr	r3, [sp, #36]	; 0x24
 8007864:	1cd8      	adds	r0, r3, #3
 8007866:	db02      	blt.n	800786e <_printf_float+0x11e>
 8007868:	6862      	ldr	r2, [r4, #4]
 800786a:	4293      	cmp	r3, r2
 800786c:	dd47      	ble.n	80078fe <_printf_float+0x1ae>
 800786e:	f1aa 0a02 	sub.w	sl, sl, #2
 8007872:	fa5f fa8a 	uxtb.w	sl, sl
 8007876:	f1ba 0f65 	cmp.w	sl, #101	; 0x65
 800787a:	9909      	ldr	r1, [sp, #36]	; 0x24
 800787c:	d824      	bhi.n	80078c8 <_printf_float+0x178>
 800787e:	3901      	subs	r1, #1
 8007880:	4652      	mov	r2, sl
 8007882:	f104 0050 	add.w	r0, r4, #80	; 0x50
 8007886:	9109      	str	r1, [sp, #36]	; 0x24
 8007888:	f7ff ff2e 	bl	80076e8 <__exponent>
 800788c:	9a0a      	ldr	r2, [sp, #40]	; 0x28
 800788e:	1813      	adds	r3, r2, r0
 8007890:	2a01      	cmp	r2, #1
 8007892:	4681      	mov	r9, r0
 8007894:	6123      	str	r3, [r4, #16]
 8007896:	dc02      	bgt.n	800789e <_printf_float+0x14e>
 8007898:	6822      	ldr	r2, [r4, #0]
 800789a:	07d1      	lsls	r1, r2, #31
 800789c:	d501      	bpl.n	80078a2 <_printf_float+0x152>
 800789e:	3301      	adds	r3, #1
 80078a0:	6123      	str	r3, [r4, #16]
 80078a2:	f89d 3023 	ldrb.w	r3, [sp, #35]	; 0x23
 80078a6:	2b00      	cmp	r3, #0
 80078a8:	d0a5      	beq.n	80077f6 <_printf_float+0xa6>
 80078aa:	232d      	movs	r3, #45	; 0x2d
 80078ac:	f884 3043 	strb.w	r3, [r4, #67]	; 0x43
 80078b0:	e7a1      	b.n	80077f6 <_printf_float+0xa6>
 80078b2:	f1ba 0f67 	cmp.w	sl, #103	; 0x67
 80078b6:	f000 8177 	beq.w	8007ba8 <_printf_float+0x458>
 80078ba:	f1ba 0f47 	cmp.w	sl, #71	; 0x47
 80078be:	d1bb      	bne.n	8007838 <_printf_float+0xe8>
 80078c0:	2900      	cmp	r1, #0
 80078c2:	d1b9      	bne.n	8007838 <_printf_float+0xe8>
 80078c4:	2301      	movs	r3, #1
 80078c6:	e7b6      	b.n	8007836 <_printf_float+0xe6>
 80078c8:	f1ba 0f66 	cmp.w	sl, #102	; 0x66
 80078cc:	d119      	bne.n	8007902 <_printf_float+0x1b2>
 80078ce:	2900      	cmp	r1, #0
 80078d0:	6863      	ldr	r3, [r4, #4]
 80078d2:	dd0c      	ble.n	80078ee <_printf_float+0x19e>
 80078d4:	6121      	str	r1, [r4, #16]
 80078d6:	b913      	cbnz	r3, 80078de <_printf_float+0x18e>
 80078d8:	6822      	ldr	r2, [r4, #0]
 80078da:	07d2      	lsls	r2, r2, #31
 80078dc:	d502      	bpl.n	80078e4 <_printf_float+0x194>
 80078de:	3301      	adds	r3, #1
 80078e0:	440b      	add	r3, r1
 80078e2:	6123      	str	r3, [r4, #16]
 80078e4:	9b09      	ldr	r3, [sp, #36]	; 0x24
 80078e6:	65a3      	str	r3, [r4, #88]	; 0x58
 80078e8:	f04f 0900 	mov.w	r9, #0
 80078ec:	e7d9      	b.n	80078a2 <_printf_float+0x152>
 80078ee:	b913      	cbnz	r3, 80078f6 <_printf_float+0x1a6>
 80078f0:	6822      	ldr	r2, [r4, #0]
 80078f2:	07d0      	lsls	r0, r2, #31
 80078f4:	d501      	bpl.n	80078fa <_printf_float+0x1aa>
 80078f6:	3302      	adds	r3, #2
 80078f8:	e7f3      	b.n	80078e2 <_printf_float+0x192>
 80078fa:	2301      	movs	r3, #1
 80078fc:	e7f1      	b.n	80078e2 <_printf_float+0x192>
 80078fe:	f04f 0a67 	mov.w	sl, #103	; 0x67
 8007902:	e9dd 3209 	ldrd	r3, r2, [sp, #36]	; 0x24
 8007906:	4293      	cmp	r3, r2
 8007908:	db05      	blt.n	8007916 <_printf_float+0x1c6>
 800790a:	6822      	ldr	r2, [r4, #0]
 800790c:	6123      	str	r3, [r4, #16]
 800790e:	07d1      	lsls	r1, r2, #31
 8007910:	d5e8      	bpl.n	80078e4 <_printf_float+0x194>
 8007912:	3301      	adds	r3, #1
 8007914:	e7e5      	b.n	80078e2 <_printf_float+0x192>
 8007916:	2b00      	cmp	r3, #0
 8007918:	bfd4      	ite	le
 800791a:	f1c3 0302 	rsble	r3, r3, #2
 800791e:	2301      	movgt	r3, #1
 8007920:	4413      	add	r3, r2
 8007922:	e7de      	b.n	80078e2 <_printf_float+0x192>
 8007924:	6823      	ldr	r3, [r4, #0]
 8007926:	055a      	lsls	r2, r3, #21
 8007928:	d407      	bmi.n	800793a <_printf_float+0x1ea>
 800792a:	6923      	ldr	r3, [r4, #16]
 800792c:	4642      	mov	r2, r8
 800792e:	4631      	mov	r1, r6
 8007930:	4628      	mov	r0, r5
 8007932:	47b8      	blx	r7
 8007934:	3001      	adds	r0, #1
 8007936:	d12b      	bne.n	8007990 <_printf_float+0x240>
 8007938:	e767      	b.n	800780a <_printf_float+0xba>
 800793a:	f1ba 0f65 	cmp.w	sl, #101	; 0x65
 800793e:	f240 80dc 	bls.w	8007afa <_printf_float+0x3aa>
 8007942:	2200      	movs	r2, #0
 8007944:	2300      	movs	r3, #0
 8007946:	e9d4 0112 	ldrd	r0, r1, [r4, #72]	; 0x48
 800794a:	f7f9 fa97 	bl	8000e7c <__aeabi_dcmpeq>
 800794e:	2800      	cmp	r0, #0
 8007950:	d033      	beq.n	80079ba <_printf_float+0x26a>
 8007952:	2301      	movs	r3, #1
 8007954:	4a41      	ldr	r2, [pc, #260]	; (8007a5c <_printf_float+0x30c>)
 8007956:	4631      	mov	r1, r6
 8007958:	4628      	mov	r0, r5
 800795a:	47b8      	blx	r7
 800795c:	3001      	adds	r0, #1
 800795e:	f43f af54 	beq.w	800780a <_printf_float+0xba>
 8007962:	e9dd 2309 	ldrd	r2, r3, [sp, #36]	; 0x24
 8007966:	429a      	cmp	r2, r3
 8007968:	db02      	blt.n	8007970 <_printf_float+0x220>
 800796a:	6823      	ldr	r3, [r4, #0]
 800796c:	07d8      	lsls	r0, r3, #31
 800796e:	d50f      	bpl.n	8007990 <_printf_float+0x240>
 8007970:	e9dd 2304 	ldrd	r2, r3, [sp, #16]
 8007974:	4631      	mov	r1, r6
 8007976:	4628      	mov	r0, r5
 8007978:	47b8      	blx	r7
 800797a:	3001      	adds	r0, #1
 800797c:	f43f af45 	beq.w	800780a <_printf_float+0xba>
 8007980:	f04f 0800 	mov.w	r8, #0
 8007984:	f104 091a 	add.w	r9, r4, #26
 8007988:	9b0a      	ldr	r3, [sp, #40]	; 0x28
 800798a:	3b01      	subs	r3, #1
 800798c:	4543      	cmp	r3, r8
 800798e:	dc09      	bgt.n	80079a4 <_printf_float+0x254>
 8007990:	6823      	ldr	r3, [r4, #0]
 8007992:	079b      	lsls	r3, r3, #30
 8007994:	f100 8103 	bmi.w	8007b9e <_printf_float+0x44e>
 8007998:	68e0      	ldr	r0, [r4, #12]
 800799a:	9b0b      	ldr	r3, [sp, #44]	; 0x2c
 800799c:	4298      	cmp	r0, r3
 800799e:	bfb8      	it	lt
 80079a0:	4618      	movlt	r0, r3
 80079a2:	e734      	b.n	800780e <_printf_float+0xbe>
 80079a4:	2301      	movs	r3, #1
 80079a6:	464a      	mov	r2, r9
 80079a8:	4631      	mov	r1, r6
 80079aa:	4628      	mov	r0, r5
 80079ac:	47b8      	blx	r7
 80079ae:	3001      	adds	r0, #1
 80079b0:	f43f af2b 	beq.w	800780a <_printf_float+0xba>
 80079b4:	f108 0801 	add.w	r8, r8, #1
 80079b8:	e7e6      	b.n	8007988 <_printf_float+0x238>
 80079ba:	9b09      	ldr	r3, [sp, #36]	; 0x24
 80079bc:	2b00      	cmp	r3, #0
 80079be:	dc2b      	bgt.n	8007a18 <_printf_float+0x2c8>
 80079c0:	2301      	movs	r3, #1
 80079c2:	4a26      	ldr	r2, [pc, #152]	; (8007a5c <_printf_float+0x30c>)
 80079c4:	4631      	mov	r1, r6
 80079c6:	4628      	mov	r0, r5
 80079c8:	47b8      	blx	r7
 80079ca:	3001      	adds	r0, #1
 80079cc:	f43f af1d 	beq.w	800780a <_printf_float+0xba>
 80079d0:	9b09      	ldr	r3, [sp, #36]	; 0x24
 80079d2:	b923      	cbnz	r3, 80079de <_printf_float+0x28e>
 80079d4:	9b0a      	ldr	r3, [sp, #40]	; 0x28
 80079d6:	b913      	cbnz	r3, 80079de <_printf_float+0x28e>
 80079d8:	6823      	ldr	r3, [r4, #0]
 80079da:	07d9      	lsls	r1, r3, #31
 80079dc:	d5d8      	bpl.n	8007990 <_printf_float+0x240>
 80079de:	e9dd 2304 	ldrd	r2, r3, [sp, #16]
 80079e2:	4631      	mov	r1, r6
 80079e4:	4628      	mov	r0, r5
 80079e6:	47b8      	blx	r7
 80079e8:	3001      	adds	r0, #1
 80079ea:	f43f af0e 	beq.w	800780a <_printf_float+0xba>
 80079ee:	f04f 0900 	mov.w	r9, #0
 80079f2:	f104 0a1a 	add.w	sl, r4, #26
 80079f6:	9b09      	ldr	r3, [sp, #36]	; 0x24
 80079f8:	425b      	negs	r3, r3
 80079fa:	454b      	cmp	r3, r9
 80079fc:	dc01      	bgt.n	8007a02 <_printf_float+0x2b2>
 80079fe:	9b0a      	ldr	r3, [sp, #40]	; 0x28
 8007a00:	e794      	b.n	800792c <_printf_float+0x1dc>
 8007a02:	2301      	movs	r3, #1
 8007a04:	4652      	mov	r2, sl
 8007a06:	4631      	mov	r1, r6
 8007a08:	4628      	mov	r0, r5
 8007a0a:	47b8      	blx	r7
 8007a0c:	3001      	adds	r0, #1
 8007a0e:	f43f aefc 	beq.w	800780a <_printf_float+0xba>
 8007a12:	f109 0901 	add.w	r9, r9, #1
 8007a16:	e7ee      	b.n	80079f6 <_printf_float+0x2a6>
 8007a18:	9a0a      	ldr	r2, [sp, #40]	; 0x28
 8007a1a:	6da3      	ldr	r3, [r4, #88]	; 0x58
 8007a1c:	429a      	cmp	r2, r3
 8007a1e:	bfa8      	it	ge
 8007a20:	461a      	movge	r2, r3
 8007a22:	2a00      	cmp	r2, #0
 8007a24:	4691      	mov	r9, r2
 8007a26:	dd07      	ble.n	8007a38 <_printf_float+0x2e8>
 8007a28:	4613      	mov	r3, r2
 8007a2a:	4631      	mov	r1, r6
 8007a2c:	4642      	mov	r2, r8
 8007a2e:	4628      	mov	r0, r5
 8007a30:	47b8      	blx	r7
 8007a32:	3001      	adds	r0, #1
 8007a34:	f43f aee9 	beq.w	800780a <_printf_float+0xba>
 8007a38:	f104 031a 	add.w	r3, r4, #26
 8007a3c:	f04f 0b00 	mov.w	fp, #0
 8007a40:	ea29 79e9 	bic.w	r9, r9, r9, asr #31
 8007a44:	9306      	str	r3, [sp, #24]
 8007a46:	e015      	b.n	8007a74 <_printf_float+0x324>
 8007a48:	7fefffff 	.word	0x7fefffff
 8007a4c:	0800c308 	.word	0x0800c308
 8007a50:	0800c304 	.word	0x0800c304
 8007a54:	0800c310 	.word	0x0800c310
 8007a58:	0800c30c 	.word	0x0800c30c
 8007a5c:	0800c314 	.word	0x0800c314
 8007a60:	2301      	movs	r3, #1
 8007a62:	9a06      	ldr	r2, [sp, #24]
 8007a64:	4631      	mov	r1, r6
 8007a66:	4628      	mov	r0, r5
 8007a68:	47b8      	blx	r7
 8007a6a:	3001      	adds	r0, #1
 8007a6c:	f43f aecd 	beq.w	800780a <_printf_float+0xba>
 8007a70:	f10b 0b01 	add.w	fp, fp, #1
 8007a74:	f8d4 a058 	ldr.w	sl, [r4, #88]	; 0x58
 8007a78:	ebaa 0309 	sub.w	r3, sl, r9
 8007a7c:	455b      	cmp	r3, fp
 8007a7e:	dcef      	bgt.n	8007a60 <_printf_float+0x310>
 8007a80:	e9dd 2309 	ldrd	r2, r3, [sp, #36]	; 0x24
 8007a84:	429a      	cmp	r2, r3
 8007a86:	44d0      	add	r8, sl
 8007a88:	db15      	blt.n	8007ab6 <_printf_float+0x366>
 8007a8a:	6823      	ldr	r3, [r4, #0]
 8007a8c:	07da      	lsls	r2, r3, #31
 8007a8e:	d412      	bmi.n	8007ab6 <_printf_float+0x366>
 8007a90:	9b0a      	ldr	r3, [sp, #40]	; 0x28
 8007a92:	9909      	ldr	r1, [sp, #36]	; 0x24
 8007a94:	eba3 020a 	sub.w	r2, r3, sl
 8007a98:	eba3 0a01 	sub.w	sl, r3, r1
 8007a9c:	4592      	cmp	sl, r2
 8007a9e:	bfa8      	it	ge
 8007aa0:	4692      	movge	sl, r2
 8007aa2:	f1ba 0f00 	cmp.w	sl, #0
 8007aa6:	dc0e      	bgt.n	8007ac6 <_printf_float+0x376>
 8007aa8:	f04f 0800 	mov.w	r8, #0
 8007aac:	ea2a 7aea 	bic.w	sl, sl, sl, asr #31
 8007ab0:	f104 091a 	add.w	r9, r4, #26
 8007ab4:	e019      	b.n	8007aea <_printf_float+0x39a>
 8007ab6:	e9dd 2304 	ldrd	r2, r3, [sp, #16]
 8007aba:	4631      	mov	r1, r6
 8007abc:	4628      	mov	r0, r5
 8007abe:	47b8      	blx	r7
 8007ac0:	3001      	adds	r0, #1
 8007ac2:	d1e5      	bne.n	8007a90 <_printf_float+0x340>
 8007ac4:	e6a1      	b.n	800780a <_printf_float+0xba>
 8007ac6:	4653      	mov	r3, sl
 8007ac8:	4642      	mov	r2, r8
 8007aca:	4631      	mov	r1, r6
 8007acc:	4628      	mov	r0, r5
 8007ace:	47b8      	blx	r7
 8007ad0:	3001      	adds	r0, #1
 8007ad2:	d1e9      	bne.n	8007aa8 <_printf_float+0x358>
 8007ad4:	e699      	b.n	800780a <_printf_float+0xba>
 8007ad6:	2301      	movs	r3, #1
 8007ad8:	464a      	mov	r2, r9
 8007ada:	4631      	mov	r1, r6
 8007adc:	4628      	mov	r0, r5
 8007ade:	47b8      	blx	r7
 8007ae0:	3001      	adds	r0, #1
 8007ae2:	f43f ae92 	beq.w	800780a <_printf_float+0xba>
 8007ae6:	f108 0801 	add.w	r8, r8, #1
 8007aea:	e9dd 2309 	ldrd	r2, r3, [sp, #36]	; 0x24
 8007aee:	1a9b      	subs	r3, r3, r2
 8007af0:	eba3 030a 	sub.w	r3, r3, sl
 8007af4:	4543      	cmp	r3, r8
 8007af6:	dcee      	bgt.n	8007ad6 <_printf_float+0x386>
 8007af8:	e74a      	b.n	8007990 <_printf_float+0x240>
 8007afa:	9a0a      	ldr	r2, [sp, #40]	; 0x28
 8007afc:	2a01      	cmp	r2, #1
 8007afe:	dc01      	bgt.n	8007b04 <_printf_float+0x3b4>
 8007b00:	07db      	lsls	r3, r3, #31
 8007b02:	d53a      	bpl.n	8007b7a <_printf_float+0x42a>
 8007b04:	2301      	movs	r3, #1
 8007b06:	4642      	mov	r2, r8
 8007b08:	4631      	mov	r1, r6
 8007b0a:	4628      	mov	r0, r5
 8007b0c:	47b8      	blx	r7
 8007b0e:	3001      	adds	r0, #1
 8007b10:	f43f ae7b 	beq.w	800780a <_printf_float+0xba>
 8007b14:	e9dd 2304 	ldrd	r2, r3, [sp, #16]
 8007b18:	4631      	mov	r1, r6
 8007b1a:	4628      	mov	r0, r5
 8007b1c:	47b8      	blx	r7
 8007b1e:	3001      	adds	r0, #1
 8007b20:	f108 0801 	add.w	r8, r8, #1
 8007b24:	f43f ae71 	beq.w	800780a <_printf_float+0xba>
 8007b28:	9b0a      	ldr	r3, [sp, #40]	; 0x28
 8007b2a:	2200      	movs	r2, #0
 8007b2c:	f103 3aff 	add.w	sl, r3, #4294967295	; 0xffffffff
 8007b30:	e9d4 0112 	ldrd	r0, r1, [r4, #72]	; 0x48
 8007b34:	2300      	movs	r3, #0
 8007b36:	f7f9 f9a1 	bl	8000e7c <__aeabi_dcmpeq>
 8007b3a:	b9c8      	cbnz	r0, 8007b70 <_printf_float+0x420>
 8007b3c:	4653      	mov	r3, sl
 8007b3e:	4642      	mov	r2, r8
 8007b40:	4631      	mov	r1, r6
 8007b42:	4628      	mov	r0, r5
 8007b44:	47b8      	blx	r7
 8007b46:	3001      	adds	r0, #1
 8007b48:	d10e      	bne.n	8007b68 <_printf_float+0x418>
 8007b4a:	e65e      	b.n	800780a <_printf_float+0xba>
 8007b4c:	2301      	movs	r3, #1
 8007b4e:	4652      	mov	r2, sl
 8007b50:	4631      	mov	r1, r6
 8007b52:	4628      	mov	r0, r5
 8007b54:	47b8      	blx	r7
 8007b56:	3001      	adds	r0, #1
 8007b58:	f43f ae57 	beq.w	800780a <_printf_float+0xba>
 8007b5c:	f108 0801 	add.w	r8, r8, #1
 8007b60:	9b0a      	ldr	r3, [sp, #40]	; 0x28
 8007b62:	3b01      	subs	r3, #1
 8007b64:	4543      	cmp	r3, r8
 8007b66:	dcf1      	bgt.n	8007b4c <_printf_float+0x3fc>
 8007b68:	464b      	mov	r3, r9
 8007b6a:	f104 0250 	add.w	r2, r4, #80	; 0x50
 8007b6e:	e6de      	b.n	800792e <_printf_float+0x1de>
 8007b70:	f04f 0800 	mov.w	r8, #0
 8007b74:	f104 0a1a 	add.w	sl, r4, #26
 8007b78:	e7f2      	b.n	8007b60 <_printf_float+0x410>
 8007b7a:	2301      	movs	r3, #1
 8007b7c:	e7df      	b.n	8007b3e <_printf_float+0x3ee>
 8007b7e:	2301      	movs	r3, #1
 8007b80:	464a      	mov	r2, r9
 8007b82:	4631      	mov	r1, r6
 8007b84:	4628      	mov	r0, r5
 8007b86:	47b8      	blx	r7
 8007b88:	3001      	adds	r0, #1
 8007b8a:	f43f ae3e 	beq.w	800780a <_printf_float+0xba>
 8007b8e:	f108 0801 	add.w	r8, r8, #1
 8007b92:	68e3      	ldr	r3, [r4, #12]
 8007b94:	9a0b      	ldr	r2, [sp, #44]	; 0x2c
 8007b96:	1a9b      	subs	r3, r3, r2
 8007b98:	4543      	cmp	r3, r8
 8007b9a:	dcf0      	bgt.n	8007b7e <_printf_float+0x42e>
 8007b9c:	e6fc      	b.n	8007998 <_printf_float+0x248>
 8007b9e:	f04f 0800 	mov.w	r8, #0
 8007ba2:	f104 0919 	add.w	r9, r4, #25
 8007ba6:	e7f4      	b.n	8007b92 <_printf_float+0x442>
 8007ba8:	2900      	cmp	r1, #0
 8007baa:	f43f ae8b 	beq.w	80078c4 <_printf_float+0x174>
 8007bae:	2300      	movs	r3, #0
 8007bb0:	e9cd 0302 	strd	r0, r3, [sp, #8]
 8007bb4:	ab09      	add	r3, sp, #36	; 0x24
 8007bb6:	9300      	str	r3, [sp, #0]
 8007bb8:	ec49 8b10 	vmov	d0, r8, r9
 8007bbc:	6022      	str	r2, [r4, #0]
 8007bbe:	f8cd a004 	str.w	sl, [sp, #4]
 8007bc2:	f10d 0323 	add.w	r3, sp, #35	; 0x23
 8007bc6:	4628      	mov	r0, r5
 8007bc8:	f7ff fd2d 	bl	8007626 <__cvt>
 8007bcc:	4680      	mov	r8, r0
 8007bce:	e648      	b.n	8007862 <_printf_float+0x112>

08007bd0 <_printf_common>:
 8007bd0:	e92d 47f0 	stmdb	sp!, {r4, r5, r6, r7, r8, r9, sl, lr}
 8007bd4:	4691      	mov	r9, r2
 8007bd6:	461f      	mov	r7, r3
 8007bd8:	688a      	ldr	r2, [r1, #8]
 8007bda:	690b      	ldr	r3, [r1, #16]
 8007bdc:	f8dd 8020 	ldr.w	r8, [sp, #32]
 8007be0:	4293      	cmp	r3, r2
 8007be2:	bfb8      	it	lt
 8007be4:	4613      	movlt	r3, r2
 8007be6:	f8c9 3000 	str.w	r3, [r9]
 8007bea:	f891 2043 	ldrb.w	r2, [r1, #67]	; 0x43
 8007bee:	4606      	mov	r6, r0
 8007bf0:	460c      	mov	r4, r1
 8007bf2:	b112      	cbz	r2, 8007bfa <_printf_common+0x2a>
 8007bf4:	3301      	adds	r3, #1
 8007bf6:	f8c9 3000 	str.w	r3, [r9]
 8007bfa:	6823      	ldr	r3, [r4, #0]
 8007bfc:	0699      	lsls	r1, r3, #26
 8007bfe:	bf42      	ittt	mi
 8007c00:	f8d9 3000 	ldrmi.w	r3, [r9]
 8007c04:	3302      	addmi	r3, #2
 8007c06:	f8c9 3000 	strmi.w	r3, [r9]
 8007c0a:	6825      	ldr	r5, [r4, #0]
 8007c0c:	f015 0506 	ands.w	r5, r5, #6
 8007c10:	d107      	bne.n	8007c22 <_printf_common+0x52>
 8007c12:	f104 0a19 	add.w	sl, r4, #25
 8007c16:	68e3      	ldr	r3, [r4, #12]
 8007c18:	f8d9 2000 	ldr.w	r2, [r9]
 8007c1c:	1a9b      	subs	r3, r3, r2
 8007c1e:	42ab      	cmp	r3, r5
 8007c20:	dc28      	bgt.n	8007c74 <_printf_common+0xa4>
 8007c22:	f894 3043 	ldrb.w	r3, [r4, #67]	; 0x43
 8007c26:	6822      	ldr	r2, [r4, #0]
 8007c28:	3300      	adds	r3, #0
 8007c2a:	bf18      	it	ne
 8007c2c:	2301      	movne	r3, #1
 8007c2e:	0692      	lsls	r2, r2, #26
 8007c30:	d42d      	bmi.n	8007c8e <_printf_common+0xbe>
 8007c32:	f104 0243 	add.w	r2, r4, #67	; 0x43
 8007c36:	4639      	mov	r1, r7
 8007c38:	4630      	mov	r0, r6
 8007c3a:	47c0      	blx	r8
 8007c3c:	3001      	adds	r0, #1
 8007c3e:	d020      	beq.n	8007c82 <_printf_common+0xb2>
 8007c40:	6823      	ldr	r3, [r4, #0]
 8007c42:	68e5      	ldr	r5, [r4, #12]
 8007c44:	f8d9 2000 	ldr.w	r2, [r9]
 8007c48:	f003 0306 	and.w	r3, r3, #6
 8007c4c:	2b04      	cmp	r3, #4
 8007c4e:	bf08      	it	eq
 8007c50:	1aad      	subeq	r5, r5, r2
 8007c52:	68a3      	ldr	r3, [r4, #8]
 8007c54:	6922      	ldr	r2, [r4, #16]
 8007c56:	bf0c      	ite	eq
 8007c58:	ea25 75e5 	biceq.w	r5, r5, r5, asr #31
 8007c5c:	2500      	movne	r5, #0
 8007c5e:	4293      	cmp	r3, r2
 8007c60:	bfc4      	itt	gt
 8007c62:	1a9b      	subgt	r3, r3, r2
 8007c64:	18ed      	addgt	r5, r5, r3
 8007c66:	f04f 0900 	mov.w	r9, #0
 8007c6a:	341a      	adds	r4, #26
 8007c6c:	454d      	cmp	r5, r9
 8007c6e:	d11a      	bne.n	8007ca6 <_printf_common+0xd6>
 8007c70:	2000      	movs	r0, #0
 8007c72:	e008      	b.n	8007c86 <_printf_common+0xb6>
 8007c74:	2301      	movs	r3, #1
 8007c76:	4652      	mov	r2, sl
 8007c78:	4639      	mov	r1, r7
 8007c7a:	4630      	mov	r0, r6
 8007c7c:	47c0      	blx	r8
 8007c7e:	3001      	adds	r0, #1
 8007c80:	d103      	bne.n	8007c8a <_printf_common+0xba>
 8007c82:	f04f 30ff 	mov.w	r0, #4294967295	; 0xffffffff
 8007c86:	e8bd 87f0 	ldmia.w	sp!, {r4, r5, r6, r7, r8, r9, sl, pc}
 8007c8a:	3501      	adds	r5, #1
 8007c8c:	e7c3      	b.n	8007c16 <_printf_common+0x46>
 8007c8e:	18e1      	adds	r1, r4, r3
 8007c90:	1c5a      	adds	r2, r3, #1
 8007c92:	2030      	movs	r0, #48	; 0x30
 8007c94:	f881 0043 	strb.w	r0, [r1, #67]	; 0x43
 8007c98:	4422      	add	r2, r4
 8007c9a:	f894 1045 	ldrb.w	r1, [r4, #69]	; 0x45
 8007c9e:	f882 1043 	strb.w	r1, [r2, #67]	; 0x43
 8007ca2:	3302      	adds	r3, #2
 8007ca4:	e7c5      	b.n	8007c32 <_printf_common+0x62>
 8007ca6:	2301      	movs	r3, #1
 8007ca8:	4622      	mov	r2, r4
 8007caa:	4639      	mov	r1, r7
 8007cac:	4630      	mov	r0, r6
 8007cae:	47c0      	blx	r8
 8007cb0:	3001      	adds	r0, #1
 8007cb2:	d0e6      	beq.n	8007c82 <_printf_common+0xb2>
 8007cb4:	f109 0901 	add.w	r9, r9, #1
 8007cb8:	e7d8      	b.n	8007c6c <_printf_common+0x9c>
	...

08007cbc <_printf_i>:
 8007cbc:	e92d 43f0 	stmdb	sp!, {r4, r5, r6, r7, r8, r9, lr}
 8007cc0:	f101 0c43 	add.w	ip, r1, #67	; 0x43
 8007cc4:	460c      	mov	r4, r1
 8007cc6:	7e09      	ldrb	r1, [r1, #24]
 8007cc8:	b085      	sub	sp, #20
 8007cca:	296e      	cmp	r1, #110	; 0x6e
 8007ccc:	4617      	mov	r7, r2
 8007cce:	4606      	mov	r6, r0
 8007cd0:	4698      	mov	r8, r3
 8007cd2:	9a0c      	ldr	r2, [sp, #48]	; 0x30
 8007cd4:	f000 80b3 	beq.w	8007e3e <_printf_i+0x182>
 8007cd8:	d822      	bhi.n	8007d20 <_printf_i+0x64>
 8007cda:	2963      	cmp	r1, #99	; 0x63
 8007cdc:	d036      	beq.n	8007d4c <_printf_i+0x90>
 8007cde:	d80a      	bhi.n	8007cf6 <_printf_i+0x3a>
 8007ce0:	2900      	cmp	r1, #0
 8007ce2:	f000 80b9 	beq.w	8007e58 <_printf_i+0x19c>
 8007ce6:	2958      	cmp	r1, #88	; 0x58
 8007ce8:	f000 8083 	beq.w	8007df2 <_printf_i+0x136>
 8007cec:	f104 0542 	add.w	r5, r4, #66	; 0x42
 8007cf0:	f884 1042 	strb.w	r1, [r4, #66]	; 0x42
 8007cf4:	e032      	b.n	8007d5c <_printf_i+0xa0>
 8007cf6:	2964      	cmp	r1, #100	; 0x64
 8007cf8:	d001      	beq.n	8007cfe <_printf_i+0x42>
 8007cfa:	2969      	cmp	r1, #105	; 0x69
 8007cfc:	d1f6      	bne.n	8007cec <_printf_i+0x30>
 8007cfe:	6820      	ldr	r0, [r4, #0]
 8007d00:	6813      	ldr	r3, [r2, #0]
 8007d02:	0605      	lsls	r5, r0, #24
 8007d04:	f103 0104 	add.w	r1, r3, #4
 8007d08:	d52a      	bpl.n	8007d60 <_printf_i+0xa4>
 8007d0a:	681b      	ldr	r3, [r3, #0]
 8007d0c:	6011      	str	r1, [r2, #0]
 8007d0e:	2b00      	cmp	r3, #0
 8007d10:	da03      	bge.n	8007d1a <_printf_i+0x5e>
 8007d12:	222d      	movs	r2, #45	; 0x2d
 8007d14:	425b      	negs	r3, r3
 8007d16:	f884 2043 	strb.w	r2, [r4, #67]	; 0x43
 8007d1a:	486f      	ldr	r0, [pc, #444]	; (8007ed8 <_printf_i+0x21c>)
 8007d1c:	220a      	movs	r2, #10
 8007d1e:	e039      	b.n	8007d94 <_printf_i+0xd8>
 8007d20:	2973      	cmp	r1, #115	; 0x73
 8007d22:	f000 809d 	beq.w	8007e60 <_printf_i+0x1a4>
 8007d26:	d808      	bhi.n	8007d3a <_printf_i+0x7e>
 8007d28:	296f      	cmp	r1, #111	; 0x6f
 8007d2a:	d020      	beq.n	8007d6e <_printf_i+0xb2>
 8007d2c:	2970      	cmp	r1, #112	; 0x70
 8007d2e:	d1dd      	bne.n	8007cec <_printf_i+0x30>
 8007d30:	6823      	ldr	r3, [r4, #0]
 8007d32:	f043 0320 	orr.w	r3, r3, #32
 8007d36:	6023      	str	r3, [r4, #0]
 8007d38:	e003      	b.n	8007d42 <_printf_i+0x86>
 8007d3a:	2975      	cmp	r1, #117	; 0x75
 8007d3c:	d017      	beq.n	8007d6e <_printf_i+0xb2>
 8007d3e:	2978      	cmp	r1, #120	; 0x78
 8007d40:	d1d4      	bne.n	8007cec <_printf_i+0x30>
 8007d42:	2378      	movs	r3, #120	; 0x78
 8007d44:	f884 3045 	strb.w	r3, [r4, #69]	; 0x45
 8007d48:	4864      	ldr	r0, [pc, #400]	; (8007edc <_printf_i+0x220>)
 8007d4a:	e055      	b.n	8007df8 <_printf_i+0x13c>
 8007d4c:	6813      	ldr	r3, [r2, #0]
 8007d4e:	1d19      	adds	r1, r3, #4
 8007d50:	681b      	ldr	r3, [r3, #0]
 8007d52:	6011      	str	r1, [r2, #0]
 8007d54:	f104 0542 	add.w	r5, r4, #66	; 0x42
 8007d58:	f884 3042 	strb.w	r3, [r4, #66]	; 0x42
 8007d5c:	2301      	movs	r3, #1
 8007d5e:	e08c      	b.n	8007e7a <_printf_i+0x1be>
 8007d60:	681b      	ldr	r3, [r3, #0]
 8007d62:	6011      	str	r1, [r2, #0]
 8007d64:	f010 0f40 	tst.w	r0, #64	; 0x40
 8007d68:	bf18      	it	ne
 8007d6a:	b21b      	sxthne	r3, r3
 8007d6c:	e7cf      	b.n	8007d0e <_printf_i+0x52>
 8007d6e:	6813      	ldr	r3, [r2, #0]
 8007d70:	6825      	ldr	r5, [r4, #0]
 8007d72:	1d18      	adds	r0, r3, #4
 8007d74:	6010      	str	r0, [r2, #0]
 8007d76:	0628      	lsls	r0, r5, #24
 8007d78:	d501      	bpl.n	8007d7e <_printf_i+0xc2>
 8007d7a:	681b      	ldr	r3, [r3, #0]
 8007d7c:	e002      	b.n	8007d84 <_printf_i+0xc8>
 8007d7e:	0668      	lsls	r0, r5, #25
 8007d80:	d5fb      	bpl.n	8007d7a <_printf_i+0xbe>
 8007d82:	881b      	ldrh	r3, [r3, #0]
 8007d84:	4854      	ldr	r0, [pc, #336]	; (8007ed8 <_printf_i+0x21c>)
 8007d86:	296f      	cmp	r1, #111	; 0x6f
 8007d88:	bf14      	ite	ne
 8007d8a:	220a      	movne	r2, #10
 8007d8c:	2208      	moveq	r2, #8
 8007d8e:	2100      	movs	r1, #0
 8007d90:	f884 1043 	strb.w	r1, [r4, #67]	; 0x43
 8007d94:	6865      	ldr	r5, [r4, #4]
 8007d96:	60a5      	str	r5, [r4, #8]
 8007d98:	2d00      	cmp	r5, #0
 8007d9a:	f2c0 8095 	blt.w	8007ec8 <_printf_i+0x20c>
 8007d9e:	6821      	ldr	r1, [r4, #0]
 8007da0:	f021 0104 	bic.w	r1, r1, #4
 8007da4:	6021      	str	r1, [r4, #0]
 8007da6:	2b00      	cmp	r3, #0
 8007da8:	d13d      	bne.n	8007e26 <_printf_i+0x16a>
 8007daa:	2d00      	cmp	r5, #0
 8007dac:	f040 808e 	bne.w	8007ecc <_printf_i+0x210>
 8007db0:	4665      	mov	r5, ip
 8007db2:	2a08      	cmp	r2, #8
 8007db4:	d10b      	bne.n	8007dce <_printf_i+0x112>
 8007db6:	6823      	ldr	r3, [r4, #0]
 8007db8:	07db      	lsls	r3, r3, #31
 8007dba:	d508      	bpl.n	8007dce <_printf_i+0x112>
 8007dbc:	6923      	ldr	r3, [r4, #16]
 8007dbe:	6862      	ldr	r2, [r4, #4]
 8007dc0:	429a      	cmp	r2, r3
 8007dc2:	bfde      	ittt	le
 8007dc4:	2330      	movle	r3, #48	; 0x30
 8007dc6:	f805 3c01 	strble.w	r3, [r5, #-1]
 8007dca:	f105 35ff 	addle.w	r5, r5, #4294967295	; 0xffffffff
 8007dce:	ebac 0305 	sub.w	r3, ip, r5
 8007dd2:	6123      	str	r3, [r4, #16]
 8007dd4:	f8cd 8000 	str.w	r8, [sp]
 8007dd8:	463b      	mov	r3, r7
 8007dda:	aa03      	add	r2, sp, #12
 8007ddc:	4621      	mov	r1, r4
 8007dde:	4630      	mov	r0, r6
 8007de0:	f7ff fef6 	bl	8007bd0 <_printf_common>
 8007de4:	3001      	adds	r0, #1
 8007de6:	d14d      	bne.n	8007e84 <_printf_i+0x1c8>
 8007de8:	f04f 30ff 	mov.w	r0, #4294967295	; 0xffffffff
 8007dec:	b005      	add	sp, #20
 8007dee:	e8bd 83f0 	ldmia.w	sp!, {r4, r5, r6, r7, r8, r9, pc}
 8007df2:	4839      	ldr	r0, [pc, #228]	; (8007ed8 <_printf_i+0x21c>)
 8007df4:	f884 1045 	strb.w	r1, [r4, #69]	; 0x45
 8007df8:	6813      	ldr	r3, [r2, #0]
 8007dfa:	6821      	ldr	r1, [r4, #0]
 8007dfc:	1d1d      	adds	r5, r3, #4
 8007dfe:	681b      	ldr	r3, [r3, #0]
 8007e00:	6015      	str	r5, [r2, #0]
 8007e02:	060a      	lsls	r2, r1, #24
 8007e04:	d50b      	bpl.n	8007e1e <_printf_i+0x162>
 8007e06:	07ca      	lsls	r2, r1, #31
 8007e08:	bf44      	itt	mi
 8007e0a:	f041 0120 	orrmi.w	r1, r1, #32
 8007e0e:	6021      	strmi	r1, [r4, #0]
 8007e10:	b91b      	cbnz	r3, 8007e1a <_printf_i+0x15e>
 8007e12:	6822      	ldr	r2, [r4, #0]
 8007e14:	f022 0220 	bic.w	r2, r2, #32
 8007e18:	6022      	str	r2, [r4, #0]
 8007e1a:	2210      	movs	r2, #16
 8007e1c:	e7b7      	b.n	8007d8e <_printf_i+0xd2>
 8007e1e:	064d      	lsls	r5, r1, #25
 8007e20:	bf48      	it	mi
 8007e22:	b29b      	uxthmi	r3, r3
 8007e24:	e7ef      	b.n	8007e06 <_printf_i+0x14a>
 8007e26:	4665      	mov	r5, ip
 8007e28:	fbb3 f1f2 	udiv	r1, r3, r2
 8007e2c:	fb02 3311 	mls	r3, r2, r1, r3
 8007e30:	5cc3      	ldrb	r3, [r0, r3]
 8007e32:	f805 3d01 	strb.w	r3, [r5, #-1]!
 8007e36:	460b      	mov	r3, r1
 8007e38:	2900      	cmp	r1, #0
 8007e3a:	d1f5      	bne.n	8007e28 <_printf_i+0x16c>
 8007e3c:	e7b9      	b.n	8007db2 <_printf_i+0xf6>
 8007e3e:	6813      	ldr	r3, [r2, #0]
 8007e40:	6825      	ldr	r5, [r4, #0]
 8007e42:	6961      	ldr	r1, [r4, #20]
 8007e44:	1d18      	adds	r0, r3, #4
 8007e46:	6010      	str	r0, [r2, #0]
 8007e48:	0628      	lsls	r0, r5, #24
 8007e4a:	681b      	ldr	r3, [r3, #0]
 8007e4c:	d501      	bpl.n	8007e52 <_printf_i+0x196>
 8007e4e:	6019      	str	r1, [r3, #0]
 8007e50:	e002      	b.n	8007e58 <_printf_i+0x19c>
 8007e52:	066a      	lsls	r2, r5, #25
 8007e54:	d5fb      	bpl.n	8007e4e <_printf_i+0x192>
 8007e56:	8019      	strh	r1, [r3, #0]
 8007e58:	2300      	movs	r3, #0
 8007e5a:	6123      	str	r3, [r4, #16]
 8007e5c:	4665      	mov	r5, ip
 8007e5e:	e7b9      	b.n	8007dd4 <_printf_i+0x118>
 8007e60:	6813      	ldr	r3, [r2, #0]
 8007e62:	1d19      	adds	r1, r3, #4
 8007e64:	6011      	str	r1, [r2, #0]
 8007e66:	681d      	ldr	r5, [r3, #0]
 8007e68:	6862      	ldr	r2, [r4, #4]
 8007e6a:	2100      	movs	r1, #0
 8007e6c:	4628      	mov	r0, r5
 8007e6e:	f7f8 ff5f 	bl	8000d30 <memchr>
 8007e72:	b108      	cbz	r0, 8007e78 <_printf_i+0x1bc>
 8007e74:	1b40      	subs	r0, r0, r5
 8007e76:	6060      	str	r0, [r4, #4]
 8007e78:	6863      	ldr	r3, [r4, #4]
 8007e7a:	6123      	str	r3, [r4, #16]
 8007e7c:	2300      	movs	r3, #0
 8007e7e:	f884 3043 	strb.w	r3, [r4, #67]	; 0x43
 8007e82:	e7a7      	b.n	8007dd4 <_printf_i+0x118>
 8007e84:	6923      	ldr	r3, [r4, #16]
 8007e86:	462a      	mov	r2, r5
 8007e88:	4639      	mov	r1, r7
 8007e8a:	4630      	mov	r0, r6
 8007e8c:	47c0      	blx	r8
 8007e8e:	3001      	adds	r0, #1
 8007e90:	d0aa      	beq.n	8007de8 <_printf_i+0x12c>
 8007e92:	6823      	ldr	r3, [r4, #0]
 8007e94:	079b      	lsls	r3, r3, #30
 8007e96:	d413      	bmi.n	8007ec0 <_printf_i+0x204>
 8007e98:	68e0      	ldr	r0, [r4, #12]
 8007e9a:	9b03      	ldr	r3, [sp, #12]
 8007e9c:	4298      	cmp	r0, r3
 8007e9e:	bfb8      	it	lt
 8007ea0:	4618      	movlt	r0, r3
 8007ea2:	e7a3      	b.n	8007dec <_printf_i+0x130>
 8007ea4:	2301      	movs	r3, #1
 8007ea6:	464a      	mov	r2, r9
 8007ea8:	4639      	mov	r1, r7
 8007eaa:	4630      	mov	r0, r6
 8007eac:	47c0      	blx	r8
 8007eae:	3001      	adds	r0, #1
 8007eb0:	d09a      	beq.n	8007de8 <_printf_i+0x12c>
 8007eb2:	3501      	adds	r5, #1
 8007eb4:	68e3      	ldr	r3, [r4, #12]
 8007eb6:	9a03      	ldr	r2, [sp, #12]
 8007eb8:	1a9b      	subs	r3, r3, r2
 8007eba:	42ab      	cmp	r3, r5
 8007ebc:	dcf2      	bgt.n	8007ea4 <_printf_i+0x1e8>
 8007ebe:	e7eb      	b.n	8007e98 <_printf_i+0x1dc>
 8007ec0:	2500      	movs	r5, #0
 8007ec2:	f104 0919 	add.w	r9, r4, #25
 8007ec6:	e7f5      	b.n	8007eb4 <_printf_i+0x1f8>
 8007ec8:	2b00      	cmp	r3, #0
 8007eca:	d1ac      	bne.n	8007e26 <_printf_i+0x16a>
 8007ecc:	7803      	ldrb	r3, [r0, #0]
 8007ece:	f884 3042 	strb.w	r3, [r4, #66]	; 0x42
 8007ed2:	f104 0542 	add.w	r5, r4, #66	; 0x42
 8007ed6:	e76c      	b.n	8007db2 <_printf_i+0xf6>
 8007ed8:	0800c316 	.word	0x0800c316
 8007edc:	0800c327 	.word	0x0800c327

08007ee0 <iprintf>:
 8007ee0:	b40f      	push	{r0, r1, r2, r3}
 8007ee2:	4b0a      	ldr	r3, [pc, #40]	; (8007f0c <iprintf+0x2c>)
 8007ee4:	b513      	push	{r0, r1, r4, lr}
 8007ee6:	681c      	ldr	r4, [r3, #0]
 8007ee8:	b124      	cbz	r4, 8007ef4 <iprintf+0x14>
 8007eea:	69a3      	ldr	r3, [r4, #24]
 8007eec:	b913      	cbnz	r3, 8007ef4 <iprintf+0x14>
 8007eee:	4620      	mov	r0, r4
 8007ef0:	f001 f886 	bl	8009000 <__sinit>
 8007ef4:	ab05      	add	r3, sp, #20
 8007ef6:	9a04      	ldr	r2, [sp, #16]
 8007ef8:	68a1      	ldr	r1, [r4, #8]
 8007efa:	9301      	str	r3, [sp, #4]
 8007efc:	4620      	mov	r0, r4
 8007efe:	f001 fe91 	bl	8009c24 <_vfiprintf_r>
 8007f02:	b002      	add	sp, #8
 8007f04:	e8bd 4010 	ldmia.w	sp!, {r4, lr}
 8007f08:	b004      	add	sp, #16
 8007f0a:	4770      	bx	lr
 8007f0c:	20000094 	.word	0x20000094

08007f10 <_puts_r>:
 8007f10:	b570      	push	{r4, r5, r6, lr}
 8007f12:	460e      	mov	r6, r1
 8007f14:	4605      	mov	r5, r0
 8007f16:	b118      	cbz	r0, 8007f20 <_puts_r+0x10>
 8007f18:	6983      	ldr	r3, [r0, #24]
 8007f1a:	b90b      	cbnz	r3, 8007f20 <_puts_r+0x10>
 8007f1c:	f001 f870 	bl	8009000 <__sinit>
 8007f20:	69ab      	ldr	r3, [r5, #24]
 8007f22:	68ac      	ldr	r4, [r5, #8]
 8007f24:	b913      	cbnz	r3, 8007f2c <_puts_r+0x1c>
 8007f26:	4628      	mov	r0, r5
 8007f28:	f001 f86a 	bl	8009000 <__sinit>
 8007f2c:	4b23      	ldr	r3, [pc, #140]	; (8007fbc <_puts_r+0xac>)
 8007f2e:	429c      	cmp	r4, r3
 8007f30:	d117      	bne.n	8007f62 <_puts_r+0x52>
 8007f32:	686c      	ldr	r4, [r5, #4]
 8007f34:	89a3      	ldrh	r3, [r4, #12]
 8007f36:	071b      	lsls	r3, r3, #28
 8007f38:	d51d      	bpl.n	8007f76 <_puts_r+0x66>
 8007f3a:	6923      	ldr	r3, [r4, #16]
 8007f3c:	b1db      	cbz	r3, 8007f76 <_puts_r+0x66>
 8007f3e:	3e01      	subs	r6, #1
 8007f40:	68a3      	ldr	r3, [r4, #8]
 8007f42:	f816 1f01 	ldrb.w	r1, [r6, #1]!
 8007f46:	3b01      	subs	r3, #1
 8007f48:	60a3      	str	r3, [r4, #8]
 8007f4a:	b9e9      	cbnz	r1, 8007f88 <_puts_r+0x78>
 8007f4c:	2b00      	cmp	r3, #0
 8007f4e:	da2e      	bge.n	8007fae <_puts_r+0x9e>
 8007f50:	4622      	mov	r2, r4
 8007f52:	210a      	movs	r1, #10
 8007f54:	4628      	mov	r0, r5
 8007f56:	f000 f85f 	bl	8008018 <__swbuf_r>
 8007f5a:	3001      	adds	r0, #1
 8007f5c:	d011      	beq.n	8007f82 <_puts_r+0x72>
 8007f5e:	200a      	movs	r0, #10
 8007f60:	e011      	b.n	8007f86 <_puts_r+0x76>
 8007f62:	4b17      	ldr	r3, [pc, #92]	; (8007fc0 <_puts_r+0xb0>)
 8007f64:	429c      	cmp	r4, r3
 8007f66:	d101      	bne.n	8007f6c <_puts_r+0x5c>
 8007f68:	68ac      	ldr	r4, [r5, #8]
 8007f6a:	e7e3      	b.n	8007f34 <_puts_r+0x24>
 8007f6c:	4b15      	ldr	r3, [pc, #84]	; (8007fc4 <_puts_r+0xb4>)
 8007f6e:	429c      	cmp	r4, r3
 8007f70:	bf08      	it	eq
 8007f72:	68ec      	ldreq	r4, [r5, #12]
 8007f74:	e7de      	b.n	8007f34 <_puts_r+0x24>
 8007f76:	4621      	mov	r1, r4
 8007f78:	4628      	mov	r0, r5
 8007f7a:	f000 f89f 	bl	80080bc <__swsetup_r>
 8007f7e:	2800      	cmp	r0, #0
 8007f80:	d0dd      	beq.n	8007f3e <_puts_r+0x2e>
 8007f82:	f04f 30ff 	mov.w	r0, #4294967295	; 0xffffffff
 8007f86:	bd70      	pop	{r4, r5, r6, pc}
 8007f88:	2b00      	cmp	r3, #0
 8007f8a:	da04      	bge.n	8007f96 <_puts_r+0x86>
 8007f8c:	69a2      	ldr	r2, [r4, #24]
 8007f8e:	429a      	cmp	r2, r3
 8007f90:	dc06      	bgt.n	8007fa0 <_puts_r+0x90>
 8007f92:	290a      	cmp	r1, #10
 8007f94:	d004      	beq.n	8007fa0 <_puts_r+0x90>
 8007f96:	6823      	ldr	r3, [r4, #0]
 8007f98:	1c5a      	adds	r2, r3, #1
 8007f9a:	6022      	str	r2, [r4, #0]
 8007f9c:	7019      	strb	r1, [r3, #0]
 8007f9e:	e7cf      	b.n	8007f40 <_puts_r+0x30>
 8007fa0:	4622      	mov	r2, r4
 8007fa2:	4628      	mov	r0, r5
 8007fa4:	f000 f838 	bl	8008018 <__swbuf_r>
 8007fa8:	3001      	adds	r0, #1
 8007faa:	d1c9      	bne.n	8007f40 <_puts_r+0x30>
 8007fac:	e7e9      	b.n	8007f82 <_puts_r+0x72>
 8007fae:	6823      	ldr	r3, [r4, #0]
 8007fb0:	200a      	movs	r0, #10
 8007fb2:	1c5a      	adds	r2, r3, #1
 8007fb4:	6022      	str	r2, [r4, #0]
 8007fb6:	7018      	strb	r0, [r3, #0]
 8007fb8:	e7e5      	b.n	8007f86 <_puts_r+0x76>
 8007fba:	bf00      	nop
 8007fbc:	0800c368 	.word	0x0800c368
 8007fc0:	0800c388 	.word	0x0800c388
 8007fc4:	0800c348 	.word	0x0800c348

08007fc8 <puts>:
 8007fc8:	4b02      	ldr	r3, [pc, #8]	; (8007fd4 <puts+0xc>)
 8007fca:	4601      	mov	r1, r0
 8007fcc:	6818      	ldr	r0, [r3, #0]
 8007fce:	f7ff bf9f 	b.w	8007f10 <_puts_r>
 8007fd2:	bf00      	nop
 8007fd4:	20000094 	.word	0x20000094

08007fd8 <siprintf>:
 8007fd8:	b40e      	push	{r1, r2, r3}
 8007fda:	b500      	push	{lr}
 8007fdc:	b09c      	sub	sp, #112	; 0x70
 8007fde:	ab1d      	add	r3, sp, #116	; 0x74
 8007fe0:	9002      	str	r0, [sp, #8]
 8007fe2:	9006      	str	r0, [sp, #24]
 8007fe4:	f06f 4100 	mvn.w	r1, #2147483648	; 0x80000000
 8007fe8:	4809      	ldr	r0, [pc, #36]	; (8008010 <siprintf+0x38>)
 8007fea:	9107      	str	r1, [sp, #28]
 8007fec:	9104      	str	r1, [sp, #16]
 8007fee:	4909      	ldr	r1, [pc, #36]	; (8008014 <siprintf+0x3c>)
 8007ff0:	f853 2b04 	ldr.w	r2, [r3], #4
 8007ff4:	9105      	str	r1, [sp, #20]
 8007ff6:	6800      	ldr	r0, [r0, #0]
 8007ff8:	9301      	str	r3, [sp, #4]
 8007ffa:	a902      	add	r1, sp, #8
 8007ffc:	f001 fcf0 	bl	80099e0 <_svfiprintf_r>
 8008000:	9b02      	ldr	r3, [sp, #8]
 8008002:	2200      	movs	r2, #0
 8008004:	701a      	strb	r2, [r3, #0]
 8008006:	b01c      	add	sp, #112	; 0x70
 8008008:	f85d eb04 	ldr.w	lr, [sp], #4
 800800c:	b003      	add	sp, #12
 800800e:	4770      	bx	lr
 8008010:	20000094 	.word	0x20000094
 8008014:	ffff0208 	.word	0xffff0208

08008018 <__swbuf_r>:
 8008018:	b5f8      	push	{r3, r4, r5, r6, r7, lr}
 800801a:	460e      	mov	r6, r1
 800801c:	4614      	mov	r4, r2
 800801e:	4605      	mov	r5, r0
 8008020:	b118      	cbz	r0, 800802a <__swbuf_r+0x12>
 8008022:	6983      	ldr	r3, [r0, #24]
 8008024:	b90b      	cbnz	r3, 800802a <__swbuf_r+0x12>
 8008026:	f000 ffeb 	bl	8009000 <__sinit>
 800802a:	4b21      	ldr	r3, [pc, #132]	; (80080b0 <__swbuf_r+0x98>)
 800802c:	429c      	cmp	r4, r3
 800802e:	d12a      	bne.n	8008086 <__swbuf_r+0x6e>
 8008030:	686c      	ldr	r4, [r5, #4]
 8008032:	69a3      	ldr	r3, [r4, #24]
 8008034:	60a3      	str	r3, [r4, #8]
 8008036:	89a3      	ldrh	r3, [r4, #12]
 8008038:	071a      	lsls	r2, r3, #28
 800803a:	d52e      	bpl.n	800809a <__swbuf_r+0x82>
 800803c:	6923      	ldr	r3, [r4, #16]
 800803e:	b363      	cbz	r3, 800809a <__swbuf_r+0x82>
 8008040:	6923      	ldr	r3, [r4, #16]
 8008042:	6820      	ldr	r0, [r4, #0]
 8008044:	1ac0      	subs	r0, r0, r3
 8008046:	6963      	ldr	r3, [r4, #20]
 8008048:	b2f6      	uxtb	r6, r6
 800804a:	4283      	cmp	r3, r0
 800804c:	4637      	mov	r7, r6
 800804e:	dc04      	bgt.n	800805a <__swbuf_r+0x42>
 8008050:	4621      	mov	r1, r4
 8008052:	4628      	mov	r0, r5
 8008054:	f000 ff6a 	bl	8008f2c <_fflush_r>
 8008058:	bb28      	cbnz	r0, 80080a6 <__swbuf_r+0x8e>
 800805a:	68a3      	ldr	r3, [r4, #8]
 800805c:	3b01      	subs	r3, #1
 800805e:	60a3      	str	r3, [r4, #8]
 8008060:	6823      	ldr	r3, [r4, #0]
 8008062:	1c5a      	adds	r2, r3, #1
 8008064:	6022      	str	r2, [r4, #0]
 8008066:	701e      	strb	r6, [r3, #0]
 8008068:	6963      	ldr	r3, [r4, #20]
 800806a:	3001      	adds	r0, #1
 800806c:	4283      	cmp	r3, r0
 800806e:	d004      	beq.n	800807a <__swbuf_r+0x62>
 8008070:	89a3      	ldrh	r3, [r4, #12]
 8008072:	07db      	lsls	r3, r3, #31
 8008074:	d519      	bpl.n	80080aa <__swbuf_r+0x92>
 8008076:	2e0a      	cmp	r6, #10
 8008078:	d117      	bne.n	80080aa <__swbuf_r+0x92>
 800807a:	4621      	mov	r1, r4
 800807c:	4628      	mov	r0, r5
 800807e:	f000 ff55 	bl	8008f2c <_fflush_r>
 8008082:	b190      	cbz	r0, 80080aa <__swbuf_r+0x92>
 8008084:	e00f      	b.n	80080a6 <__swbuf_r+0x8e>
 8008086:	4b0b      	ldr	r3, [pc, #44]	; (80080b4 <__swbuf_r+0x9c>)
 8008088:	429c      	cmp	r4, r3
 800808a:	d101      	bne.n	8008090 <__swbuf_r+0x78>
 800808c:	68ac      	ldr	r4, [r5, #8]
 800808e:	e7d0      	b.n	8008032 <__swbuf_r+0x1a>
 8008090:	4b09      	ldr	r3, [pc, #36]	; (80080b8 <__swbuf_r+0xa0>)
 8008092:	429c      	cmp	r4, r3
 8008094:	bf08      	it	eq
 8008096:	68ec      	ldreq	r4, [r5, #12]
 8008098:	e7cb      	b.n	8008032 <__swbuf_r+0x1a>
 800809a:	4621      	mov	r1, r4
 800809c:	4628      	mov	r0, r5
 800809e:	f000 f80d 	bl	80080bc <__swsetup_r>
 80080a2:	2800      	cmp	r0, #0
 80080a4:	d0cc      	beq.n	8008040 <__swbuf_r+0x28>
 80080a6:	f04f 37ff 	mov.w	r7, #4294967295	; 0xffffffff
 80080aa:	4638      	mov	r0, r7
 80080ac:	bdf8      	pop	{r3, r4, r5, r6, r7, pc}
 80080ae:	bf00      	nop
 80080b0:	0800c368 	.word	0x0800c368
 80080b4:	0800c388 	.word	0x0800c388
 80080b8:	0800c348 	.word	0x0800c348

080080bc <__swsetup_r>:
 80080bc:	4b32      	ldr	r3, [pc, #200]	; (8008188 <__swsetup_r+0xcc>)
 80080be:	b570      	push	{r4, r5, r6, lr}
 80080c0:	681d      	ldr	r5, [r3, #0]
 80080c2:	4606      	mov	r6, r0
 80080c4:	460c      	mov	r4, r1
 80080c6:	b125      	cbz	r5, 80080d2 <__swsetup_r+0x16>
 80080c8:	69ab      	ldr	r3, [r5, #24]
 80080ca:	b913      	cbnz	r3, 80080d2 <__swsetup_r+0x16>
 80080cc:	4628      	mov	r0, r5
 80080ce:	f000 ff97 	bl	8009000 <__sinit>
 80080d2:	4b2e      	ldr	r3, [pc, #184]	; (800818c <__swsetup_r+0xd0>)
 80080d4:	429c      	cmp	r4, r3
 80080d6:	d10f      	bne.n	80080f8 <__swsetup_r+0x3c>
 80080d8:	686c      	ldr	r4, [r5, #4]
 80080da:	f9b4 300c 	ldrsh.w	r3, [r4, #12]
 80080de:	b29a      	uxth	r2, r3
 80080e0:	0715      	lsls	r5, r2, #28
 80080e2:	d42c      	bmi.n	800813e <__swsetup_r+0x82>
 80080e4:	06d0      	lsls	r0, r2, #27
 80080e6:	d411      	bmi.n	800810c <__swsetup_r+0x50>
 80080e8:	2209      	movs	r2, #9
 80080ea:	6032      	str	r2, [r6, #0]
 80080ec:	f043 0340 	orr.w	r3, r3, #64	; 0x40
 80080f0:	81a3      	strh	r3, [r4, #12]
 80080f2:	f04f 30ff 	mov.w	r0, #4294967295	; 0xffffffff
 80080f6:	e03e      	b.n	8008176 <__swsetup_r+0xba>
 80080f8:	4b25      	ldr	r3, [pc, #148]	; (8008190 <__swsetup_r+0xd4>)
 80080fa:	429c      	cmp	r4, r3
 80080fc:	d101      	bne.n	8008102 <__swsetup_r+0x46>
 80080fe:	68ac      	ldr	r4, [r5, #8]
 8008100:	e7eb      	b.n	80080da <__swsetup_r+0x1e>
 8008102:	4b24      	ldr	r3, [pc, #144]	; (8008194 <__swsetup_r+0xd8>)
 8008104:	429c      	cmp	r4, r3
 8008106:	bf08      	it	eq
 8008108:	68ec      	ldreq	r4, [r5, #12]
 800810a:	e7e6      	b.n	80080da <__swsetup_r+0x1e>
 800810c:	0751      	lsls	r1, r2, #29
 800810e:	d512      	bpl.n	8008136 <__swsetup_r+0x7a>
 8008110:	6b61      	ldr	r1, [r4, #52]	; 0x34
 8008112:	b141      	cbz	r1, 8008126 <__swsetup_r+0x6a>
 8008114:	f104 0344 	add.w	r3, r4, #68	; 0x44
 8008118:	4299      	cmp	r1, r3
 800811a:	d002      	beq.n	8008122 <__swsetup_r+0x66>
 800811c:	4630      	mov	r0, r6
 800811e:	f001 fb5d 	bl	80097dc <_free_r>
 8008122:	2300      	movs	r3, #0
 8008124:	6363      	str	r3, [r4, #52]	; 0x34
 8008126:	89a3      	ldrh	r3, [r4, #12]
 8008128:	f023 0324 	bic.w	r3, r3, #36	; 0x24
 800812c:	81a3      	strh	r3, [r4, #12]
 800812e:	2300      	movs	r3, #0
 8008130:	6063      	str	r3, [r4, #4]
 8008132:	6923      	ldr	r3, [r4, #16]
 8008134:	6023      	str	r3, [r4, #0]
 8008136:	89a3      	ldrh	r3, [r4, #12]
 8008138:	f043 0308 	orr.w	r3, r3, #8
 800813c:	81a3      	strh	r3, [r4, #12]
 800813e:	6923      	ldr	r3, [r4, #16]
 8008140:	b94b      	cbnz	r3, 8008156 <__swsetup_r+0x9a>
 8008142:	89a3      	ldrh	r3, [r4, #12]
 8008144:	f403 7320 	and.w	r3, r3, #640	; 0x280
 8008148:	f5b3 7f00 	cmp.w	r3, #512	; 0x200
 800814c:	d003      	beq.n	8008156 <__swsetup_r+0x9a>
 800814e:	4621      	mov	r1, r4
 8008150:	4630      	mov	r0, r6
 8008152:	f001 f811 	bl	8009178 <__smakebuf_r>
 8008156:	89a2      	ldrh	r2, [r4, #12]
 8008158:	f012 0301 	ands.w	r3, r2, #1
 800815c:	d00c      	beq.n	8008178 <__swsetup_r+0xbc>
 800815e:	2300      	movs	r3, #0
 8008160:	60a3      	str	r3, [r4, #8]
 8008162:	6963      	ldr	r3, [r4, #20]
 8008164:	425b      	negs	r3, r3
 8008166:	61a3      	str	r3, [r4, #24]
 8008168:	6923      	ldr	r3, [r4, #16]
 800816a:	b953      	cbnz	r3, 8008182 <__swsetup_r+0xc6>
 800816c:	f9b4 300c 	ldrsh.w	r3, [r4, #12]
 8008170:	f013 0080 	ands.w	r0, r3, #128	; 0x80
 8008174:	d1ba      	bne.n	80080ec <__swsetup_r+0x30>
 8008176:	bd70      	pop	{r4, r5, r6, pc}
 8008178:	0792      	lsls	r2, r2, #30
 800817a:	bf58      	it	pl
 800817c:	6963      	ldrpl	r3, [r4, #20]
 800817e:	60a3      	str	r3, [r4, #8]
 8008180:	e7f2      	b.n	8008168 <__swsetup_r+0xac>
 8008182:	2000      	movs	r0, #0
 8008184:	e7f7      	b.n	8008176 <__swsetup_r+0xba>
 8008186:	bf00      	nop
 8008188:	20000094 	.word	0x20000094
 800818c:	0800c368 	.word	0x0800c368
 8008190:	0800c388 	.word	0x0800c388
 8008194:	0800c348 	.word	0x0800c348

08008198 <quorem>:
 8008198:	e92d 4ff7 	stmdb	sp!, {r0, r1, r2, r4, r5, r6, r7, r8, r9, sl, fp, lr}
 800819c:	6903      	ldr	r3, [r0, #16]
 800819e:	690c      	ldr	r4, [r1, #16]
 80081a0:	42a3      	cmp	r3, r4
 80081a2:	4680      	mov	r8, r0
 80081a4:	f2c0 8082 	blt.w	80082ac <quorem+0x114>
 80081a8:	3c01      	subs	r4, #1
 80081aa:	f101 0714 	add.w	r7, r1, #20
 80081ae:	ea4f 0c84 	mov.w	ip, r4, lsl #2
 80081b2:	f100 0614 	add.w	r6, r0, #20
 80081b6:	f857 5024 	ldr.w	r5, [r7, r4, lsl #2]
 80081ba:	f856 0024 	ldr.w	r0, [r6, r4, lsl #2]
 80081be:	eb06 030c 	add.w	r3, r6, ip
 80081c2:	3501      	adds	r5, #1
 80081c4:	eb07 090c 	add.w	r9, r7, ip
 80081c8:	9301      	str	r3, [sp, #4]
 80081ca:	fbb0 f5f5 	udiv	r5, r0, r5
 80081ce:	b395      	cbz	r5, 8008236 <quorem+0x9e>
 80081d0:	f04f 0a00 	mov.w	sl, #0
 80081d4:	4638      	mov	r0, r7
 80081d6:	46b6      	mov	lr, r6
 80081d8:	46d3      	mov	fp, sl
 80081da:	f850 2b04 	ldr.w	r2, [r0], #4
 80081de:	b293      	uxth	r3, r2
 80081e0:	fb05 a303 	mla	r3, r5, r3, sl
 80081e4:	ea4f 4a13 	mov.w	sl, r3, lsr #16
 80081e8:	b29b      	uxth	r3, r3
 80081ea:	ebab 0303 	sub.w	r3, fp, r3
 80081ee:	0c12      	lsrs	r2, r2, #16
 80081f0:	f8de b000 	ldr.w	fp, [lr]
 80081f4:	fb05 a202 	mla	r2, r5, r2, sl
 80081f8:	fa13 f38b 	uxtah	r3, r3, fp
 80081fc:	ea4f 4a12 	mov.w	sl, r2, lsr #16
 8008200:	fa1f fb82 	uxth.w	fp, r2
 8008204:	f8de 2000 	ldr.w	r2, [lr]
 8008208:	ebcb 4212 	rsb	r2, fp, r2, lsr #16
 800820c:	eb02 4223 	add.w	r2, r2, r3, asr #16
 8008210:	b29b      	uxth	r3, r3
 8008212:	ea43 4302 	orr.w	r3, r3, r2, lsl #16
 8008216:	4581      	cmp	r9, r0
 8008218:	ea4f 4b22 	mov.w	fp, r2, asr #16
 800821c:	f84e 3b04 	str.w	r3, [lr], #4
 8008220:	d2db      	bcs.n	80081da <quorem+0x42>
 8008222:	f856 300c 	ldr.w	r3, [r6, ip]
 8008226:	b933      	cbnz	r3, 8008236 <quorem+0x9e>
 8008228:	9b01      	ldr	r3, [sp, #4]
 800822a:	3b04      	subs	r3, #4
 800822c:	429e      	cmp	r6, r3
 800822e:	461a      	mov	r2, r3
 8008230:	d330      	bcc.n	8008294 <quorem+0xfc>
 8008232:	f8c8 4010 	str.w	r4, [r8, #16]
 8008236:	4640      	mov	r0, r8
 8008238:	f001 f9fc 	bl	8009634 <__mcmp>
 800823c:	2800      	cmp	r0, #0
 800823e:	db25      	blt.n	800828c <quorem+0xf4>
 8008240:	3501      	adds	r5, #1
 8008242:	4630      	mov	r0, r6
 8008244:	f04f 0c00 	mov.w	ip, #0
 8008248:	f857 2b04 	ldr.w	r2, [r7], #4
 800824c:	f8d0 e000 	ldr.w	lr, [r0]
 8008250:	b293      	uxth	r3, r2
 8008252:	ebac 0303 	sub.w	r3, ip, r3
 8008256:	0c12      	lsrs	r2, r2, #16
 8008258:	fa13 f38e 	uxtah	r3, r3, lr
 800825c:	ebc2 421e 	rsb	r2, r2, lr, lsr #16
 8008260:	eb02 4223 	add.w	r2, r2, r3, asr #16
 8008264:	b29b      	uxth	r3, r3
 8008266:	ea43 4302 	orr.w	r3, r3, r2, lsl #16
 800826a:	45b9      	cmp	r9, r7
 800826c:	ea4f 4c22 	mov.w	ip, r2, asr #16
 8008270:	f840 3b04 	str.w	r3, [r0], #4
 8008274:	d2e8      	bcs.n	8008248 <quorem+0xb0>
 8008276:	f856 2024 	ldr.w	r2, [r6, r4, lsl #2]
 800827a:	eb06 0384 	add.w	r3, r6, r4, lsl #2
 800827e:	b92a      	cbnz	r2, 800828c <quorem+0xf4>
 8008280:	3b04      	subs	r3, #4
 8008282:	429e      	cmp	r6, r3
 8008284:	461a      	mov	r2, r3
 8008286:	d30b      	bcc.n	80082a0 <quorem+0x108>
 8008288:	f8c8 4010 	str.w	r4, [r8, #16]
 800828c:	4628      	mov	r0, r5
 800828e:	b003      	add	sp, #12
 8008290:	e8bd 8ff0 	ldmia.w	sp!, {r4, r5, r6, r7, r8, r9, sl, fp, pc}
 8008294:	6812      	ldr	r2, [r2, #0]
 8008296:	3b04      	subs	r3, #4
 8008298:	2a00      	cmp	r2, #0
 800829a:	d1ca      	bne.n	8008232 <quorem+0x9a>
 800829c:	3c01      	subs	r4, #1
 800829e:	e7c5      	b.n	800822c <quorem+0x94>
 80082a0:	6812      	ldr	r2, [r2, #0]
 80082a2:	3b04      	subs	r3, #4
 80082a4:	2a00      	cmp	r2, #0
 80082a6:	d1ef      	bne.n	8008288 <quorem+0xf0>
 80082a8:	3c01      	subs	r4, #1
 80082aa:	e7ea      	b.n	8008282 <quorem+0xea>
 80082ac:	2000      	movs	r0, #0
 80082ae:	e7ee      	b.n	800828e <quorem+0xf6>

080082b0 <_dtoa_r>:
 80082b0:	e92d 4ff0 	stmdb	sp!, {r4, r5, r6, r7, r8, r9, sl, fp, lr}
 80082b4:	ec57 6b10 	vmov	r6, r7, d0
 80082b8:	b097      	sub	sp, #92	; 0x5c
 80082ba:	6a45      	ldr	r5, [r0, #36]	; 0x24
 80082bc:	9106      	str	r1, [sp, #24]
 80082be:	4604      	mov	r4, r0
 80082c0:	920b      	str	r2, [sp, #44]	; 0x2c
 80082c2:	9312      	str	r3, [sp, #72]	; 0x48
 80082c4:	f8dd 8080 	ldr.w	r8, [sp, #128]	; 0x80
 80082c8:	e9cd 6700 	strd	r6, r7, [sp]
 80082cc:	b93d      	cbnz	r5, 80082de <_dtoa_r+0x2e>
 80082ce:	2010      	movs	r0, #16
 80082d0:	f000 ff92 	bl	80091f8 <malloc>
 80082d4:	6260      	str	r0, [r4, #36]	; 0x24
 80082d6:	e9c0 5501 	strd	r5, r5, [r0, #4]
 80082da:	6005      	str	r5, [r0, #0]
 80082dc:	60c5      	str	r5, [r0, #12]
 80082de:	6a63      	ldr	r3, [r4, #36]	; 0x24
 80082e0:	6819      	ldr	r1, [r3, #0]
 80082e2:	b151      	cbz	r1, 80082fa <_dtoa_r+0x4a>
 80082e4:	685a      	ldr	r2, [r3, #4]
 80082e6:	604a      	str	r2, [r1, #4]
 80082e8:	2301      	movs	r3, #1
 80082ea:	4093      	lsls	r3, r2
 80082ec:	608b      	str	r3, [r1, #8]
 80082ee:	4620      	mov	r0, r4
 80082f0:	f000 ffbe 	bl	8009270 <_Bfree>
 80082f4:	6a63      	ldr	r3, [r4, #36]	; 0x24
 80082f6:	2200      	movs	r2, #0
 80082f8:	601a      	str	r2, [r3, #0]
 80082fa:	1e3b      	subs	r3, r7, #0
 80082fc:	bfbb      	ittet	lt
 80082fe:	f023 4300 	biclt.w	r3, r3, #2147483648	; 0x80000000
 8008302:	9301      	strlt	r3, [sp, #4]
 8008304:	2300      	movge	r3, #0
 8008306:	2201      	movlt	r2, #1
 8008308:	bfac      	ite	ge
 800830a:	f8c8 3000 	strge.w	r3, [r8]
 800830e:	f8c8 2000 	strlt.w	r2, [r8]
 8008312:	4baf      	ldr	r3, [pc, #700]	; (80085d0 <_dtoa_r+0x320>)
 8008314:	f8dd 8004 	ldr.w	r8, [sp, #4]
 8008318:	ea33 0308 	bics.w	r3, r3, r8
 800831c:	d114      	bne.n	8008348 <_dtoa_r+0x98>
 800831e:	9a12      	ldr	r2, [sp, #72]	; 0x48
 8008320:	f242 730f 	movw	r3, #9999	; 0x270f
 8008324:	6013      	str	r3, [r2, #0]
 8008326:	9b00      	ldr	r3, [sp, #0]
 8008328:	b923      	cbnz	r3, 8008334 <_dtoa_r+0x84>
 800832a:	f3c8 0013 	ubfx	r0, r8, #0, #20
 800832e:	2800      	cmp	r0, #0
 8008330:	f000 8542 	beq.w	8008db8 <_dtoa_r+0xb08>
 8008334:	9b21      	ldr	r3, [sp, #132]	; 0x84
 8008336:	f8df b2ac 	ldr.w	fp, [pc, #684]	; 80085e4 <_dtoa_r+0x334>
 800833a:	2b00      	cmp	r3, #0
 800833c:	f000 8544 	beq.w	8008dc8 <_dtoa_r+0xb18>
 8008340:	f10b 0303 	add.w	r3, fp, #3
 8008344:	f000 bd3e 	b.w	8008dc4 <_dtoa_r+0xb14>
 8008348:	e9dd 6700 	ldrd	r6, r7, [sp]
 800834c:	2200      	movs	r2, #0
 800834e:	2300      	movs	r3, #0
 8008350:	4630      	mov	r0, r6
 8008352:	4639      	mov	r1, r7
 8008354:	f7f8 fd92 	bl	8000e7c <__aeabi_dcmpeq>
 8008358:	4681      	mov	r9, r0
 800835a:	b168      	cbz	r0, 8008378 <_dtoa_r+0xc8>
 800835c:	9a12      	ldr	r2, [sp, #72]	; 0x48
 800835e:	2301      	movs	r3, #1
 8008360:	6013      	str	r3, [r2, #0]
 8008362:	9b21      	ldr	r3, [sp, #132]	; 0x84
 8008364:	2b00      	cmp	r3, #0
 8008366:	f000 8524 	beq.w	8008db2 <_dtoa_r+0xb02>
 800836a:	4b9a      	ldr	r3, [pc, #616]	; (80085d4 <_dtoa_r+0x324>)
 800836c:	9a21      	ldr	r2, [sp, #132]	; 0x84
 800836e:	f103 3bff 	add.w	fp, r3, #4294967295	; 0xffffffff
 8008372:	6013      	str	r3, [r2, #0]
 8008374:	f000 bd28 	b.w	8008dc8 <_dtoa_r+0xb18>
 8008378:	aa14      	add	r2, sp, #80	; 0x50
 800837a:	a915      	add	r1, sp, #84	; 0x54
 800837c:	ec47 6b10 	vmov	d0, r6, r7
 8008380:	4620      	mov	r0, r4
 8008382:	f001 f9ce 	bl	8009722 <__d2b>
 8008386:	f3c8 550a 	ubfx	r5, r8, #20, #11
 800838a:	9004      	str	r0, [sp, #16]
 800838c:	2d00      	cmp	r5, #0
 800838e:	d07c      	beq.n	800848a <_dtoa_r+0x1da>
 8008390:	f3c7 0313 	ubfx	r3, r7, #0, #20
 8008394:	f043 5b7f 	orr.w	fp, r3, #1069547520	; 0x3fc00000
 8008398:	46b2      	mov	sl, r6
 800839a:	f44b 1b40 	orr.w	fp, fp, #3145728	; 0x300000
 800839e:	f2a5 35ff 	subw	r5, r5, #1023	; 0x3ff
 80083a2:	f8cd 904c 	str.w	r9, [sp, #76]	; 0x4c
 80083a6:	2200      	movs	r2, #0
 80083a8:	4b8b      	ldr	r3, [pc, #556]	; (80085d8 <_dtoa_r+0x328>)
 80083aa:	4650      	mov	r0, sl
 80083ac:	4659      	mov	r1, fp
 80083ae:	f7f7 ff1b 	bl	80001e8 <__aeabi_dsub>
 80083b2:	a381      	add	r3, pc, #516	; (adr r3, 80085b8 <_dtoa_r+0x308>)
 80083b4:	e9d3 2300 	ldrd	r2, r3, [r3]
 80083b8:	f7f8 f8ce 	bl	8000558 <__aeabi_dmul>
 80083bc:	a380      	add	r3, pc, #512	; (adr r3, 80085c0 <_dtoa_r+0x310>)
 80083be:	e9d3 2300 	ldrd	r2, r3, [r3]
 80083c2:	f7f7 ff13 	bl	80001ec <__adddf3>
 80083c6:	4606      	mov	r6, r0
 80083c8:	4628      	mov	r0, r5
 80083ca:	460f      	mov	r7, r1
 80083cc:	f7f8 f85a 	bl	8000484 <__aeabi_i2d>
 80083d0:	a37d      	add	r3, pc, #500	; (adr r3, 80085c8 <_dtoa_r+0x318>)
 80083d2:	e9d3 2300 	ldrd	r2, r3, [r3]
 80083d6:	f7f8 f8bf 	bl	8000558 <__aeabi_dmul>
 80083da:	4602      	mov	r2, r0
 80083dc:	460b      	mov	r3, r1
 80083de:	4630      	mov	r0, r6
 80083e0:	4639      	mov	r1, r7
 80083e2:	f7f7 ff03 	bl	80001ec <__adddf3>
 80083e6:	4606      	mov	r6, r0
 80083e8:	460f      	mov	r7, r1
 80083ea:	f7f8 fd8f 	bl	8000f0c <__aeabi_d2iz>
 80083ee:	2200      	movs	r2, #0
 80083f0:	4682      	mov	sl, r0
 80083f2:	2300      	movs	r3, #0
 80083f4:	4630      	mov	r0, r6
 80083f6:	4639      	mov	r1, r7
 80083f8:	f7f8 fd4a 	bl	8000e90 <__aeabi_dcmplt>
 80083fc:	b148      	cbz	r0, 8008412 <_dtoa_r+0x162>
 80083fe:	4650      	mov	r0, sl
 8008400:	f7f8 f840 	bl	8000484 <__aeabi_i2d>
 8008404:	4632      	mov	r2, r6
 8008406:	463b      	mov	r3, r7
 8008408:	f7f8 fd38 	bl	8000e7c <__aeabi_dcmpeq>
 800840c:	b908      	cbnz	r0, 8008412 <_dtoa_r+0x162>
 800840e:	f10a 3aff 	add.w	sl, sl, #4294967295	; 0xffffffff
 8008412:	f1ba 0f16 	cmp.w	sl, #22
 8008416:	d859      	bhi.n	80084cc <_dtoa_r+0x21c>
 8008418:	4970      	ldr	r1, [pc, #448]	; (80085dc <_dtoa_r+0x32c>)
 800841a:	eb01 01ca 	add.w	r1, r1, sl, lsl #3
 800841e:	e9dd 2300 	ldrd	r2, r3, [sp]
 8008422:	e9d1 0100 	ldrd	r0, r1, [r1]
 8008426:	f7f8 fd51 	bl	8000ecc <__aeabi_dcmpgt>
 800842a:	2800      	cmp	r0, #0
 800842c:	d050      	beq.n	80084d0 <_dtoa_r+0x220>
 800842e:	f10a 3aff 	add.w	sl, sl, #4294967295	; 0xffffffff
 8008432:	2300      	movs	r3, #0
 8008434:	930f      	str	r3, [sp, #60]	; 0x3c
 8008436:	9b14      	ldr	r3, [sp, #80]	; 0x50
 8008438:	1b5d      	subs	r5, r3, r5
 800843a:	f1b5 0801 	subs.w	r8, r5, #1
 800843e:	bf49      	itett	mi
 8008440:	f1c5 0301 	rsbmi	r3, r5, #1
 8008444:	2300      	movpl	r3, #0
 8008446:	9305      	strmi	r3, [sp, #20]
 8008448:	f04f 0800 	movmi.w	r8, #0
 800844c:	bf58      	it	pl
 800844e:	9305      	strpl	r3, [sp, #20]
 8008450:	f1ba 0f00 	cmp.w	sl, #0
 8008454:	db3e      	blt.n	80084d4 <_dtoa_r+0x224>
 8008456:	2300      	movs	r3, #0
 8008458:	44d0      	add	r8, sl
 800845a:	f8cd a038 	str.w	sl, [sp, #56]	; 0x38
 800845e:	9307      	str	r3, [sp, #28]
 8008460:	9b06      	ldr	r3, [sp, #24]
 8008462:	2b09      	cmp	r3, #9
 8008464:	f200 8090 	bhi.w	8008588 <_dtoa_r+0x2d8>
 8008468:	2b05      	cmp	r3, #5
 800846a:	bfc4      	itt	gt
 800846c:	3b04      	subgt	r3, #4
 800846e:	9306      	strgt	r3, [sp, #24]
 8008470:	9b06      	ldr	r3, [sp, #24]
 8008472:	f1a3 0302 	sub.w	r3, r3, #2
 8008476:	bfcc      	ite	gt
 8008478:	2500      	movgt	r5, #0
 800847a:	2501      	movle	r5, #1
 800847c:	2b03      	cmp	r3, #3
 800847e:	f200 808f 	bhi.w	80085a0 <_dtoa_r+0x2f0>
 8008482:	e8df f003 	tbb	[pc, r3]
 8008486:	7f7d      	.short	0x7f7d
 8008488:	7131      	.short	0x7131
 800848a:	e9dd 5314 	ldrd	r5, r3, [sp, #80]	; 0x50
 800848e:	441d      	add	r5, r3
 8008490:	f205 4032 	addw	r0, r5, #1074	; 0x432
 8008494:	2820      	cmp	r0, #32
 8008496:	dd13      	ble.n	80084c0 <_dtoa_r+0x210>
 8008498:	f1c0 0040 	rsb	r0, r0, #64	; 0x40
 800849c:	9b00      	ldr	r3, [sp, #0]
 800849e:	fa08 f800 	lsl.w	r8, r8, r0
 80084a2:	f205 4012 	addw	r0, r5, #1042	; 0x412
 80084a6:	fa23 f000 	lsr.w	r0, r3, r0
 80084aa:	ea48 0000 	orr.w	r0, r8, r0
 80084ae:	f7f7 ffd9 	bl	8000464 <__aeabi_ui2d>
 80084b2:	2301      	movs	r3, #1
 80084b4:	4682      	mov	sl, r0
 80084b6:	f1a1 7bf8 	sub.w	fp, r1, #32505856	; 0x1f00000
 80084ba:	3d01      	subs	r5, #1
 80084bc:	9313      	str	r3, [sp, #76]	; 0x4c
 80084be:	e772      	b.n	80083a6 <_dtoa_r+0xf6>
 80084c0:	9b00      	ldr	r3, [sp, #0]
 80084c2:	f1c0 0020 	rsb	r0, r0, #32
 80084c6:	fa03 f000 	lsl.w	r0, r3, r0
 80084ca:	e7f0      	b.n	80084ae <_dtoa_r+0x1fe>
 80084cc:	2301      	movs	r3, #1
 80084ce:	e7b1      	b.n	8008434 <_dtoa_r+0x184>
 80084d0:	900f      	str	r0, [sp, #60]	; 0x3c
 80084d2:	e7b0      	b.n	8008436 <_dtoa_r+0x186>
 80084d4:	9b05      	ldr	r3, [sp, #20]
 80084d6:	eba3 030a 	sub.w	r3, r3, sl
 80084da:	9305      	str	r3, [sp, #20]
 80084dc:	f1ca 0300 	rsb	r3, sl, #0
 80084e0:	9307      	str	r3, [sp, #28]
 80084e2:	2300      	movs	r3, #0
 80084e4:	930e      	str	r3, [sp, #56]	; 0x38
 80084e6:	e7bb      	b.n	8008460 <_dtoa_r+0x1b0>
 80084e8:	2301      	movs	r3, #1
 80084ea:	930a      	str	r3, [sp, #40]	; 0x28
 80084ec:	9b0b      	ldr	r3, [sp, #44]	; 0x2c
 80084ee:	2b00      	cmp	r3, #0
 80084f0:	dd59      	ble.n	80085a6 <_dtoa_r+0x2f6>
 80084f2:	9302      	str	r3, [sp, #8]
 80084f4:	4699      	mov	r9, r3
 80084f6:	6a66      	ldr	r6, [r4, #36]	; 0x24
 80084f8:	2200      	movs	r2, #0
 80084fa:	6072      	str	r2, [r6, #4]
 80084fc:	2204      	movs	r2, #4
 80084fe:	f102 0014 	add.w	r0, r2, #20
 8008502:	4298      	cmp	r0, r3
 8008504:	6871      	ldr	r1, [r6, #4]
 8008506:	d953      	bls.n	80085b0 <_dtoa_r+0x300>
 8008508:	4620      	mov	r0, r4
 800850a:	f000 fe7d 	bl	8009208 <_Balloc>
 800850e:	6a63      	ldr	r3, [r4, #36]	; 0x24
 8008510:	6030      	str	r0, [r6, #0]
 8008512:	f1b9 0f0e 	cmp.w	r9, #14
 8008516:	f8d3 b000 	ldr.w	fp, [r3]
 800851a:	f200 80e6 	bhi.w	80086ea <_dtoa_r+0x43a>
 800851e:	2d00      	cmp	r5, #0
 8008520:	f000 80e3 	beq.w	80086ea <_dtoa_r+0x43a>
 8008524:	ed9d 7b00 	vldr	d7, [sp]
 8008528:	f1ba 0f00 	cmp.w	sl, #0
 800852c:	ed8d 7b10 	vstr	d7, [sp, #64]	; 0x40
 8008530:	dd74      	ble.n	800861c <_dtoa_r+0x36c>
 8008532:	4a2a      	ldr	r2, [pc, #168]	; (80085dc <_dtoa_r+0x32c>)
 8008534:	f00a 030f 	and.w	r3, sl, #15
 8008538:	eb02 03c3 	add.w	r3, r2, r3, lsl #3
 800853c:	ed93 7b00 	vldr	d7, [r3]
 8008540:	ea4f 162a 	mov.w	r6, sl, asr #4
 8008544:	06f0      	lsls	r0, r6, #27
 8008546:	ed8d 7b08 	vstr	d7, [sp, #32]
 800854a:	d565      	bpl.n	8008618 <_dtoa_r+0x368>
 800854c:	4b24      	ldr	r3, [pc, #144]	; (80085e0 <_dtoa_r+0x330>)
 800854e:	e9dd 0110 	ldrd	r0, r1, [sp, #64]	; 0x40
 8008552:	e9d3 2308 	ldrd	r2, r3, [r3, #32]
 8008556:	f7f8 f929 	bl	80007ac <__aeabi_ddiv>
 800855a:	e9cd 0100 	strd	r0, r1, [sp]
 800855e:	f006 060f 	and.w	r6, r6, #15
 8008562:	2503      	movs	r5, #3
 8008564:	4f1e      	ldr	r7, [pc, #120]	; (80085e0 <_dtoa_r+0x330>)
 8008566:	e04c      	b.n	8008602 <_dtoa_r+0x352>
 8008568:	2301      	movs	r3, #1
 800856a:	930a      	str	r3, [sp, #40]	; 0x28
 800856c:	9b0b      	ldr	r3, [sp, #44]	; 0x2c
 800856e:	4453      	add	r3, sl
 8008570:	f103 0901 	add.w	r9, r3, #1
 8008574:	9302      	str	r3, [sp, #8]
 8008576:	464b      	mov	r3, r9
 8008578:	2b01      	cmp	r3, #1
 800857a:	bfb8      	it	lt
 800857c:	2301      	movlt	r3, #1
 800857e:	e7ba      	b.n	80084f6 <_dtoa_r+0x246>
 8008580:	2300      	movs	r3, #0
 8008582:	e7b2      	b.n	80084ea <_dtoa_r+0x23a>
 8008584:	2300      	movs	r3, #0
 8008586:	e7f0      	b.n	800856a <_dtoa_r+0x2ba>
 8008588:	2501      	movs	r5, #1
 800858a:	2300      	movs	r3, #0
 800858c:	9306      	str	r3, [sp, #24]
 800858e:	950a      	str	r5, [sp, #40]	; 0x28
 8008590:	f04f 33ff 	mov.w	r3, #4294967295	; 0xffffffff
 8008594:	9302      	str	r3, [sp, #8]
 8008596:	4699      	mov	r9, r3
 8008598:	2200      	movs	r2, #0
 800859a:	2312      	movs	r3, #18
 800859c:	920b      	str	r2, [sp, #44]	; 0x2c
 800859e:	e7aa      	b.n	80084f6 <_dtoa_r+0x246>
 80085a0:	2301      	movs	r3, #1
 80085a2:	930a      	str	r3, [sp, #40]	; 0x28
 80085a4:	e7f4      	b.n	8008590 <_dtoa_r+0x2e0>
 80085a6:	2301      	movs	r3, #1
 80085a8:	9302      	str	r3, [sp, #8]
 80085aa:	4699      	mov	r9, r3
 80085ac:	461a      	mov	r2, r3
 80085ae:	e7f5      	b.n	800859c <_dtoa_r+0x2ec>
 80085b0:	3101      	adds	r1, #1
 80085b2:	6071      	str	r1, [r6, #4]
 80085b4:	0052      	lsls	r2, r2, #1
 80085b6:	e7a2      	b.n	80084fe <_dtoa_r+0x24e>
 80085b8:	636f4361 	.word	0x636f4361
 80085bc:	3fd287a7 	.word	0x3fd287a7
 80085c0:	8b60c8b3 	.word	0x8b60c8b3
 80085c4:	3fc68a28 	.word	0x3fc68a28
 80085c8:	509f79fb 	.word	0x509f79fb
 80085cc:	3fd34413 	.word	0x3fd34413
 80085d0:	7ff00000 	.word	0x7ff00000
 80085d4:	0800c315 	.word	0x0800c315
 80085d8:	3ff80000 	.word	0x3ff80000
 80085dc:	0800c3d0 	.word	0x0800c3d0
 80085e0:	0800c3a8 	.word	0x0800c3a8
 80085e4:	0800c341 	.word	0x0800c341
 80085e8:	07f1      	lsls	r1, r6, #31
 80085ea:	d508      	bpl.n	80085fe <_dtoa_r+0x34e>
 80085ec:	e9dd 0108 	ldrd	r0, r1, [sp, #32]
 80085f0:	e9d7 2300 	ldrd	r2, r3, [r7]
 80085f4:	f7f7 ffb0 	bl	8000558 <__aeabi_dmul>
 80085f8:	e9cd 0108 	strd	r0, r1, [sp, #32]
 80085fc:	3501      	adds	r5, #1
 80085fe:	1076      	asrs	r6, r6, #1
 8008600:	3708      	adds	r7, #8
 8008602:	2e00      	cmp	r6, #0
 8008604:	d1f0      	bne.n	80085e8 <_dtoa_r+0x338>
 8008606:	e9dd 2308 	ldrd	r2, r3, [sp, #32]
 800860a:	e9dd 0100 	ldrd	r0, r1, [sp]
 800860e:	f7f8 f8cd 	bl	80007ac <__aeabi_ddiv>
 8008612:	e9cd 0100 	strd	r0, r1, [sp]
 8008616:	e01a      	b.n	800864e <_dtoa_r+0x39e>
 8008618:	2502      	movs	r5, #2
 800861a:	e7a3      	b.n	8008564 <_dtoa_r+0x2b4>
 800861c:	f000 80a0 	beq.w	8008760 <_dtoa_r+0x4b0>
 8008620:	f1ca 0600 	rsb	r6, sl, #0
 8008624:	4b9f      	ldr	r3, [pc, #636]	; (80088a4 <_dtoa_r+0x5f4>)
 8008626:	4fa0      	ldr	r7, [pc, #640]	; (80088a8 <_dtoa_r+0x5f8>)
 8008628:	f006 020f 	and.w	r2, r6, #15
 800862c:	eb03 03c2 	add.w	r3, r3, r2, lsl #3
 8008630:	e9d3 2300 	ldrd	r2, r3, [r3]
 8008634:	e9dd 0110 	ldrd	r0, r1, [sp, #64]	; 0x40
 8008638:	f7f7 ff8e 	bl	8000558 <__aeabi_dmul>
 800863c:	e9cd 0100 	strd	r0, r1, [sp]
 8008640:	1136      	asrs	r6, r6, #4
 8008642:	2300      	movs	r3, #0
 8008644:	2502      	movs	r5, #2
 8008646:	2e00      	cmp	r6, #0
 8008648:	d17f      	bne.n	800874a <_dtoa_r+0x49a>
 800864a:	2b00      	cmp	r3, #0
 800864c:	d1e1      	bne.n	8008612 <_dtoa_r+0x362>
 800864e:	9b0f      	ldr	r3, [sp, #60]	; 0x3c
 8008650:	2b00      	cmp	r3, #0
 8008652:	f000 8087 	beq.w	8008764 <_dtoa_r+0x4b4>
 8008656:	e9dd 6700 	ldrd	r6, r7, [sp]
 800865a:	2200      	movs	r2, #0
 800865c:	4b93      	ldr	r3, [pc, #588]	; (80088ac <_dtoa_r+0x5fc>)
 800865e:	4630      	mov	r0, r6
 8008660:	4639      	mov	r1, r7
 8008662:	f7f8 fc15 	bl	8000e90 <__aeabi_dcmplt>
 8008666:	2800      	cmp	r0, #0
 8008668:	d07c      	beq.n	8008764 <_dtoa_r+0x4b4>
 800866a:	f1b9 0f00 	cmp.w	r9, #0
 800866e:	d079      	beq.n	8008764 <_dtoa_r+0x4b4>
 8008670:	9b02      	ldr	r3, [sp, #8]
 8008672:	2b00      	cmp	r3, #0
 8008674:	dd35      	ble.n	80086e2 <_dtoa_r+0x432>
 8008676:	f10a 33ff 	add.w	r3, sl, #4294967295	; 0xffffffff
 800867a:	9308      	str	r3, [sp, #32]
 800867c:	4639      	mov	r1, r7
 800867e:	2200      	movs	r2, #0
 8008680:	4b8b      	ldr	r3, [pc, #556]	; (80088b0 <_dtoa_r+0x600>)
 8008682:	4630      	mov	r0, r6
 8008684:	f7f7 ff68 	bl	8000558 <__aeabi_dmul>
 8008688:	e9cd 0100 	strd	r0, r1, [sp]
 800868c:	9f02      	ldr	r7, [sp, #8]
 800868e:	3501      	adds	r5, #1
 8008690:	4628      	mov	r0, r5
 8008692:	f7f7 fef7 	bl	8000484 <__aeabi_i2d>
 8008696:	e9dd 2300 	ldrd	r2, r3, [sp]
 800869a:	f7f7 ff5d 	bl	8000558 <__aeabi_dmul>
 800869e:	2200      	movs	r2, #0
 80086a0:	4b84      	ldr	r3, [pc, #528]	; (80088b4 <_dtoa_r+0x604>)
 80086a2:	f7f7 fda3 	bl	80001ec <__adddf3>
 80086a6:	4605      	mov	r5, r0
 80086a8:	f1a1 7650 	sub.w	r6, r1, #54525952	; 0x3400000
 80086ac:	2f00      	cmp	r7, #0
 80086ae:	d15d      	bne.n	800876c <_dtoa_r+0x4bc>
 80086b0:	2200      	movs	r2, #0
 80086b2:	4b81      	ldr	r3, [pc, #516]	; (80088b8 <_dtoa_r+0x608>)
 80086b4:	e9dd 0100 	ldrd	r0, r1, [sp]
 80086b8:	f7f7 fd96 	bl	80001e8 <__aeabi_dsub>
 80086bc:	462a      	mov	r2, r5
 80086be:	4633      	mov	r3, r6
 80086c0:	e9cd 0100 	strd	r0, r1, [sp]
 80086c4:	f7f8 fc02 	bl	8000ecc <__aeabi_dcmpgt>
 80086c8:	2800      	cmp	r0, #0
 80086ca:	f040 8288 	bne.w	8008bde <_dtoa_r+0x92e>
 80086ce:	462a      	mov	r2, r5
 80086d0:	f106 4300 	add.w	r3, r6, #2147483648	; 0x80000000
 80086d4:	e9dd 0100 	ldrd	r0, r1, [sp]
 80086d8:	f7f8 fbda 	bl	8000e90 <__aeabi_dcmplt>
 80086dc:	2800      	cmp	r0, #0
 80086de:	f040 827c 	bne.w	8008bda <_dtoa_r+0x92a>
 80086e2:	e9dd 2310 	ldrd	r2, r3, [sp, #64]	; 0x40
 80086e6:	e9cd 2300 	strd	r2, r3, [sp]
 80086ea:	9b15      	ldr	r3, [sp, #84]	; 0x54
 80086ec:	2b00      	cmp	r3, #0
 80086ee:	f2c0 8150 	blt.w	8008992 <_dtoa_r+0x6e2>
 80086f2:	f1ba 0f0e 	cmp.w	sl, #14
 80086f6:	f300 814c 	bgt.w	8008992 <_dtoa_r+0x6e2>
 80086fa:	4b6a      	ldr	r3, [pc, #424]	; (80088a4 <_dtoa_r+0x5f4>)
 80086fc:	eb03 03ca 	add.w	r3, r3, sl, lsl #3
 8008700:	ed93 7b00 	vldr	d7, [r3]
 8008704:	9b0b      	ldr	r3, [sp, #44]	; 0x2c
 8008706:	2b00      	cmp	r3, #0
 8008708:	ed8d 7b02 	vstr	d7, [sp, #8]
 800870c:	f280 80d8 	bge.w	80088c0 <_dtoa_r+0x610>
 8008710:	f1b9 0f00 	cmp.w	r9, #0
 8008714:	f300 80d4 	bgt.w	80088c0 <_dtoa_r+0x610>
 8008718:	f040 825e 	bne.w	8008bd8 <_dtoa_r+0x928>
 800871c:	2200      	movs	r2, #0
 800871e:	4b66      	ldr	r3, [pc, #408]	; (80088b8 <_dtoa_r+0x608>)
 8008720:	ec51 0b17 	vmov	r0, r1, d7
 8008724:	f7f7 ff18 	bl	8000558 <__aeabi_dmul>
 8008728:	e9dd 2300 	ldrd	r2, r3, [sp]
 800872c:	f7f8 fbc4 	bl	8000eb8 <__aeabi_dcmpge>
 8008730:	464f      	mov	r7, r9
 8008732:	464e      	mov	r6, r9
 8008734:	2800      	cmp	r0, #0
 8008736:	f040 8234 	bne.w	8008ba2 <_dtoa_r+0x8f2>
 800873a:	2331      	movs	r3, #49	; 0x31
 800873c:	f10b 0501 	add.w	r5, fp, #1
 8008740:	f88b 3000 	strb.w	r3, [fp]
 8008744:	f10a 0a01 	add.w	sl, sl, #1
 8008748:	e22f      	b.n	8008baa <_dtoa_r+0x8fa>
 800874a:	07f2      	lsls	r2, r6, #31
 800874c:	d505      	bpl.n	800875a <_dtoa_r+0x4aa>
 800874e:	e9d7 2300 	ldrd	r2, r3, [r7]
 8008752:	f7f7 ff01 	bl	8000558 <__aeabi_dmul>
 8008756:	3501      	adds	r5, #1
 8008758:	2301      	movs	r3, #1
 800875a:	1076      	asrs	r6, r6, #1
 800875c:	3708      	adds	r7, #8
 800875e:	e772      	b.n	8008646 <_dtoa_r+0x396>
 8008760:	2502      	movs	r5, #2
 8008762:	e774      	b.n	800864e <_dtoa_r+0x39e>
 8008764:	f8cd a020 	str.w	sl, [sp, #32]
 8008768:	464f      	mov	r7, r9
 800876a:	e791      	b.n	8008690 <_dtoa_r+0x3e0>
 800876c:	4b4d      	ldr	r3, [pc, #308]	; (80088a4 <_dtoa_r+0x5f4>)
 800876e:	eb03 03c7 	add.w	r3, r3, r7, lsl #3
 8008772:	e953 0102 	ldrd	r0, r1, [r3, #-8]
 8008776:	9b0a      	ldr	r3, [sp, #40]	; 0x28
 8008778:	2b00      	cmp	r3, #0
 800877a:	d047      	beq.n	800880c <_dtoa_r+0x55c>
 800877c:	4602      	mov	r2, r0
 800877e:	460b      	mov	r3, r1
 8008780:	2000      	movs	r0, #0
 8008782:	494e      	ldr	r1, [pc, #312]	; (80088bc <_dtoa_r+0x60c>)
 8008784:	f7f8 f812 	bl	80007ac <__aeabi_ddiv>
 8008788:	462a      	mov	r2, r5
 800878a:	4633      	mov	r3, r6
 800878c:	f7f7 fd2c 	bl	80001e8 <__aeabi_dsub>
 8008790:	e9cd 010c 	strd	r0, r1, [sp, #48]	; 0x30
 8008794:	465d      	mov	r5, fp
 8008796:	e9dd 0100 	ldrd	r0, r1, [sp]
 800879a:	f7f8 fbb7 	bl	8000f0c <__aeabi_d2iz>
 800879e:	4606      	mov	r6, r0
 80087a0:	f7f7 fe70 	bl	8000484 <__aeabi_i2d>
 80087a4:	4602      	mov	r2, r0
 80087a6:	460b      	mov	r3, r1
 80087a8:	e9dd 0100 	ldrd	r0, r1, [sp]
 80087ac:	f7f7 fd1c 	bl	80001e8 <__aeabi_dsub>
 80087b0:	3630      	adds	r6, #48	; 0x30
 80087b2:	f805 6b01 	strb.w	r6, [r5], #1
 80087b6:	e9dd 230c 	ldrd	r2, r3, [sp, #48]	; 0x30
 80087ba:	e9cd 0100 	strd	r0, r1, [sp]
 80087be:	f7f8 fb67 	bl	8000e90 <__aeabi_dcmplt>
 80087c2:	2800      	cmp	r0, #0
 80087c4:	d163      	bne.n	800888e <_dtoa_r+0x5de>
 80087c6:	e9dd 2300 	ldrd	r2, r3, [sp]
 80087ca:	2000      	movs	r0, #0
 80087cc:	4937      	ldr	r1, [pc, #220]	; (80088ac <_dtoa_r+0x5fc>)
 80087ce:	f7f7 fd0b 	bl	80001e8 <__aeabi_dsub>
 80087d2:	e9dd 230c 	ldrd	r2, r3, [sp, #48]	; 0x30
 80087d6:	f7f8 fb5b 	bl	8000e90 <__aeabi_dcmplt>
 80087da:	2800      	cmp	r0, #0
 80087dc:	f040 80b7 	bne.w	800894e <_dtoa_r+0x69e>
 80087e0:	eba5 030b 	sub.w	r3, r5, fp
 80087e4:	429f      	cmp	r7, r3
 80087e6:	f77f af7c 	ble.w	80086e2 <_dtoa_r+0x432>
 80087ea:	2200      	movs	r2, #0
 80087ec:	4b30      	ldr	r3, [pc, #192]	; (80088b0 <_dtoa_r+0x600>)
 80087ee:	e9dd 010c 	ldrd	r0, r1, [sp, #48]	; 0x30
 80087f2:	f7f7 feb1 	bl	8000558 <__aeabi_dmul>
 80087f6:	2200      	movs	r2, #0
 80087f8:	e9cd 010c 	strd	r0, r1, [sp, #48]	; 0x30
 80087fc:	4b2c      	ldr	r3, [pc, #176]	; (80088b0 <_dtoa_r+0x600>)
 80087fe:	e9dd 0100 	ldrd	r0, r1, [sp]
 8008802:	f7f7 fea9 	bl	8000558 <__aeabi_dmul>
 8008806:	e9cd 0100 	strd	r0, r1, [sp]
 800880a:	e7c4      	b.n	8008796 <_dtoa_r+0x4e6>
 800880c:	462a      	mov	r2, r5
 800880e:	4633      	mov	r3, r6
 8008810:	f7f7 fea2 	bl	8000558 <__aeabi_dmul>
 8008814:	e9cd 010c 	strd	r0, r1, [sp, #48]	; 0x30
 8008818:	eb0b 0507 	add.w	r5, fp, r7
 800881c:	465e      	mov	r6, fp
 800881e:	e9dd 0100 	ldrd	r0, r1, [sp]
 8008822:	f7f8 fb73 	bl	8000f0c <__aeabi_d2iz>
 8008826:	4607      	mov	r7, r0
 8008828:	f7f7 fe2c 	bl	8000484 <__aeabi_i2d>
 800882c:	3730      	adds	r7, #48	; 0x30
 800882e:	4602      	mov	r2, r0
 8008830:	460b      	mov	r3, r1
 8008832:	e9dd 0100 	ldrd	r0, r1, [sp]
 8008836:	f7f7 fcd7 	bl	80001e8 <__aeabi_dsub>
 800883a:	f806 7b01 	strb.w	r7, [r6], #1
 800883e:	42ae      	cmp	r6, r5
 8008840:	e9cd 0100 	strd	r0, r1, [sp]
 8008844:	f04f 0200 	mov.w	r2, #0
 8008848:	d126      	bne.n	8008898 <_dtoa_r+0x5e8>
 800884a:	4b1c      	ldr	r3, [pc, #112]	; (80088bc <_dtoa_r+0x60c>)
 800884c:	e9dd 010c 	ldrd	r0, r1, [sp, #48]	; 0x30
 8008850:	f7f7 fccc 	bl	80001ec <__adddf3>
 8008854:	4602      	mov	r2, r0
 8008856:	460b      	mov	r3, r1
 8008858:	e9dd 0100 	ldrd	r0, r1, [sp]
 800885c:	f7f8 fb36 	bl	8000ecc <__aeabi_dcmpgt>
 8008860:	2800      	cmp	r0, #0
 8008862:	d174      	bne.n	800894e <_dtoa_r+0x69e>
 8008864:	e9dd 230c 	ldrd	r2, r3, [sp, #48]	; 0x30
 8008868:	2000      	movs	r0, #0
 800886a:	4914      	ldr	r1, [pc, #80]	; (80088bc <_dtoa_r+0x60c>)
 800886c:	f7f7 fcbc 	bl	80001e8 <__aeabi_dsub>
 8008870:	4602      	mov	r2, r0
 8008872:	460b      	mov	r3, r1
 8008874:	e9dd 0100 	ldrd	r0, r1, [sp]
 8008878:	f7f8 fb0a 	bl	8000e90 <__aeabi_dcmplt>
 800887c:	2800      	cmp	r0, #0
 800887e:	f43f af30 	beq.w	80086e2 <_dtoa_r+0x432>
 8008882:	f815 3c01 	ldrb.w	r3, [r5, #-1]
 8008886:	2b30      	cmp	r3, #48	; 0x30
 8008888:	f105 32ff 	add.w	r2, r5, #4294967295	; 0xffffffff
 800888c:	d002      	beq.n	8008894 <_dtoa_r+0x5e4>
 800888e:	f8dd a020 	ldr.w	sl, [sp, #32]
 8008892:	e04a      	b.n	800892a <_dtoa_r+0x67a>
 8008894:	4615      	mov	r5, r2
 8008896:	e7f4      	b.n	8008882 <_dtoa_r+0x5d2>
 8008898:	4b05      	ldr	r3, [pc, #20]	; (80088b0 <_dtoa_r+0x600>)
 800889a:	f7f7 fe5d 	bl	8000558 <__aeabi_dmul>
 800889e:	e9cd 0100 	strd	r0, r1, [sp]
 80088a2:	e7bc      	b.n	800881e <_dtoa_r+0x56e>
 80088a4:	0800c3d0 	.word	0x0800c3d0
 80088a8:	0800c3a8 	.word	0x0800c3a8
 80088ac:	3ff00000 	.word	0x3ff00000
 80088b0:	40240000 	.word	0x40240000
 80088b4:	401c0000 	.word	0x401c0000
 80088b8:	40140000 	.word	0x40140000
 80088bc:	3fe00000 	.word	0x3fe00000
 80088c0:	e9dd 6700 	ldrd	r6, r7, [sp]
 80088c4:	465d      	mov	r5, fp
 80088c6:	e9dd 2302 	ldrd	r2, r3, [sp, #8]
 80088ca:	4630      	mov	r0, r6
 80088cc:	4639      	mov	r1, r7
 80088ce:	f7f7 ff6d 	bl	80007ac <__aeabi_ddiv>
 80088d2:	f7f8 fb1b 	bl	8000f0c <__aeabi_d2iz>
 80088d6:	4680      	mov	r8, r0
 80088d8:	f7f7 fdd4 	bl	8000484 <__aeabi_i2d>
 80088dc:	e9dd 2302 	ldrd	r2, r3, [sp, #8]
 80088e0:	f7f7 fe3a 	bl	8000558 <__aeabi_dmul>
 80088e4:	4602      	mov	r2, r0
 80088e6:	460b      	mov	r3, r1
 80088e8:	4630      	mov	r0, r6
 80088ea:	4639      	mov	r1, r7
 80088ec:	f108 0630 	add.w	r6, r8, #48	; 0x30
 80088f0:	f7f7 fc7a 	bl	80001e8 <__aeabi_dsub>
 80088f4:	f805 6b01 	strb.w	r6, [r5], #1
 80088f8:	eba5 060b 	sub.w	r6, r5, fp
 80088fc:	45b1      	cmp	r9, r6
 80088fe:	4602      	mov	r2, r0
 8008900:	460b      	mov	r3, r1
 8008902:	d139      	bne.n	8008978 <_dtoa_r+0x6c8>
 8008904:	f7f7 fc72 	bl	80001ec <__adddf3>
 8008908:	e9dd 2302 	ldrd	r2, r3, [sp, #8]
 800890c:	4606      	mov	r6, r0
 800890e:	460f      	mov	r7, r1
 8008910:	f7f8 fadc 	bl	8000ecc <__aeabi_dcmpgt>
 8008914:	b9c8      	cbnz	r0, 800894a <_dtoa_r+0x69a>
 8008916:	e9dd 2302 	ldrd	r2, r3, [sp, #8]
 800891a:	4630      	mov	r0, r6
 800891c:	4639      	mov	r1, r7
 800891e:	f7f8 faad 	bl	8000e7c <__aeabi_dcmpeq>
 8008922:	b110      	cbz	r0, 800892a <_dtoa_r+0x67a>
 8008924:	f018 0f01 	tst.w	r8, #1
 8008928:	d10f      	bne.n	800894a <_dtoa_r+0x69a>
 800892a:	9904      	ldr	r1, [sp, #16]
 800892c:	4620      	mov	r0, r4
 800892e:	f000 fc9f 	bl	8009270 <_Bfree>
 8008932:	2300      	movs	r3, #0
 8008934:	9a12      	ldr	r2, [sp, #72]	; 0x48
 8008936:	702b      	strb	r3, [r5, #0]
 8008938:	f10a 0301 	add.w	r3, sl, #1
 800893c:	6013      	str	r3, [r2, #0]
 800893e:	9b21      	ldr	r3, [sp, #132]	; 0x84
 8008940:	2b00      	cmp	r3, #0
 8008942:	f000 8241 	beq.w	8008dc8 <_dtoa_r+0xb18>
 8008946:	601d      	str	r5, [r3, #0]
 8008948:	e23e      	b.n	8008dc8 <_dtoa_r+0xb18>
 800894a:	f8cd a020 	str.w	sl, [sp, #32]
 800894e:	f815 2c01 	ldrb.w	r2, [r5, #-1]
 8008952:	2a39      	cmp	r2, #57	; 0x39
 8008954:	f105 33ff 	add.w	r3, r5, #4294967295	; 0xffffffff
 8008958:	d108      	bne.n	800896c <_dtoa_r+0x6bc>
 800895a:	459b      	cmp	fp, r3
 800895c:	d10a      	bne.n	8008974 <_dtoa_r+0x6c4>
 800895e:	9b08      	ldr	r3, [sp, #32]
 8008960:	3301      	adds	r3, #1
 8008962:	9308      	str	r3, [sp, #32]
 8008964:	2330      	movs	r3, #48	; 0x30
 8008966:	f88b 3000 	strb.w	r3, [fp]
 800896a:	465b      	mov	r3, fp
 800896c:	781a      	ldrb	r2, [r3, #0]
 800896e:	3201      	adds	r2, #1
 8008970:	701a      	strb	r2, [r3, #0]
 8008972:	e78c      	b.n	800888e <_dtoa_r+0x5de>
 8008974:	461d      	mov	r5, r3
 8008976:	e7ea      	b.n	800894e <_dtoa_r+0x69e>
 8008978:	2200      	movs	r2, #0
 800897a:	4b9b      	ldr	r3, [pc, #620]	; (8008be8 <_dtoa_r+0x938>)
 800897c:	f7f7 fdec 	bl	8000558 <__aeabi_dmul>
 8008980:	2200      	movs	r2, #0
 8008982:	2300      	movs	r3, #0
 8008984:	4606      	mov	r6, r0
 8008986:	460f      	mov	r7, r1
 8008988:	f7f8 fa78 	bl	8000e7c <__aeabi_dcmpeq>
 800898c:	2800      	cmp	r0, #0
 800898e:	d09a      	beq.n	80088c6 <_dtoa_r+0x616>
 8008990:	e7cb      	b.n	800892a <_dtoa_r+0x67a>
 8008992:	9a0a      	ldr	r2, [sp, #40]	; 0x28
 8008994:	2a00      	cmp	r2, #0
 8008996:	f000 808b 	beq.w	8008ab0 <_dtoa_r+0x800>
 800899a:	9a06      	ldr	r2, [sp, #24]
 800899c:	2a01      	cmp	r2, #1
 800899e:	dc6e      	bgt.n	8008a7e <_dtoa_r+0x7ce>
 80089a0:	9a13      	ldr	r2, [sp, #76]	; 0x4c
 80089a2:	2a00      	cmp	r2, #0
 80089a4:	d067      	beq.n	8008a76 <_dtoa_r+0x7c6>
 80089a6:	f203 4333 	addw	r3, r3, #1075	; 0x433
 80089aa:	9f07      	ldr	r7, [sp, #28]
 80089ac:	9d05      	ldr	r5, [sp, #20]
 80089ae:	9a05      	ldr	r2, [sp, #20]
 80089b0:	2101      	movs	r1, #1
 80089b2:	441a      	add	r2, r3
 80089b4:	4620      	mov	r0, r4
 80089b6:	9205      	str	r2, [sp, #20]
 80089b8:	4498      	add	r8, r3
 80089ba:	f000 fcf9 	bl	80093b0 <__i2b>
 80089be:	4606      	mov	r6, r0
 80089c0:	2d00      	cmp	r5, #0
 80089c2:	dd0c      	ble.n	80089de <_dtoa_r+0x72e>
 80089c4:	f1b8 0f00 	cmp.w	r8, #0
 80089c8:	dd09      	ble.n	80089de <_dtoa_r+0x72e>
 80089ca:	4545      	cmp	r5, r8
 80089cc:	9a05      	ldr	r2, [sp, #20]
 80089ce:	462b      	mov	r3, r5
 80089d0:	bfa8      	it	ge
 80089d2:	4643      	movge	r3, r8
 80089d4:	1ad2      	subs	r2, r2, r3
 80089d6:	9205      	str	r2, [sp, #20]
 80089d8:	1aed      	subs	r5, r5, r3
 80089da:	eba8 0803 	sub.w	r8, r8, r3
 80089de:	9b07      	ldr	r3, [sp, #28]
 80089e0:	b1eb      	cbz	r3, 8008a1e <_dtoa_r+0x76e>
 80089e2:	9b0a      	ldr	r3, [sp, #40]	; 0x28
 80089e4:	2b00      	cmp	r3, #0
 80089e6:	d067      	beq.n	8008ab8 <_dtoa_r+0x808>
 80089e8:	b18f      	cbz	r7, 8008a0e <_dtoa_r+0x75e>
 80089ea:	4631      	mov	r1, r6
 80089ec:	463a      	mov	r2, r7
 80089ee:	4620      	mov	r0, r4
 80089f0:	f000 fd7e 	bl	80094f0 <__pow5mult>
 80089f4:	9a04      	ldr	r2, [sp, #16]
 80089f6:	4601      	mov	r1, r0
 80089f8:	4606      	mov	r6, r0
 80089fa:	4620      	mov	r0, r4
 80089fc:	f000 fce1 	bl	80093c2 <__multiply>
 8008a00:	9904      	ldr	r1, [sp, #16]
 8008a02:	9008      	str	r0, [sp, #32]
 8008a04:	4620      	mov	r0, r4
 8008a06:	f000 fc33 	bl	8009270 <_Bfree>
 8008a0a:	9b08      	ldr	r3, [sp, #32]
 8008a0c:	9304      	str	r3, [sp, #16]
 8008a0e:	9b07      	ldr	r3, [sp, #28]
 8008a10:	1bda      	subs	r2, r3, r7
 8008a12:	d004      	beq.n	8008a1e <_dtoa_r+0x76e>
 8008a14:	9904      	ldr	r1, [sp, #16]
 8008a16:	4620      	mov	r0, r4
 8008a18:	f000 fd6a 	bl	80094f0 <__pow5mult>
 8008a1c:	9004      	str	r0, [sp, #16]
 8008a1e:	2101      	movs	r1, #1
 8008a20:	4620      	mov	r0, r4
 8008a22:	f000 fcc5 	bl	80093b0 <__i2b>
 8008a26:	9b0e      	ldr	r3, [sp, #56]	; 0x38
 8008a28:	4607      	mov	r7, r0
 8008a2a:	2b00      	cmp	r3, #0
 8008a2c:	f000 81d0 	beq.w	8008dd0 <_dtoa_r+0xb20>
 8008a30:	461a      	mov	r2, r3
 8008a32:	4601      	mov	r1, r0
 8008a34:	4620      	mov	r0, r4
 8008a36:	f000 fd5b 	bl	80094f0 <__pow5mult>
 8008a3a:	9b06      	ldr	r3, [sp, #24]
 8008a3c:	2b01      	cmp	r3, #1
 8008a3e:	4607      	mov	r7, r0
 8008a40:	dc40      	bgt.n	8008ac4 <_dtoa_r+0x814>
 8008a42:	9b00      	ldr	r3, [sp, #0]
 8008a44:	2b00      	cmp	r3, #0
 8008a46:	d139      	bne.n	8008abc <_dtoa_r+0x80c>
 8008a48:	9b01      	ldr	r3, [sp, #4]
 8008a4a:	f3c3 0313 	ubfx	r3, r3, #0, #20
 8008a4e:	2b00      	cmp	r3, #0
 8008a50:	d136      	bne.n	8008ac0 <_dtoa_r+0x810>
 8008a52:	9b01      	ldr	r3, [sp, #4]
 8008a54:	f023 4300 	bic.w	r3, r3, #2147483648	; 0x80000000
 8008a58:	0d1b      	lsrs	r3, r3, #20
 8008a5a:	051b      	lsls	r3, r3, #20
 8008a5c:	b12b      	cbz	r3, 8008a6a <_dtoa_r+0x7ba>
 8008a5e:	9b05      	ldr	r3, [sp, #20]
 8008a60:	3301      	adds	r3, #1
 8008a62:	9305      	str	r3, [sp, #20]
 8008a64:	f108 0801 	add.w	r8, r8, #1
 8008a68:	2301      	movs	r3, #1
 8008a6a:	9307      	str	r3, [sp, #28]
 8008a6c:	9b0e      	ldr	r3, [sp, #56]	; 0x38
 8008a6e:	2b00      	cmp	r3, #0
 8008a70:	d12a      	bne.n	8008ac8 <_dtoa_r+0x818>
 8008a72:	2001      	movs	r0, #1
 8008a74:	e030      	b.n	8008ad8 <_dtoa_r+0x828>
 8008a76:	9b14      	ldr	r3, [sp, #80]	; 0x50
 8008a78:	f1c3 0336 	rsb	r3, r3, #54	; 0x36
 8008a7c:	e795      	b.n	80089aa <_dtoa_r+0x6fa>
 8008a7e:	9b07      	ldr	r3, [sp, #28]
 8008a80:	f109 37ff 	add.w	r7, r9, #4294967295	; 0xffffffff
 8008a84:	42bb      	cmp	r3, r7
 8008a86:	bfbf      	itttt	lt
 8008a88:	9b07      	ldrlt	r3, [sp, #28]
 8008a8a:	9707      	strlt	r7, [sp, #28]
 8008a8c:	1afa      	sublt	r2, r7, r3
 8008a8e:	9b0e      	ldrlt	r3, [sp, #56]	; 0x38
 8008a90:	bfbb      	ittet	lt
 8008a92:	189b      	addlt	r3, r3, r2
 8008a94:	930e      	strlt	r3, [sp, #56]	; 0x38
 8008a96:	1bdf      	subge	r7, r3, r7
 8008a98:	2700      	movlt	r7, #0
 8008a9a:	f1b9 0f00 	cmp.w	r9, #0
 8008a9e:	bfb5      	itete	lt
 8008aa0:	9b05      	ldrlt	r3, [sp, #20]
 8008aa2:	9d05      	ldrge	r5, [sp, #20]
 8008aa4:	eba3 0509 	sublt.w	r5, r3, r9
 8008aa8:	464b      	movge	r3, r9
 8008aaa:	bfb8      	it	lt
 8008aac:	2300      	movlt	r3, #0
 8008aae:	e77e      	b.n	80089ae <_dtoa_r+0x6fe>
 8008ab0:	9f07      	ldr	r7, [sp, #28]
 8008ab2:	9d05      	ldr	r5, [sp, #20]
 8008ab4:	9e0a      	ldr	r6, [sp, #40]	; 0x28
 8008ab6:	e783      	b.n	80089c0 <_dtoa_r+0x710>
 8008ab8:	9a07      	ldr	r2, [sp, #28]
 8008aba:	e7ab      	b.n	8008a14 <_dtoa_r+0x764>
 8008abc:	2300      	movs	r3, #0
 8008abe:	e7d4      	b.n	8008a6a <_dtoa_r+0x7ba>
 8008ac0:	9b00      	ldr	r3, [sp, #0]
 8008ac2:	e7d2      	b.n	8008a6a <_dtoa_r+0x7ba>
 8008ac4:	2300      	movs	r3, #0
 8008ac6:	9307      	str	r3, [sp, #28]
 8008ac8:	693b      	ldr	r3, [r7, #16]
 8008aca:	eb07 0383 	add.w	r3, r7, r3, lsl #2
 8008ace:	6918      	ldr	r0, [r3, #16]
 8008ad0:	f000 fc20 	bl	8009314 <__hi0bits>
 8008ad4:	f1c0 0020 	rsb	r0, r0, #32
 8008ad8:	4440      	add	r0, r8
 8008ada:	f010 001f 	ands.w	r0, r0, #31
 8008ade:	d047      	beq.n	8008b70 <_dtoa_r+0x8c0>
 8008ae0:	f1c0 0320 	rsb	r3, r0, #32
 8008ae4:	2b04      	cmp	r3, #4
 8008ae6:	dd3b      	ble.n	8008b60 <_dtoa_r+0x8b0>
 8008ae8:	9b05      	ldr	r3, [sp, #20]
 8008aea:	f1c0 001c 	rsb	r0, r0, #28
 8008aee:	4403      	add	r3, r0
 8008af0:	9305      	str	r3, [sp, #20]
 8008af2:	4405      	add	r5, r0
 8008af4:	4480      	add	r8, r0
 8008af6:	9b05      	ldr	r3, [sp, #20]
 8008af8:	2b00      	cmp	r3, #0
 8008afa:	dd05      	ble.n	8008b08 <_dtoa_r+0x858>
 8008afc:	461a      	mov	r2, r3
 8008afe:	9904      	ldr	r1, [sp, #16]
 8008b00:	4620      	mov	r0, r4
 8008b02:	f000 fd43 	bl	800958c <__lshift>
 8008b06:	9004      	str	r0, [sp, #16]
 8008b08:	f1b8 0f00 	cmp.w	r8, #0
 8008b0c:	dd05      	ble.n	8008b1a <_dtoa_r+0x86a>
 8008b0e:	4639      	mov	r1, r7
 8008b10:	4642      	mov	r2, r8
 8008b12:	4620      	mov	r0, r4
 8008b14:	f000 fd3a 	bl	800958c <__lshift>
 8008b18:	4607      	mov	r7, r0
 8008b1a:	9b0f      	ldr	r3, [sp, #60]	; 0x3c
 8008b1c:	b353      	cbz	r3, 8008b74 <_dtoa_r+0x8c4>
 8008b1e:	4639      	mov	r1, r7
 8008b20:	9804      	ldr	r0, [sp, #16]
 8008b22:	f000 fd87 	bl	8009634 <__mcmp>
 8008b26:	2800      	cmp	r0, #0
 8008b28:	da24      	bge.n	8008b74 <_dtoa_r+0x8c4>
 8008b2a:	2300      	movs	r3, #0
 8008b2c:	220a      	movs	r2, #10
 8008b2e:	9904      	ldr	r1, [sp, #16]
 8008b30:	4620      	mov	r0, r4
 8008b32:	f000 fbb4 	bl	800929e <__multadd>
 8008b36:	9b0a      	ldr	r3, [sp, #40]	; 0x28
 8008b38:	9004      	str	r0, [sp, #16]
 8008b3a:	f10a 3aff 	add.w	sl, sl, #4294967295	; 0xffffffff
 8008b3e:	2b00      	cmp	r3, #0
 8008b40:	f000 814d 	beq.w	8008dde <_dtoa_r+0xb2e>
 8008b44:	2300      	movs	r3, #0
 8008b46:	4631      	mov	r1, r6
 8008b48:	220a      	movs	r2, #10
 8008b4a:	4620      	mov	r0, r4
 8008b4c:	f000 fba7 	bl	800929e <__multadd>
 8008b50:	9b02      	ldr	r3, [sp, #8]
 8008b52:	2b00      	cmp	r3, #0
 8008b54:	4606      	mov	r6, r0
 8008b56:	dc4f      	bgt.n	8008bf8 <_dtoa_r+0x948>
 8008b58:	9b06      	ldr	r3, [sp, #24]
 8008b5a:	2b02      	cmp	r3, #2
 8008b5c:	dd4c      	ble.n	8008bf8 <_dtoa_r+0x948>
 8008b5e:	e011      	b.n	8008b84 <_dtoa_r+0x8d4>
 8008b60:	d0c9      	beq.n	8008af6 <_dtoa_r+0x846>
 8008b62:	9a05      	ldr	r2, [sp, #20]
 8008b64:	331c      	adds	r3, #28
 8008b66:	441a      	add	r2, r3
 8008b68:	9205      	str	r2, [sp, #20]
 8008b6a:	441d      	add	r5, r3
 8008b6c:	4498      	add	r8, r3
 8008b6e:	e7c2      	b.n	8008af6 <_dtoa_r+0x846>
 8008b70:	4603      	mov	r3, r0
 8008b72:	e7f6      	b.n	8008b62 <_dtoa_r+0x8b2>
 8008b74:	f1b9 0f00 	cmp.w	r9, #0
 8008b78:	dc38      	bgt.n	8008bec <_dtoa_r+0x93c>
 8008b7a:	9b06      	ldr	r3, [sp, #24]
 8008b7c:	2b02      	cmp	r3, #2
 8008b7e:	dd35      	ble.n	8008bec <_dtoa_r+0x93c>
 8008b80:	f8cd 9008 	str.w	r9, [sp, #8]
 8008b84:	9b02      	ldr	r3, [sp, #8]
 8008b86:	b963      	cbnz	r3, 8008ba2 <_dtoa_r+0x8f2>
 8008b88:	4639      	mov	r1, r7
 8008b8a:	2205      	movs	r2, #5
 8008b8c:	4620      	mov	r0, r4
 8008b8e:	f000 fb86 	bl	800929e <__multadd>
 8008b92:	4601      	mov	r1, r0
 8008b94:	4607      	mov	r7, r0
 8008b96:	9804      	ldr	r0, [sp, #16]
 8008b98:	f000 fd4c 	bl	8009634 <__mcmp>
 8008b9c:	2800      	cmp	r0, #0
 8008b9e:	f73f adcc 	bgt.w	800873a <_dtoa_r+0x48a>
 8008ba2:	9b0b      	ldr	r3, [sp, #44]	; 0x2c
 8008ba4:	465d      	mov	r5, fp
 8008ba6:	ea6f 0a03 	mvn.w	sl, r3
 8008baa:	f04f 0900 	mov.w	r9, #0
 8008bae:	4639      	mov	r1, r7
 8008bb0:	4620      	mov	r0, r4
 8008bb2:	f000 fb5d 	bl	8009270 <_Bfree>
 8008bb6:	2e00      	cmp	r6, #0
 8008bb8:	f43f aeb7 	beq.w	800892a <_dtoa_r+0x67a>
 8008bbc:	f1b9 0f00 	cmp.w	r9, #0
 8008bc0:	d005      	beq.n	8008bce <_dtoa_r+0x91e>
 8008bc2:	45b1      	cmp	r9, r6
 8008bc4:	d003      	beq.n	8008bce <_dtoa_r+0x91e>
 8008bc6:	4649      	mov	r1, r9
 8008bc8:	4620      	mov	r0, r4
 8008bca:	f000 fb51 	bl	8009270 <_Bfree>
 8008bce:	4631      	mov	r1, r6
 8008bd0:	4620      	mov	r0, r4
 8008bd2:	f000 fb4d 	bl	8009270 <_Bfree>
 8008bd6:	e6a8      	b.n	800892a <_dtoa_r+0x67a>
 8008bd8:	2700      	movs	r7, #0
 8008bda:	463e      	mov	r6, r7
 8008bdc:	e7e1      	b.n	8008ba2 <_dtoa_r+0x8f2>
 8008bde:	f8dd a020 	ldr.w	sl, [sp, #32]
 8008be2:	463e      	mov	r6, r7
 8008be4:	e5a9      	b.n	800873a <_dtoa_r+0x48a>
 8008be6:	bf00      	nop
 8008be8:	40240000 	.word	0x40240000
 8008bec:	9b0a      	ldr	r3, [sp, #40]	; 0x28
 8008bee:	f8cd 9008 	str.w	r9, [sp, #8]
 8008bf2:	2b00      	cmp	r3, #0
 8008bf4:	f000 80fa 	beq.w	8008dec <_dtoa_r+0xb3c>
 8008bf8:	2d00      	cmp	r5, #0
 8008bfa:	dd05      	ble.n	8008c08 <_dtoa_r+0x958>
 8008bfc:	4631      	mov	r1, r6
 8008bfe:	462a      	mov	r2, r5
 8008c00:	4620      	mov	r0, r4
 8008c02:	f000 fcc3 	bl	800958c <__lshift>
 8008c06:	4606      	mov	r6, r0
 8008c08:	9b07      	ldr	r3, [sp, #28]
 8008c0a:	2b00      	cmp	r3, #0
 8008c0c:	d04c      	beq.n	8008ca8 <_dtoa_r+0x9f8>
 8008c0e:	6871      	ldr	r1, [r6, #4]
 8008c10:	4620      	mov	r0, r4
 8008c12:	f000 faf9 	bl	8009208 <_Balloc>
 8008c16:	6932      	ldr	r2, [r6, #16]
 8008c18:	3202      	adds	r2, #2
 8008c1a:	4605      	mov	r5, r0
 8008c1c:	0092      	lsls	r2, r2, #2
 8008c1e:	f106 010c 	add.w	r1, r6, #12
 8008c22:	300c      	adds	r0, #12
 8008c24:	f7fe fcec 	bl	8007600 <memcpy>
 8008c28:	2201      	movs	r2, #1
 8008c2a:	4629      	mov	r1, r5
 8008c2c:	4620      	mov	r0, r4
 8008c2e:	f000 fcad 	bl	800958c <__lshift>
 8008c32:	9b00      	ldr	r3, [sp, #0]
 8008c34:	f8cd b014 	str.w	fp, [sp, #20]
 8008c38:	f003 0301 	and.w	r3, r3, #1
 8008c3c:	46b1      	mov	r9, r6
 8008c3e:	9307      	str	r3, [sp, #28]
 8008c40:	4606      	mov	r6, r0
 8008c42:	4639      	mov	r1, r7
 8008c44:	9804      	ldr	r0, [sp, #16]
 8008c46:	f7ff faa7 	bl	8008198 <quorem>
 8008c4a:	4649      	mov	r1, r9
 8008c4c:	4605      	mov	r5, r0
 8008c4e:	f100 0830 	add.w	r8, r0, #48	; 0x30
 8008c52:	9804      	ldr	r0, [sp, #16]
 8008c54:	f000 fcee 	bl	8009634 <__mcmp>
 8008c58:	4632      	mov	r2, r6
 8008c5a:	9000      	str	r0, [sp, #0]
 8008c5c:	4639      	mov	r1, r7
 8008c5e:	4620      	mov	r0, r4
 8008c60:	f000 fd02 	bl	8009668 <__mdiff>
 8008c64:	68c3      	ldr	r3, [r0, #12]
 8008c66:	4602      	mov	r2, r0
 8008c68:	bb03      	cbnz	r3, 8008cac <_dtoa_r+0x9fc>
 8008c6a:	4601      	mov	r1, r0
 8008c6c:	9008      	str	r0, [sp, #32]
 8008c6e:	9804      	ldr	r0, [sp, #16]
 8008c70:	f000 fce0 	bl	8009634 <__mcmp>
 8008c74:	9a08      	ldr	r2, [sp, #32]
 8008c76:	4603      	mov	r3, r0
 8008c78:	4611      	mov	r1, r2
 8008c7a:	4620      	mov	r0, r4
 8008c7c:	9308      	str	r3, [sp, #32]
 8008c7e:	f000 faf7 	bl	8009270 <_Bfree>
 8008c82:	9b08      	ldr	r3, [sp, #32]
 8008c84:	b9a3      	cbnz	r3, 8008cb0 <_dtoa_r+0xa00>
 8008c86:	9a06      	ldr	r2, [sp, #24]
 8008c88:	b992      	cbnz	r2, 8008cb0 <_dtoa_r+0xa00>
 8008c8a:	9a07      	ldr	r2, [sp, #28]
 8008c8c:	b982      	cbnz	r2, 8008cb0 <_dtoa_r+0xa00>
 8008c8e:	f1b8 0f39 	cmp.w	r8, #57	; 0x39
 8008c92:	d029      	beq.n	8008ce8 <_dtoa_r+0xa38>
 8008c94:	9b00      	ldr	r3, [sp, #0]
 8008c96:	2b00      	cmp	r3, #0
 8008c98:	dd01      	ble.n	8008c9e <_dtoa_r+0x9ee>
 8008c9a:	f105 0831 	add.w	r8, r5, #49	; 0x31
 8008c9e:	9b05      	ldr	r3, [sp, #20]
 8008ca0:	1c5d      	adds	r5, r3, #1
 8008ca2:	f883 8000 	strb.w	r8, [r3]
 8008ca6:	e782      	b.n	8008bae <_dtoa_r+0x8fe>
 8008ca8:	4630      	mov	r0, r6
 8008caa:	e7c2      	b.n	8008c32 <_dtoa_r+0x982>
 8008cac:	2301      	movs	r3, #1
 8008cae:	e7e3      	b.n	8008c78 <_dtoa_r+0x9c8>
 8008cb0:	9a00      	ldr	r2, [sp, #0]
 8008cb2:	2a00      	cmp	r2, #0
 8008cb4:	db04      	blt.n	8008cc0 <_dtoa_r+0xa10>
 8008cb6:	d125      	bne.n	8008d04 <_dtoa_r+0xa54>
 8008cb8:	9a06      	ldr	r2, [sp, #24]
 8008cba:	bb1a      	cbnz	r2, 8008d04 <_dtoa_r+0xa54>
 8008cbc:	9a07      	ldr	r2, [sp, #28]
 8008cbe:	bb0a      	cbnz	r2, 8008d04 <_dtoa_r+0xa54>
 8008cc0:	2b00      	cmp	r3, #0
 8008cc2:	ddec      	ble.n	8008c9e <_dtoa_r+0x9ee>
 8008cc4:	2201      	movs	r2, #1
 8008cc6:	9904      	ldr	r1, [sp, #16]
 8008cc8:	4620      	mov	r0, r4
 8008cca:	f000 fc5f 	bl	800958c <__lshift>
 8008cce:	4639      	mov	r1, r7
 8008cd0:	9004      	str	r0, [sp, #16]
 8008cd2:	f000 fcaf 	bl	8009634 <__mcmp>
 8008cd6:	2800      	cmp	r0, #0
 8008cd8:	dc03      	bgt.n	8008ce2 <_dtoa_r+0xa32>
 8008cda:	d1e0      	bne.n	8008c9e <_dtoa_r+0x9ee>
 8008cdc:	f018 0f01 	tst.w	r8, #1
 8008ce0:	d0dd      	beq.n	8008c9e <_dtoa_r+0x9ee>
 8008ce2:	f1b8 0f39 	cmp.w	r8, #57	; 0x39
 8008ce6:	d1d8      	bne.n	8008c9a <_dtoa_r+0x9ea>
 8008ce8:	9b05      	ldr	r3, [sp, #20]
 8008cea:	9a05      	ldr	r2, [sp, #20]
 8008cec:	1c5d      	adds	r5, r3, #1
 8008cee:	2339      	movs	r3, #57	; 0x39
 8008cf0:	7013      	strb	r3, [r2, #0]
 8008cf2:	f815 3c01 	ldrb.w	r3, [r5, #-1]
 8008cf6:	2b39      	cmp	r3, #57	; 0x39
 8008cf8:	f105 32ff 	add.w	r2, r5, #4294967295	; 0xffffffff
 8008cfc:	d04f      	beq.n	8008d9e <_dtoa_r+0xaee>
 8008cfe:	3301      	adds	r3, #1
 8008d00:	7013      	strb	r3, [r2, #0]
 8008d02:	e754      	b.n	8008bae <_dtoa_r+0x8fe>
 8008d04:	9a05      	ldr	r2, [sp, #20]
 8008d06:	2b00      	cmp	r3, #0
 8008d08:	f102 0501 	add.w	r5, r2, #1
 8008d0c:	dd06      	ble.n	8008d1c <_dtoa_r+0xa6c>
 8008d0e:	f1b8 0f39 	cmp.w	r8, #57	; 0x39
 8008d12:	d0e9      	beq.n	8008ce8 <_dtoa_r+0xa38>
 8008d14:	f108 0801 	add.w	r8, r8, #1
 8008d18:	9b05      	ldr	r3, [sp, #20]
 8008d1a:	e7c2      	b.n	8008ca2 <_dtoa_r+0x9f2>
 8008d1c:	9a02      	ldr	r2, [sp, #8]
 8008d1e:	f805 8c01 	strb.w	r8, [r5, #-1]
 8008d22:	eba5 030b 	sub.w	r3, r5, fp
 8008d26:	4293      	cmp	r3, r2
 8008d28:	d021      	beq.n	8008d6e <_dtoa_r+0xabe>
 8008d2a:	2300      	movs	r3, #0
 8008d2c:	220a      	movs	r2, #10
 8008d2e:	9904      	ldr	r1, [sp, #16]
 8008d30:	4620      	mov	r0, r4
 8008d32:	f000 fab4 	bl	800929e <__multadd>
 8008d36:	45b1      	cmp	r9, r6
 8008d38:	9004      	str	r0, [sp, #16]
 8008d3a:	f04f 0300 	mov.w	r3, #0
 8008d3e:	f04f 020a 	mov.w	r2, #10
 8008d42:	4649      	mov	r1, r9
 8008d44:	4620      	mov	r0, r4
 8008d46:	d105      	bne.n	8008d54 <_dtoa_r+0xaa4>
 8008d48:	f000 faa9 	bl	800929e <__multadd>
 8008d4c:	4681      	mov	r9, r0
 8008d4e:	4606      	mov	r6, r0
 8008d50:	9505      	str	r5, [sp, #20]
 8008d52:	e776      	b.n	8008c42 <_dtoa_r+0x992>
 8008d54:	f000 faa3 	bl	800929e <__multadd>
 8008d58:	4631      	mov	r1, r6
 8008d5a:	4681      	mov	r9, r0
 8008d5c:	2300      	movs	r3, #0
 8008d5e:	220a      	movs	r2, #10
 8008d60:	4620      	mov	r0, r4
 8008d62:	f000 fa9c 	bl	800929e <__multadd>
 8008d66:	4606      	mov	r6, r0
 8008d68:	e7f2      	b.n	8008d50 <_dtoa_r+0xaa0>
 8008d6a:	f04f 0900 	mov.w	r9, #0
 8008d6e:	2201      	movs	r2, #1
 8008d70:	9904      	ldr	r1, [sp, #16]
 8008d72:	4620      	mov	r0, r4
 8008d74:	f000 fc0a 	bl	800958c <__lshift>
 8008d78:	4639      	mov	r1, r7
 8008d7a:	9004      	str	r0, [sp, #16]
 8008d7c:	f000 fc5a 	bl	8009634 <__mcmp>
 8008d80:	2800      	cmp	r0, #0
 8008d82:	dcb6      	bgt.n	8008cf2 <_dtoa_r+0xa42>
 8008d84:	d102      	bne.n	8008d8c <_dtoa_r+0xadc>
 8008d86:	f018 0f01 	tst.w	r8, #1
 8008d8a:	d1b2      	bne.n	8008cf2 <_dtoa_r+0xa42>
 8008d8c:	f815 3c01 	ldrb.w	r3, [r5, #-1]
 8008d90:	2b30      	cmp	r3, #48	; 0x30
 8008d92:	f105 32ff 	add.w	r2, r5, #4294967295	; 0xffffffff
 8008d96:	f47f af0a 	bne.w	8008bae <_dtoa_r+0x8fe>
 8008d9a:	4615      	mov	r5, r2
 8008d9c:	e7f6      	b.n	8008d8c <_dtoa_r+0xadc>
 8008d9e:	4593      	cmp	fp, r2
 8008da0:	d105      	bne.n	8008dae <_dtoa_r+0xafe>
 8008da2:	2331      	movs	r3, #49	; 0x31
 8008da4:	f10a 0a01 	add.w	sl, sl, #1
 8008da8:	f88b 3000 	strb.w	r3, [fp]
 8008dac:	e6ff      	b.n	8008bae <_dtoa_r+0x8fe>
 8008dae:	4615      	mov	r5, r2
 8008db0:	e79f      	b.n	8008cf2 <_dtoa_r+0xa42>
 8008db2:	f8df b064 	ldr.w	fp, [pc, #100]	; 8008e18 <_dtoa_r+0xb68>
 8008db6:	e007      	b.n	8008dc8 <_dtoa_r+0xb18>
 8008db8:	9b21      	ldr	r3, [sp, #132]	; 0x84
 8008dba:	f8df b060 	ldr.w	fp, [pc, #96]	; 8008e1c <_dtoa_r+0xb6c>
 8008dbe:	b11b      	cbz	r3, 8008dc8 <_dtoa_r+0xb18>
 8008dc0:	f10b 0308 	add.w	r3, fp, #8
 8008dc4:	9a21      	ldr	r2, [sp, #132]	; 0x84
 8008dc6:	6013      	str	r3, [r2, #0]
 8008dc8:	4658      	mov	r0, fp
 8008dca:	b017      	add	sp, #92	; 0x5c
 8008dcc:	e8bd 8ff0 	ldmia.w	sp!, {r4, r5, r6, r7, r8, r9, sl, fp, pc}
 8008dd0:	9b06      	ldr	r3, [sp, #24]
 8008dd2:	2b01      	cmp	r3, #1
 8008dd4:	f77f ae35 	ble.w	8008a42 <_dtoa_r+0x792>
 8008dd8:	9b0e      	ldr	r3, [sp, #56]	; 0x38
 8008dda:	9307      	str	r3, [sp, #28]
 8008ddc:	e649      	b.n	8008a72 <_dtoa_r+0x7c2>
 8008dde:	9b02      	ldr	r3, [sp, #8]
 8008de0:	2b00      	cmp	r3, #0
 8008de2:	dc03      	bgt.n	8008dec <_dtoa_r+0xb3c>
 8008de4:	9b06      	ldr	r3, [sp, #24]
 8008de6:	2b02      	cmp	r3, #2
 8008de8:	f73f aecc 	bgt.w	8008b84 <_dtoa_r+0x8d4>
 8008dec:	465d      	mov	r5, fp
 8008dee:	4639      	mov	r1, r7
 8008df0:	9804      	ldr	r0, [sp, #16]
 8008df2:	f7ff f9d1 	bl	8008198 <quorem>
 8008df6:	f100 0830 	add.w	r8, r0, #48	; 0x30
 8008dfa:	f805 8b01 	strb.w	r8, [r5], #1
 8008dfe:	9a02      	ldr	r2, [sp, #8]
 8008e00:	eba5 030b 	sub.w	r3, r5, fp
 8008e04:	429a      	cmp	r2, r3
 8008e06:	ddb0      	ble.n	8008d6a <_dtoa_r+0xaba>
 8008e08:	2300      	movs	r3, #0
 8008e0a:	220a      	movs	r2, #10
 8008e0c:	9904      	ldr	r1, [sp, #16]
 8008e0e:	4620      	mov	r0, r4
 8008e10:	f000 fa45 	bl	800929e <__multadd>
 8008e14:	9004      	str	r0, [sp, #16]
 8008e16:	e7ea      	b.n	8008dee <_dtoa_r+0xb3e>
 8008e18:	0800c314 	.word	0x0800c314
 8008e1c:	0800c338 	.word	0x0800c338

08008e20 <__sflush_r>:
 8008e20:	898a      	ldrh	r2, [r1, #12]
 8008e22:	e92d 41f0 	stmdb	sp!, {r4, r5, r6, r7, r8, lr}
 8008e26:	4605      	mov	r5, r0
 8008e28:	0710      	lsls	r0, r2, #28
 8008e2a:	460c      	mov	r4, r1
 8008e2c:	d458      	bmi.n	8008ee0 <__sflush_r+0xc0>
 8008e2e:	684b      	ldr	r3, [r1, #4]
 8008e30:	2b00      	cmp	r3, #0
 8008e32:	dc05      	bgt.n	8008e40 <__sflush_r+0x20>
 8008e34:	6c0b      	ldr	r3, [r1, #64]	; 0x40
 8008e36:	2b00      	cmp	r3, #0
 8008e38:	dc02      	bgt.n	8008e40 <__sflush_r+0x20>
 8008e3a:	2000      	movs	r0, #0
 8008e3c:	e8bd 81f0 	ldmia.w	sp!, {r4, r5, r6, r7, r8, pc}
 8008e40:	6ae6      	ldr	r6, [r4, #44]	; 0x2c
 8008e42:	2e00      	cmp	r6, #0
 8008e44:	d0f9      	beq.n	8008e3a <__sflush_r+0x1a>
 8008e46:	2300      	movs	r3, #0
 8008e48:	f412 5280 	ands.w	r2, r2, #4096	; 0x1000
 8008e4c:	682f      	ldr	r7, [r5, #0]
 8008e4e:	6a21      	ldr	r1, [r4, #32]
 8008e50:	602b      	str	r3, [r5, #0]
 8008e52:	d032      	beq.n	8008eba <__sflush_r+0x9a>
 8008e54:	6d60      	ldr	r0, [r4, #84]	; 0x54
 8008e56:	89a3      	ldrh	r3, [r4, #12]
 8008e58:	075a      	lsls	r2, r3, #29
 8008e5a:	d505      	bpl.n	8008e68 <__sflush_r+0x48>
 8008e5c:	6863      	ldr	r3, [r4, #4]
 8008e5e:	1ac0      	subs	r0, r0, r3
 8008e60:	6b63      	ldr	r3, [r4, #52]	; 0x34
 8008e62:	b10b      	cbz	r3, 8008e68 <__sflush_r+0x48>
 8008e64:	6c23      	ldr	r3, [r4, #64]	; 0x40
 8008e66:	1ac0      	subs	r0, r0, r3
 8008e68:	2300      	movs	r3, #0
 8008e6a:	4602      	mov	r2, r0
 8008e6c:	6ae6      	ldr	r6, [r4, #44]	; 0x2c
 8008e6e:	6a21      	ldr	r1, [r4, #32]
 8008e70:	4628      	mov	r0, r5
 8008e72:	47b0      	blx	r6
 8008e74:	1c43      	adds	r3, r0, #1
 8008e76:	89a3      	ldrh	r3, [r4, #12]
 8008e78:	d106      	bne.n	8008e88 <__sflush_r+0x68>
 8008e7a:	6829      	ldr	r1, [r5, #0]
 8008e7c:	291d      	cmp	r1, #29
 8008e7e:	d848      	bhi.n	8008f12 <__sflush_r+0xf2>
 8008e80:	4a29      	ldr	r2, [pc, #164]	; (8008f28 <__sflush_r+0x108>)
 8008e82:	40ca      	lsrs	r2, r1
 8008e84:	07d6      	lsls	r6, r2, #31
 8008e86:	d544      	bpl.n	8008f12 <__sflush_r+0xf2>
 8008e88:	2200      	movs	r2, #0
 8008e8a:	6062      	str	r2, [r4, #4]
 8008e8c:	04d9      	lsls	r1, r3, #19
 8008e8e:	6922      	ldr	r2, [r4, #16]
 8008e90:	6022      	str	r2, [r4, #0]
 8008e92:	d504      	bpl.n	8008e9e <__sflush_r+0x7e>
 8008e94:	1c42      	adds	r2, r0, #1
 8008e96:	d101      	bne.n	8008e9c <__sflush_r+0x7c>
 8008e98:	682b      	ldr	r3, [r5, #0]
 8008e9a:	b903      	cbnz	r3, 8008e9e <__sflush_r+0x7e>
 8008e9c:	6560      	str	r0, [r4, #84]	; 0x54
 8008e9e:	6b61      	ldr	r1, [r4, #52]	; 0x34
 8008ea0:	602f      	str	r7, [r5, #0]
 8008ea2:	2900      	cmp	r1, #0
 8008ea4:	d0c9      	beq.n	8008e3a <__sflush_r+0x1a>
 8008ea6:	f104 0344 	add.w	r3, r4, #68	; 0x44
 8008eaa:	4299      	cmp	r1, r3
 8008eac:	d002      	beq.n	8008eb4 <__sflush_r+0x94>
 8008eae:	4628      	mov	r0, r5
 8008eb0:	f000 fc94 	bl	80097dc <_free_r>
 8008eb4:	2000      	movs	r0, #0
 8008eb6:	6360      	str	r0, [r4, #52]	; 0x34
 8008eb8:	e7c0      	b.n	8008e3c <__sflush_r+0x1c>
 8008eba:	2301      	movs	r3, #1
 8008ebc:	4628      	mov	r0, r5
 8008ebe:	47b0      	blx	r6
 8008ec0:	1c41      	adds	r1, r0, #1
 8008ec2:	d1c8      	bne.n	8008e56 <__sflush_r+0x36>
 8008ec4:	682b      	ldr	r3, [r5, #0]
 8008ec6:	2b00      	cmp	r3, #0
 8008ec8:	d0c5      	beq.n	8008e56 <__sflush_r+0x36>
 8008eca:	2b1d      	cmp	r3, #29
 8008ecc:	d001      	beq.n	8008ed2 <__sflush_r+0xb2>
 8008ece:	2b16      	cmp	r3, #22
 8008ed0:	d101      	bne.n	8008ed6 <__sflush_r+0xb6>
 8008ed2:	602f      	str	r7, [r5, #0]
 8008ed4:	e7b1      	b.n	8008e3a <__sflush_r+0x1a>
 8008ed6:	89a3      	ldrh	r3, [r4, #12]
 8008ed8:	f043 0340 	orr.w	r3, r3, #64	; 0x40
 8008edc:	81a3      	strh	r3, [r4, #12]
 8008ede:	e7ad      	b.n	8008e3c <__sflush_r+0x1c>
 8008ee0:	690f      	ldr	r7, [r1, #16]
 8008ee2:	2f00      	cmp	r7, #0
 8008ee4:	d0a9      	beq.n	8008e3a <__sflush_r+0x1a>
 8008ee6:	0793      	lsls	r3, r2, #30
 8008ee8:	680e      	ldr	r6, [r1, #0]
 8008eea:	bf08      	it	eq
 8008eec:	694b      	ldreq	r3, [r1, #20]
 8008eee:	600f      	str	r7, [r1, #0]
 8008ef0:	bf18      	it	ne
 8008ef2:	2300      	movne	r3, #0
 8008ef4:	eba6 0807 	sub.w	r8, r6, r7
 8008ef8:	608b      	str	r3, [r1, #8]
 8008efa:	f1b8 0f00 	cmp.w	r8, #0
 8008efe:	dd9c      	ble.n	8008e3a <__sflush_r+0x1a>
 8008f00:	4643      	mov	r3, r8
 8008f02:	463a      	mov	r2, r7
 8008f04:	6a21      	ldr	r1, [r4, #32]
 8008f06:	6aa6      	ldr	r6, [r4, #40]	; 0x28
 8008f08:	4628      	mov	r0, r5
 8008f0a:	47b0      	blx	r6
 8008f0c:	2800      	cmp	r0, #0
 8008f0e:	dc06      	bgt.n	8008f1e <__sflush_r+0xfe>
 8008f10:	89a3      	ldrh	r3, [r4, #12]
 8008f12:	f043 0340 	orr.w	r3, r3, #64	; 0x40
 8008f16:	81a3      	strh	r3, [r4, #12]
 8008f18:	f04f 30ff 	mov.w	r0, #4294967295	; 0xffffffff
 8008f1c:	e78e      	b.n	8008e3c <__sflush_r+0x1c>
 8008f1e:	4407      	add	r7, r0
 8008f20:	eba8 0800 	sub.w	r8, r8, r0
 8008f24:	e7e9      	b.n	8008efa <__sflush_r+0xda>
 8008f26:	bf00      	nop
 8008f28:	20400001 	.word	0x20400001

08008f2c <_fflush_r>:
 8008f2c:	b538      	push	{r3, r4, r5, lr}
 8008f2e:	690b      	ldr	r3, [r1, #16]
 8008f30:	4605      	mov	r5, r0
 8008f32:	460c      	mov	r4, r1
 8008f34:	b1db      	cbz	r3, 8008f6e <_fflush_r+0x42>
 8008f36:	b118      	cbz	r0, 8008f40 <_fflush_r+0x14>
 8008f38:	6983      	ldr	r3, [r0, #24]
 8008f3a:	b90b      	cbnz	r3, 8008f40 <_fflush_r+0x14>
 8008f3c:	f000 f860 	bl	8009000 <__sinit>
 8008f40:	4b0c      	ldr	r3, [pc, #48]	; (8008f74 <_fflush_r+0x48>)
 8008f42:	429c      	cmp	r4, r3
 8008f44:	d109      	bne.n	8008f5a <_fflush_r+0x2e>
 8008f46:	686c      	ldr	r4, [r5, #4]
 8008f48:	f9b4 300c 	ldrsh.w	r3, [r4, #12]
 8008f4c:	b17b      	cbz	r3, 8008f6e <_fflush_r+0x42>
 8008f4e:	4621      	mov	r1, r4
 8008f50:	4628      	mov	r0, r5
 8008f52:	e8bd 4038 	ldmia.w	sp!, {r3, r4, r5, lr}
 8008f56:	f7ff bf63 	b.w	8008e20 <__sflush_r>
 8008f5a:	4b07      	ldr	r3, [pc, #28]	; (8008f78 <_fflush_r+0x4c>)
 8008f5c:	429c      	cmp	r4, r3
 8008f5e:	d101      	bne.n	8008f64 <_fflush_r+0x38>
 8008f60:	68ac      	ldr	r4, [r5, #8]
 8008f62:	e7f1      	b.n	8008f48 <_fflush_r+0x1c>
 8008f64:	4b05      	ldr	r3, [pc, #20]	; (8008f7c <_fflush_r+0x50>)
 8008f66:	429c      	cmp	r4, r3
 8008f68:	bf08      	it	eq
 8008f6a:	68ec      	ldreq	r4, [r5, #12]
 8008f6c:	e7ec      	b.n	8008f48 <_fflush_r+0x1c>
 8008f6e:	2000      	movs	r0, #0
 8008f70:	bd38      	pop	{r3, r4, r5, pc}
 8008f72:	bf00      	nop
 8008f74:	0800c368 	.word	0x0800c368
 8008f78:	0800c388 	.word	0x0800c388
 8008f7c:	0800c348 	.word	0x0800c348

08008f80 <std>:
 8008f80:	2300      	movs	r3, #0
 8008f82:	b510      	push	{r4, lr}
 8008f84:	4604      	mov	r4, r0
 8008f86:	e9c0 3300 	strd	r3, r3, [r0]
 8008f8a:	6083      	str	r3, [r0, #8]
 8008f8c:	8181      	strh	r1, [r0, #12]
 8008f8e:	6643      	str	r3, [r0, #100]	; 0x64
 8008f90:	81c2      	strh	r2, [r0, #14]
 8008f92:	e9c0 3304 	strd	r3, r3, [r0, #16]
 8008f96:	6183      	str	r3, [r0, #24]
 8008f98:	4619      	mov	r1, r3
 8008f9a:	2208      	movs	r2, #8
 8008f9c:	305c      	adds	r0, #92	; 0x5c
 8008f9e:	f7fe fb3a 	bl	8007616 <memset>
 8008fa2:	4b05      	ldr	r3, [pc, #20]	; (8008fb8 <std+0x38>)
 8008fa4:	6263      	str	r3, [r4, #36]	; 0x24
 8008fa6:	4b05      	ldr	r3, [pc, #20]	; (8008fbc <std+0x3c>)
 8008fa8:	62a3      	str	r3, [r4, #40]	; 0x28
 8008faa:	4b05      	ldr	r3, [pc, #20]	; (8008fc0 <std+0x40>)
 8008fac:	62e3      	str	r3, [r4, #44]	; 0x2c
 8008fae:	4b05      	ldr	r3, [pc, #20]	; (8008fc4 <std+0x44>)
 8008fb0:	6224      	str	r4, [r4, #32]
 8008fb2:	6323      	str	r3, [r4, #48]	; 0x30
 8008fb4:	bd10      	pop	{r4, pc}
 8008fb6:	bf00      	nop
 8008fb8:	08009e71 	.word	0x08009e71
 8008fbc:	08009e93 	.word	0x08009e93
 8008fc0:	08009ecb 	.word	0x08009ecb
 8008fc4:	08009eef 	.word	0x08009eef

08008fc8 <_cleanup_r>:
 8008fc8:	4901      	ldr	r1, [pc, #4]	; (8008fd0 <_cleanup_r+0x8>)
 8008fca:	f000 b885 	b.w	80090d8 <_fwalk_reent>
 8008fce:	bf00      	nop
 8008fd0:	08008f2d 	.word	0x08008f2d

08008fd4 <__sfmoreglue>:
 8008fd4:	b570      	push	{r4, r5, r6, lr}
 8008fd6:	1e4a      	subs	r2, r1, #1
 8008fd8:	2568      	movs	r5, #104	; 0x68
 8008fda:	4355      	muls	r5, r2
 8008fdc:	460e      	mov	r6, r1
 8008fde:	f105 0174 	add.w	r1, r5, #116	; 0x74
 8008fe2:	f000 fc49 	bl	8009878 <_malloc_r>
 8008fe6:	4604      	mov	r4, r0
 8008fe8:	b140      	cbz	r0, 8008ffc <__sfmoreglue+0x28>
 8008fea:	2100      	movs	r1, #0
 8008fec:	e9c0 1600 	strd	r1, r6, [r0]
 8008ff0:	300c      	adds	r0, #12
 8008ff2:	60a0      	str	r0, [r4, #8]
 8008ff4:	f105 0268 	add.w	r2, r5, #104	; 0x68
 8008ff8:	f7fe fb0d 	bl	8007616 <memset>
 8008ffc:	4620      	mov	r0, r4
 8008ffe:	bd70      	pop	{r4, r5, r6, pc}

08009000 <__sinit>:
 8009000:	6983      	ldr	r3, [r0, #24]
 8009002:	b510      	push	{r4, lr}
 8009004:	4604      	mov	r4, r0
 8009006:	bb33      	cbnz	r3, 8009056 <__sinit+0x56>
 8009008:	e9c0 3312 	strd	r3, r3, [r0, #72]	; 0x48
 800900c:	6503      	str	r3, [r0, #80]	; 0x50
 800900e:	4b12      	ldr	r3, [pc, #72]	; (8009058 <__sinit+0x58>)
 8009010:	4a12      	ldr	r2, [pc, #72]	; (800905c <__sinit+0x5c>)
 8009012:	681b      	ldr	r3, [r3, #0]
 8009014:	6282      	str	r2, [r0, #40]	; 0x28
 8009016:	4298      	cmp	r0, r3
 8009018:	bf04      	itt	eq
 800901a:	2301      	moveq	r3, #1
 800901c:	6183      	streq	r3, [r0, #24]
 800901e:	f000 f81f 	bl	8009060 <__sfp>
 8009022:	6060      	str	r0, [r4, #4]
 8009024:	4620      	mov	r0, r4
 8009026:	f000 f81b 	bl	8009060 <__sfp>
 800902a:	60a0      	str	r0, [r4, #8]
 800902c:	4620      	mov	r0, r4
 800902e:	f000 f817 	bl	8009060 <__sfp>
 8009032:	2200      	movs	r2, #0
 8009034:	60e0      	str	r0, [r4, #12]
 8009036:	2104      	movs	r1, #4
 8009038:	6860      	ldr	r0, [r4, #4]
 800903a:	f7ff ffa1 	bl	8008f80 <std>
 800903e:	2201      	movs	r2, #1
 8009040:	2109      	movs	r1, #9
 8009042:	68a0      	ldr	r0, [r4, #8]
 8009044:	f7ff ff9c 	bl	8008f80 <std>
 8009048:	2202      	movs	r2, #2
 800904a:	2112      	movs	r1, #18
 800904c:	68e0      	ldr	r0, [r4, #12]
 800904e:	f7ff ff97 	bl	8008f80 <std>
 8009052:	2301      	movs	r3, #1
 8009054:	61a3      	str	r3, [r4, #24]
 8009056:	bd10      	pop	{r4, pc}
 8009058:	0800c300 	.word	0x0800c300
 800905c:	08008fc9 	.word	0x08008fc9

08009060 <__sfp>:
 8009060:	b5f8      	push	{r3, r4, r5, r6, r7, lr}
 8009062:	4b1b      	ldr	r3, [pc, #108]	; (80090d0 <__sfp+0x70>)
 8009064:	681e      	ldr	r6, [r3, #0]
 8009066:	69b3      	ldr	r3, [r6, #24]
 8009068:	4607      	mov	r7, r0
 800906a:	b913      	cbnz	r3, 8009072 <__sfp+0x12>
 800906c:	4630      	mov	r0, r6
 800906e:	f7ff ffc7 	bl	8009000 <__sinit>
 8009072:	3648      	adds	r6, #72	; 0x48
 8009074:	e9d6 3401 	ldrd	r3, r4, [r6, #4]
 8009078:	3b01      	subs	r3, #1
 800907a:	d503      	bpl.n	8009084 <__sfp+0x24>
 800907c:	6833      	ldr	r3, [r6, #0]
 800907e:	b133      	cbz	r3, 800908e <__sfp+0x2e>
 8009080:	6836      	ldr	r6, [r6, #0]
 8009082:	e7f7      	b.n	8009074 <__sfp+0x14>
 8009084:	f9b4 500c 	ldrsh.w	r5, [r4, #12]
 8009088:	b16d      	cbz	r5, 80090a6 <__sfp+0x46>
 800908a:	3468      	adds	r4, #104	; 0x68
 800908c:	e7f4      	b.n	8009078 <__sfp+0x18>
 800908e:	2104      	movs	r1, #4
 8009090:	4638      	mov	r0, r7
 8009092:	f7ff ff9f 	bl	8008fd4 <__sfmoreglue>
 8009096:	6030      	str	r0, [r6, #0]
 8009098:	2800      	cmp	r0, #0
 800909a:	d1f1      	bne.n	8009080 <__sfp+0x20>
 800909c:	230c      	movs	r3, #12
 800909e:	603b      	str	r3, [r7, #0]
 80090a0:	4604      	mov	r4, r0
 80090a2:	4620      	mov	r0, r4
 80090a4:	bdf8      	pop	{r3, r4, r5, r6, r7, pc}
 80090a6:	4b0b      	ldr	r3, [pc, #44]	; (80090d4 <__sfp+0x74>)
 80090a8:	6665      	str	r5, [r4, #100]	; 0x64
 80090aa:	e9c4 5500 	strd	r5, r5, [r4]
 80090ae:	60a5      	str	r5, [r4, #8]
 80090b0:	e9c4 3503 	strd	r3, r5, [r4, #12]
 80090b4:	e9c4 5505 	strd	r5, r5, [r4, #20]
 80090b8:	2208      	movs	r2, #8
 80090ba:	4629      	mov	r1, r5
 80090bc:	f104 005c 	add.w	r0, r4, #92	; 0x5c
 80090c0:	f7fe faa9 	bl	8007616 <memset>
 80090c4:	e9c4 550d 	strd	r5, r5, [r4, #52]	; 0x34
 80090c8:	e9c4 5512 	strd	r5, r5, [r4, #72]	; 0x48
 80090cc:	e7e9      	b.n	80090a2 <__sfp+0x42>
 80090ce:	bf00      	nop
 80090d0:	0800c300 	.word	0x0800c300
 80090d4:	ffff0001 	.word	0xffff0001

080090d8 <_fwalk_reent>:
 80090d8:	e92d 43f8 	stmdb	sp!, {r3, r4, r5, r6, r7, r8, r9, lr}
 80090dc:	4680      	mov	r8, r0
 80090de:	4689      	mov	r9, r1
 80090e0:	f100 0448 	add.w	r4, r0, #72	; 0x48
 80090e4:	2600      	movs	r6, #0
 80090e6:	b914      	cbnz	r4, 80090ee <_fwalk_reent+0x16>
 80090e8:	4630      	mov	r0, r6
 80090ea:	e8bd 83f8 	ldmia.w	sp!, {r3, r4, r5, r6, r7, r8, r9, pc}
 80090ee:	e9d4 7501 	ldrd	r7, r5, [r4, #4]
 80090f2:	3f01      	subs	r7, #1
 80090f4:	d501      	bpl.n	80090fa <_fwalk_reent+0x22>
 80090f6:	6824      	ldr	r4, [r4, #0]
 80090f8:	e7f5      	b.n	80090e6 <_fwalk_reent+0xe>
 80090fa:	89ab      	ldrh	r3, [r5, #12]
 80090fc:	2b01      	cmp	r3, #1
 80090fe:	d907      	bls.n	8009110 <_fwalk_reent+0x38>
 8009100:	f9b5 300e 	ldrsh.w	r3, [r5, #14]
 8009104:	3301      	adds	r3, #1
 8009106:	d003      	beq.n	8009110 <_fwalk_reent+0x38>
 8009108:	4629      	mov	r1, r5
 800910a:	4640      	mov	r0, r8
 800910c:	47c8      	blx	r9
 800910e:	4306      	orrs	r6, r0
 8009110:	3568      	adds	r5, #104	; 0x68
 8009112:	e7ee      	b.n	80090f2 <_fwalk_reent+0x1a>

08009114 <_localeconv_r>:
 8009114:	4b04      	ldr	r3, [pc, #16]	; (8009128 <_localeconv_r+0x14>)
 8009116:	681b      	ldr	r3, [r3, #0]
 8009118:	6a18      	ldr	r0, [r3, #32]
 800911a:	4b04      	ldr	r3, [pc, #16]	; (800912c <_localeconv_r+0x18>)
 800911c:	2800      	cmp	r0, #0
 800911e:	bf08      	it	eq
 8009120:	4618      	moveq	r0, r3
 8009122:	30f0      	adds	r0, #240	; 0xf0
 8009124:	4770      	bx	lr
 8009126:	bf00      	nop
 8009128:	20000094 	.word	0x20000094
 800912c:	200000f8 	.word	0x200000f8

08009130 <__swhatbuf_r>:
 8009130:	b570      	push	{r4, r5, r6, lr}
 8009132:	460e      	mov	r6, r1
 8009134:	f9b1 100e 	ldrsh.w	r1, [r1, #14]
 8009138:	2900      	cmp	r1, #0
 800913a:	b096      	sub	sp, #88	; 0x58
 800913c:	4614      	mov	r4, r2
 800913e:	461d      	mov	r5, r3
 8009140:	da07      	bge.n	8009152 <__swhatbuf_r+0x22>
 8009142:	2300      	movs	r3, #0
 8009144:	602b      	str	r3, [r5, #0]
 8009146:	89b3      	ldrh	r3, [r6, #12]
 8009148:	061a      	lsls	r2, r3, #24
 800914a:	d410      	bmi.n	800916e <__swhatbuf_r+0x3e>
 800914c:	f44f 6380 	mov.w	r3, #1024	; 0x400
 8009150:	e00e      	b.n	8009170 <__swhatbuf_r+0x40>
 8009152:	466a      	mov	r2, sp
 8009154:	f000 fef2 	bl	8009f3c <_fstat_r>
 8009158:	2800      	cmp	r0, #0
 800915a:	dbf2      	blt.n	8009142 <__swhatbuf_r+0x12>
 800915c:	9a01      	ldr	r2, [sp, #4]
 800915e:	f402 4270 	and.w	r2, r2, #61440	; 0xf000
 8009162:	f5a2 5300 	sub.w	r3, r2, #8192	; 0x2000
 8009166:	425a      	negs	r2, r3
 8009168:	415a      	adcs	r2, r3
 800916a:	602a      	str	r2, [r5, #0]
 800916c:	e7ee      	b.n	800914c <__swhatbuf_r+0x1c>
 800916e:	2340      	movs	r3, #64	; 0x40
 8009170:	2000      	movs	r0, #0
 8009172:	6023      	str	r3, [r4, #0]
 8009174:	b016      	add	sp, #88	; 0x58
 8009176:	bd70      	pop	{r4, r5, r6, pc}

08009178 <__smakebuf_r>:
 8009178:	898b      	ldrh	r3, [r1, #12]
 800917a:	b573      	push	{r0, r1, r4, r5, r6, lr}
 800917c:	079d      	lsls	r5, r3, #30
 800917e:	4606      	mov	r6, r0
 8009180:	460c      	mov	r4, r1
 8009182:	d507      	bpl.n	8009194 <__smakebuf_r+0x1c>
 8009184:	f104 0347 	add.w	r3, r4, #71	; 0x47
 8009188:	6023      	str	r3, [r4, #0]
 800918a:	6123      	str	r3, [r4, #16]
 800918c:	2301      	movs	r3, #1
 800918e:	6163      	str	r3, [r4, #20]
 8009190:	b002      	add	sp, #8
 8009192:	bd70      	pop	{r4, r5, r6, pc}
 8009194:	ab01      	add	r3, sp, #4
 8009196:	466a      	mov	r2, sp
 8009198:	f7ff ffca 	bl	8009130 <__swhatbuf_r>
 800919c:	9900      	ldr	r1, [sp, #0]
 800919e:	4605      	mov	r5, r0
 80091a0:	4630      	mov	r0, r6
 80091a2:	f000 fb69 	bl	8009878 <_malloc_r>
 80091a6:	b948      	cbnz	r0, 80091bc <__smakebuf_r+0x44>
 80091a8:	f9b4 300c 	ldrsh.w	r3, [r4, #12]
 80091ac:	059a      	lsls	r2, r3, #22
 80091ae:	d4ef      	bmi.n	8009190 <__smakebuf_r+0x18>
 80091b0:	f023 0303 	bic.w	r3, r3, #3
 80091b4:	f043 0302 	orr.w	r3, r3, #2
 80091b8:	81a3      	strh	r3, [r4, #12]
 80091ba:	e7e3      	b.n	8009184 <__smakebuf_r+0xc>
 80091bc:	4b0d      	ldr	r3, [pc, #52]	; (80091f4 <__smakebuf_r+0x7c>)
 80091be:	62b3      	str	r3, [r6, #40]	; 0x28
 80091c0:	89a3      	ldrh	r3, [r4, #12]
 80091c2:	6020      	str	r0, [r4, #0]
 80091c4:	f043 0380 	orr.w	r3, r3, #128	; 0x80
 80091c8:	81a3      	strh	r3, [r4, #12]
 80091ca:	9b00      	ldr	r3, [sp, #0]
 80091cc:	6163      	str	r3, [r4, #20]
 80091ce:	9b01      	ldr	r3, [sp, #4]
 80091d0:	6120      	str	r0, [r4, #16]
 80091d2:	b15b      	cbz	r3, 80091ec <__smakebuf_r+0x74>
 80091d4:	f9b4 100e 	ldrsh.w	r1, [r4, #14]
 80091d8:	4630      	mov	r0, r6
 80091da:	f000 fec1 	bl	8009f60 <_isatty_r>
 80091de:	b128      	cbz	r0, 80091ec <__smakebuf_r+0x74>
 80091e0:	89a3      	ldrh	r3, [r4, #12]
 80091e2:	f023 0303 	bic.w	r3, r3, #3
 80091e6:	f043 0301 	orr.w	r3, r3, #1
 80091ea:	81a3      	strh	r3, [r4, #12]
 80091ec:	89a3      	ldrh	r3, [r4, #12]
 80091ee:	431d      	orrs	r5, r3
 80091f0:	81a5      	strh	r5, [r4, #12]
 80091f2:	e7cd      	b.n	8009190 <__smakebuf_r+0x18>
 80091f4:	08008fc9 	.word	0x08008fc9

080091f8 <malloc>:
 80091f8:	4b02      	ldr	r3, [pc, #8]	; (8009204 <malloc+0xc>)
 80091fa:	4601      	mov	r1, r0
 80091fc:	6818      	ldr	r0, [r3, #0]
 80091fe:	f000 bb3b 	b.w	8009878 <_malloc_r>
 8009202:	bf00      	nop
 8009204:	20000094 	.word	0x20000094

08009208 <_Balloc>:
 8009208:	b570      	push	{r4, r5, r6, lr}
 800920a:	6a45      	ldr	r5, [r0, #36]	; 0x24
 800920c:	4604      	mov	r4, r0
 800920e:	460e      	mov	r6, r1
 8009210:	b93d      	cbnz	r5, 8009222 <_Balloc+0x1a>
 8009212:	2010      	movs	r0, #16
 8009214:	f7ff fff0 	bl	80091f8 <malloc>
 8009218:	6260      	str	r0, [r4, #36]	; 0x24
 800921a:	e9c0 5501 	strd	r5, r5, [r0, #4]
 800921e:	6005      	str	r5, [r0, #0]
 8009220:	60c5      	str	r5, [r0, #12]
 8009222:	6a65      	ldr	r5, [r4, #36]	; 0x24
 8009224:	68eb      	ldr	r3, [r5, #12]
 8009226:	b183      	cbz	r3, 800924a <_Balloc+0x42>
 8009228:	6a63      	ldr	r3, [r4, #36]	; 0x24
 800922a:	68db      	ldr	r3, [r3, #12]
 800922c:	f853 0026 	ldr.w	r0, [r3, r6, lsl #2]
 8009230:	b9b8      	cbnz	r0, 8009262 <_Balloc+0x5a>
 8009232:	2101      	movs	r1, #1
 8009234:	fa01 f506 	lsl.w	r5, r1, r6
 8009238:	1d6a      	adds	r2, r5, #5
 800923a:	0092      	lsls	r2, r2, #2
 800923c:	4620      	mov	r0, r4
 800923e:	f000 fabf 	bl	80097c0 <_calloc_r>
 8009242:	b160      	cbz	r0, 800925e <_Balloc+0x56>
 8009244:	e9c0 6501 	strd	r6, r5, [r0, #4]
 8009248:	e00e      	b.n	8009268 <_Balloc+0x60>
 800924a:	2221      	movs	r2, #33	; 0x21
 800924c:	2104      	movs	r1, #4
 800924e:	4620      	mov	r0, r4
 8009250:	f000 fab6 	bl	80097c0 <_calloc_r>
 8009254:	6a63      	ldr	r3, [r4, #36]	; 0x24
 8009256:	60e8      	str	r0, [r5, #12]
 8009258:	68db      	ldr	r3, [r3, #12]
 800925a:	2b00      	cmp	r3, #0
 800925c:	d1e4      	bne.n	8009228 <_Balloc+0x20>
 800925e:	2000      	movs	r0, #0
 8009260:	bd70      	pop	{r4, r5, r6, pc}
 8009262:	6802      	ldr	r2, [r0, #0]
 8009264:	f843 2026 	str.w	r2, [r3, r6, lsl #2]
 8009268:	2300      	movs	r3, #0
 800926a:	e9c0 3303 	strd	r3, r3, [r0, #12]
 800926e:	e7f7      	b.n	8009260 <_Balloc+0x58>

08009270 <_Bfree>:
 8009270:	b570      	push	{r4, r5, r6, lr}
 8009272:	6a44      	ldr	r4, [r0, #36]	; 0x24
 8009274:	4606      	mov	r6, r0
 8009276:	460d      	mov	r5, r1
 8009278:	b93c      	cbnz	r4, 800928a <_Bfree+0x1a>
 800927a:	2010      	movs	r0, #16
 800927c:	f7ff ffbc 	bl	80091f8 <malloc>
 8009280:	6270      	str	r0, [r6, #36]	; 0x24
 8009282:	e9c0 4401 	strd	r4, r4, [r0, #4]
 8009286:	6004      	str	r4, [r0, #0]
 8009288:	60c4      	str	r4, [r0, #12]
 800928a:	b13d      	cbz	r5, 800929c <_Bfree+0x2c>
 800928c:	6a73      	ldr	r3, [r6, #36]	; 0x24
 800928e:	686a      	ldr	r2, [r5, #4]
 8009290:	68db      	ldr	r3, [r3, #12]
 8009292:	f853 1022 	ldr.w	r1, [r3, r2, lsl #2]
 8009296:	6029      	str	r1, [r5, #0]
 8009298:	f843 5022 	str.w	r5, [r3, r2, lsl #2]
 800929c:	bd70      	pop	{r4, r5, r6, pc}

0800929e <__multadd>:
 800929e:	e92d 41f0 	stmdb	sp!, {r4, r5, r6, r7, r8, lr}
 80092a2:	690d      	ldr	r5, [r1, #16]
 80092a4:	461f      	mov	r7, r3
 80092a6:	4606      	mov	r6, r0
 80092a8:	460c      	mov	r4, r1
 80092aa:	f101 0c14 	add.w	ip, r1, #20
 80092ae:	2300      	movs	r3, #0
 80092b0:	f8dc 0000 	ldr.w	r0, [ip]
 80092b4:	b281      	uxth	r1, r0
 80092b6:	fb02 7101 	mla	r1, r2, r1, r7
 80092ba:	0c0f      	lsrs	r7, r1, #16
 80092bc:	0c00      	lsrs	r0, r0, #16
 80092be:	fb02 7000 	mla	r0, r2, r0, r7
 80092c2:	b289      	uxth	r1, r1
 80092c4:	3301      	adds	r3, #1
 80092c6:	eb01 4100 	add.w	r1, r1, r0, lsl #16
 80092ca:	429d      	cmp	r5, r3
 80092cc:	ea4f 4710 	mov.w	r7, r0, lsr #16
 80092d0:	f84c 1b04 	str.w	r1, [ip], #4
 80092d4:	dcec      	bgt.n	80092b0 <__multadd+0x12>
 80092d6:	b1d7      	cbz	r7, 800930e <__multadd+0x70>
 80092d8:	68a3      	ldr	r3, [r4, #8]
 80092da:	42ab      	cmp	r3, r5
 80092dc:	dc12      	bgt.n	8009304 <__multadd+0x66>
 80092de:	6861      	ldr	r1, [r4, #4]
 80092e0:	4630      	mov	r0, r6
 80092e2:	3101      	adds	r1, #1
 80092e4:	f7ff ff90 	bl	8009208 <_Balloc>
 80092e8:	6922      	ldr	r2, [r4, #16]
 80092ea:	3202      	adds	r2, #2
 80092ec:	f104 010c 	add.w	r1, r4, #12
 80092f0:	4680      	mov	r8, r0
 80092f2:	0092      	lsls	r2, r2, #2
 80092f4:	300c      	adds	r0, #12
 80092f6:	f7fe f983 	bl	8007600 <memcpy>
 80092fa:	4621      	mov	r1, r4
 80092fc:	4630      	mov	r0, r6
 80092fe:	f7ff ffb7 	bl	8009270 <_Bfree>
 8009302:	4644      	mov	r4, r8
 8009304:	eb04 0385 	add.w	r3, r4, r5, lsl #2
 8009308:	3501      	adds	r5, #1
 800930a:	615f      	str	r7, [r3, #20]
 800930c:	6125      	str	r5, [r4, #16]
 800930e:	4620      	mov	r0, r4
 8009310:	e8bd 81f0 	ldmia.w	sp!, {r4, r5, r6, r7, r8, pc}

08009314 <__hi0bits>:
 8009314:	0c02      	lsrs	r2, r0, #16
 8009316:	0412      	lsls	r2, r2, #16
 8009318:	4603      	mov	r3, r0
 800931a:	b9b2      	cbnz	r2, 800934a <__hi0bits+0x36>
 800931c:	0403      	lsls	r3, r0, #16
 800931e:	2010      	movs	r0, #16
 8009320:	f013 4f7f 	tst.w	r3, #4278190080	; 0xff000000
 8009324:	bf04      	itt	eq
 8009326:	021b      	lsleq	r3, r3, #8
 8009328:	3008      	addeq	r0, #8
 800932a:	f013 4f70 	tst.w	r3, #4026531840	; 0xf0000000
 800932e:	bf04      	itt	eq
 8009330:	011b      	lsleq	r3, r3, #4
 8009332:	3004      	addeq	r0, #4
 8009334:	f013 4f40 	tst.w	r3, #3221225472	; 0xc0000000
 8009338:	bf04      	itt	eq
 800933a:	009b      	lsleq	r3, r3, #2
 800933c:	3002      	addeq	r0, #2
 800933e:	2b00      	cmp	r3, #0
 8009340:	db06      	blt.n	8009350 <__hi0bits+0x3c>
 8009342:	005b      	lsls	r3, r3, #1
 8009344:	d503      	bpl.n	800934e <__hi0bits+0x3a>
 8009346:	3001      	adds	r0, #1
 8009348:	4770      	bx	lr
 800934a:	2000      	movs	r0, #0
 800934c:	e7e8      	b.n	8009320 <__hi0bits+0xc>
 800934e:	2020      	movs	r0, #32
 8009350:	4770      	bx	lr

08009352 <__lo0bits>:
 8009352:	6803      	ldr	r3, [r0, #0]
 8009354:	f013 0207 	ands.w	r2, r3, #7
 8009358:	4601      	mov	r1, r0
 800935a:	d00b      	beq.n	8009374 <__lo0bits+0x22>
 800935c:	07da      	lsls	r2, r3, #31
 800935e:	d423      	bmi.n	80093a8 <__lo0bits+0x56>
 8009360:	0798      	lsls	r0, r3, #30
 8009362:	bf49      	itett	mi
 8009364:	085b      	lsrmi	r3, r3, #1
 8009366:	089b      	lsrpl	r3, r3, #2
 8009368:	2001      	movmi	r0, #1
 800936a:	600b      	strmi	r3, [r1, #0]
 800936c:	bf5c      	itt	pl
 800936e:	600b      	strpl	r3, [r1, #0]
 8009370:	2002      	movpl	r0, #2
 8009372:	4770      	bx	lr
 8009374:	b298      	uxth	r0, r3
 8009376:	b9a8      	cbnz	r0, 80093a4 <__lo0bits+0x52>
 8009378:	0c1b      	lsrs	r3, r3, #16
 800937a:	2010      	movs	r0, #16
 800937c:	f013 0fff 	tst.w	r3, #255	; 0xff
 8009380:	bf04      	itt	eq
 8009382:	0a1b      	lsreq	r3, r3, #8
 8009384:	3008      	addeq	r0, #8
 8009386:	071a      	lsls	r2, r3, #28
 8009388:	bf04      	itt	eq
 800938a:	091b      	lsreq	r3, r3, #4
 800938c:	3004      	addeq	r0, #4
 800938e:	079a      	lsls	r2, r3, #30
 8009390:	bf04      	itt	eq
 8009392:	089b      	lsreq	r3, r3, #2
 8009394:	3002      	addeq	r0, #2
 8009396:	07da      	lsls	r2, r3, #31
 8009398:	d402      	bmi.n	80093a0 <__lo0bits+0x4e>
 800939a:	085b      	lsrs	r3, r3, #1
 800939c:	d006      	beq.n	80093ac <__lo0bits+0x5a>
 800939e:	3001      	adds	r0, #1
 80093a0:	600b      	str	r3, [r1, #0]
 80093a2:	4770      	bx	lr
 80093a4:	4610      	mov	r0, r2
 80093a6:	e7e9      	b.n	800937c <__lo0bits+0x2a>
 80093a8:	2000      	movs	r0, #0
 80093aa:	4770      	bx	lr
 80093ac:	2020      	movs	r0, #32
 80093ae:	4770      	bx	lr

080093b0 <__i2b>:
 80093b0:	b510      	push	{r4, lr}
 80093b2:	460c      	mov	r4, r1
 80093b4:	2101      	movs	r1, #1
 80093b6:	f7ff ff27 	bl	8009208 <_Balloc>
 80093ba:	2201      	movs	r2, #1
 80093bc:	6144      	str	r4, [r0, #20]
 80093be:	6102      	str	r2, [r0, #16]
 80093c0:	bd10      	pop	{r4, pc}

080093c2 <__multiply>:
 80093c2:	e92d 4ff7 	stmdb	sp!, {r0, r1, r2, r4, r5, r6, r7, r8, r9, sl, fp, lr}
 80093c6:	4614      	mov	r4, r2
 80093c8:	690a      	ldr	r2, [r1, #16]
 80093ca:	6923      	ldr	r3, [r4, #16]
 80093cc:	429a      	cmp	r2, r3
 80093ce:	bfb8      	it	lt
 80093d0:	460b      	movlt	r3, r1
 80093d2:	4688      	mov	r8, r1
 80093d4:	bfbc      	itt	lt
 80093d6:	46a0      	movlt	r8, r4
 80093d8:	461c      	movlt	r4, r3
 80093da:	f8d8 7010 	ldr.w	r7, [r8, #16]
 80093de:	f8d4 9010 	ldr.w	r9, [r4, #16]
 80093e2:	f8d8 3008 	ldr.w	r3, [r8, #8]
 80093e6:	f8d8 1004 	ldr.w	r1, [r8, #4]
 80093ea:	eb07 0609 	add.w	r6, r7, r9
 80093ee:	42b3      	cmp	r3, r6
 80093f0:	bfb8      	it	lt
 80093f2:	3101      	addlt	r1, #1
 80093f4:	f7ff ff08 	bl	8009208 <_Balloc>
 80093f8:	f100 0514 	add.w	r5, r0, #20
 80093fc:	eb05 0e86 	add.w	lr, r5, r6, lsl #2
 8009400:	462b      	mov	r3, r5
 8009402:	2200      	movs	r2, #0
 8009404:	4573      	cmp	r3, lr
 8009406:	d316      	bcc.n	8009436 <__multiply+0x74>
 8009408:	f104 0214 	add.w	r2, r4, #20
 800940c:	f108 0114 	add.w	r1, r8, #20
 8009410:	eb02 0389 	add.w	r3, r2, r9, lsl #2
 8009414:	eb01 0787 	add.w	r7, r1, r7, lsl #2
 8009418:	9300      	str	r3, [sp, #0]
 800941a:	9b00      	ldr	r3, [sp, #0]
 800941c:	9201      	str	r2, [sp, #4]
 800941e:	4293      	cmp	r3, r2
 8009420:	d80c      	bhi.n	800943c <__multiply+0x7a>
 8009422:	2e00      	cmp	r6, #0
 8009424:	dd03      	ble.n	800942e <__multiply+0x6c>
 8009426:	f85e 3d04 	ldr.w	r3, [lr, #-4]!
 800942a:	2b00      	cmp	r3, #0
 800942c:	d05d      	beq.n	80094ea <__multiply+0x128>
 800942e:	6106      	str	r6, [r0, #16]
 8009430:	b003      	add	sp, #12
 8009432:	e8bd 8ff0 	ldmia.w	sp!, {r4, r5, r6, r7, r8, r9, sl, fp, pc}
 8009436:	f843 2b04 	str.w	r2, [r3], #4
 800943a:	e7e3      	b.n	8009404 <__multiply+0x42>
 800943c:	f8b2 b000 	ldrh.w	fp, [r2]
 8009440:	f1bb 0f00 	cmp.w	fp, #0
 8009444:	d023      	beq.n	800948e <__multiply+0xcc>
 8009446:	4689      	mov	r9, r1
 8009448:	46ac      	mov	ip, r5
 800944a:	f04f 0800 	mov.w	r8, #0
 800944e:	f859 4b04 	ldr.w	r4, [r9], #4
 8009452:	f8dc a000 	ldr.w	sl, [ip]
 8009456:	b2a3      	uxth	r3, r4
 8009458:	fa1f fa8a 	uxth.w	sl, sl
 800945c:	fb0b a303 	mla	r3, fp, r3, sl
 8009460:	ea4f 4a14 	mov.w	sl, r4, lsr #16
 8009464:	f8dc 4000 	ldr.w	r4, [ip]
 8009468:	4443      	add	r3, r8
 800946a:	ea4f 4814 	mov.w	r8, r4, lsr #16
 800946e:	fb0b 840a 	mla	r4, fp, sl, r8
 8009472:	eb04 4413 	add.w	r4, r4, r3, lsr #16
 8009476:	46e2      	mov	sl, ip
 8009478:	b29b      	uxth	r3, r3
 800947a:	ea43 4304 	orr.w	r3, r3, r4, lsl #16
 800947e:	454f      	cmp	r7, r9
 8009480:	ea4f 4814 	mov.w	r8, r4, lsr #16
 8009484:	f84a 3b04 	str.w	r3, [sl], #4
 8009488:	d82b      	bhi.n	80094e2 <__multiply+0x120>
 800948a:	f8cc 8004 	str.w	r8, [ip, #4]
 800948e:	9b01      	ldr	r3, [sp, #4]
 8009490:	f8b3 a002 	ldrh.w	sl, [r3, #2]
 8009494:	3204      	adds	r2, #4
 8009496:	f1ba 0f00 	cmp.w	sl, #0
 800949a:	d020      	beq.n	80094de <__multiply+0x11c>
 800949c:	682b      	ldr	r3, [r5, #0]
 800949e:	4689      	mov	r9, r1
 80094a0:	46a8      	mov	r8, r5
 80094a2:	f04f 0b00 	mov.w	fp, #0
 80094a6:	f8b9 c000 	ldrh.w	ip, [r9]
 80094aa:	f8b8 4002 	ldrh.w	r4, [r8, #2]
 80094ae:	fb0a 440c 	mla	r4, sl, ip, r4
 80094b2:	445c      	add	r4, fp
 80094b4:	46c4      	mov	ip, r8
 80094b6:	b29b      	uxth	r3, r3
 80094b8:	ea43 4304 	orr.w	r3, r3, r4, lsl #16
 80094bc:	f84c 3b04 	str.w	r3, [ip], #4
 80094c0:	f859 3b04 	ldr.w	r3, [r9], #4
 80094c4:	f8b8 b004 	ldrh.w	fp, [r8, #4]
 80094c8:	0c1b      	lsrs	r3, r3, #16
 80094ca:	fb0a b303 	mla	r3, sl, r3, fp
 80094ce:	eb03 4314 	add.w	r3, r3, r4, lsr #16
 80094d2:	454f      	cmp	r7, r9
 80094d4:	ea4f 4b13 	mov.w	fp, r3, lsr #16
 80094d8:	d805      	bhi.n	80094e6 <__multiply+0x124>
 80094da:	f8c8 3004 	str.w	r3, [r8, #4]
 80094de:	3504      	adds	r5, #4
 80094e0:	e79b      	b.n	800941a <__multiply+0x58>
 80094e2:	46d4      	mov	ip, sl
 80094e4:	e7b3      	b.n	800944e <__multiply+0x8c>
 80094e6:	46e0      	mov	r8, ip
 80094e8:	e7dd      	b.n	80094a6 <__multiply+0xe4>
 80094ea:	3e01      	subs	r6, #1
 80094ec:	e799      	b.n	8009422 <__multiply+0x60>
	...

080094f0 <__pow5mult>:
 80094f0:	e92d 43f8 	stmdb	sp!, {r3, r4, r5, r6, r7, r8, r9, lr}
 80094f4:	4615      	mov	r5, r2
 80094f6:	f012 0203 	ands.w	r2, r2, #3
 80094fa:	4606      	mov	r6, r0
 80094fc:	460f      	mov	r7, r1
 80094fe:	d007      	beq.n	8009510 <__pow5mult+0x20>
 8009500:	3a01      	subs	r2, #1
 8009502:	4c21      	ldr	r4, [pc, #132]	; (8009588 <__pow5mult+0x98>)
 8009504:	2300      	movs	r3, #0
 8009506:	f854 2022 	ldr.w	r2, [r4, r2, lsl #2]
 800950a:	f7ff fec8 	bl	800929e <__multadd>
 800950e:	4607      	mov	r7, r0
 8009510:	10ad      	asrs	r5, r5, #2
 8009512:	d035      	beq.n	8009580 <__pow5mult+0x90>
 8009514:	6a74      	ldr	r4, [r6, #36]	; 0x24
 8009516:	b93c      	cbnz	r4, 8009528 <__pow5mult+0x38>
 8009518:	2010      	movs	r0, #16
 800951a:	f7ff fe6d 	bl	80091f8 <malloc>
 800951e:	6270      	str	r0, [r6, #36]	; 0x24
 8009520:	e9c0 4401 	strd	r4, r4, [r0, #4]
 8009524:	6004      	str	r4, [r0, #0]
 8009526:	60c4      	str	r4, [r0, #12]
 8009528:	f8d6 8024 	ldr.w	r8, [r6, #36]	; 0x24
 800952c:	f8d8 4008 	ldr.w	r4, [r8, #8]
 8009530:	b94c      	cbnz	r4, 8009546 <__pow5mult+0x56>
 8009532:	f240 2171 	movw	r1, #625	; 0x271
 8009536:	4630      	mov	r0, r6
 8009538:	f7ff ff3a 	bl	80093b0 <__i2b>
 800953c:	2300      	movs	r3, #0
 800953e:	f8c8 0008 	str.w	r0, [r8, #8]
 8009542:	4604      	mov	r4, r0
 8009544:	6003      	str	r3, [r0, #0]
 8009546:	f04f 0800 	mov.w	r8, #0
 800954a:	07eb      	lsls	r3, r5, #31
 800954c:	d50a      	bpl.n	8009564 <__pow5mult+0x74>
 800954e:	4639      	mov	r1, r7
 8009550:	4622      	mov	r2, r4
 8009552:	4630      	mov	r0, r6
 8009554:	f7ff ff35 	bl	80093c2 <__multiply>
 8009558:	4639      	mov	r1, r7
 800955a:	4681      	mov	r9, r0
 800955c:	4630      	mov	r0, r6
 800955e:	f7ff fe87 	bl	8009270 <_Bfree>
 8009562:	464f      	mov	r7, r9
 8009564:	106d      	asrs	r5, r5, #1
 8009566:	d00b      	beq.n	8009580 <__pow5mult+0x90>
 8009568:	6820      	ldr	r0, [r4, #0]
 800956a:	b938      	cbnz	r0, 800957c <__pow5mult+0x8c>
 800956c:	4622      	mov	r2, r4
 800956e:	4621      	mov	r1, r4
 8009570:	4630      	mov	r0, r6
 8009572:	f7ff ff26 	bl	80093c2 <__multiply>
 8009576:	6020      	str	r0, [r4, #0]
 8009578:	f8c0 8000 	str.w	r8, [r0]
 800957c:	4604      	mov	r4, r0
 800957e:	e7e4      	b.n	800954a <__pow5mult+0x5a>
 8009580:	4638      	mov	r0, r7
 8009582:	e8bd 83f8 	ldmia.w	sp!, {r3, r4, r5, r6, r7, r8, r9, pc}
 8009586:	bf00      	nop
 8009588:	0800c498 	.word	0x0800c498

0800958c <__lshift>:
 800958c:	e92d 47f0 	stmdb	sp!, {r4, r5, r6, r7, r8, r9, sl, lr}
 8009590:	460c      	mov	r4, r1
 8009592:	ea4f 1a62 	mov.w	sl, r2, asr #5
 8009596:	6923      	ldr	r3, [r4, #16]
 8009598:	6849      	ldr	r1, [r1, #4]
 800959a:	eb0a 0903 	add.w	r9, sl, r3
 800959e:	68a3      	ldr	r3, [r4, #8]
 80095a0:	4607      	mov	r7, r0
 80095a2:	4616      	mov	r6, r2
 80095a4:	f109 0501 	add.w	r5, r9, #1
 80095a8:	42ab      	cmp	r3, r5
 80095aa:	db32      	blt.n	8009612 <__lshift+0x86>
 80095ac:	4638      	mov	r0, r7
 80095ae:	f7ff fe2b 	bl	8009208 <_Balloc>
 80095b2:	2300      	movs	r3, #0
 80095b4:	4680      	mov	r8, r0
 80095b6:	f100 0114 	add.w	r1, r0, #20
 80095ba:	461a      	mov	r2, r3
 80095bc:	4553      	cmp	r3, sl
 80095be:	db2b      	blt.n	8009618 <__lshift+0x8c>
 80095c0:	6920      	ldr	r0, [r4, #16]
 80095c2:	ea2a 7aea 	bic.w	sl, sl, sl, asr #31
 80095c6:	f104 0314 	add.w	r3, r4, #20
 80095ca:	f016 021f 	ands.w	r2, r6, #31
 80095ce:	eb01 018a 	add.w	r1, r1, sl, lsl #2
 80095d2:	eb03 0c80 	add.w	ip, r3, r0, lsl #2
 80095d6:	d025      	beq.n	8009624 <__lshift+0x98>
 80095d8:	f1c2 0e20 	rsb	lr, r2, #32
 80095dc:	2000      	movs	r0, #0
 80095de:	681e      	ldr	r6, [r3, #0]
 80095e0:	468a      	mov	sl, r1
 80095e2:	4096      	lsls	r6, r2
 80095e4:	4330      	orrs	r0, r6
 80095e6:	f84a 0b04 	str.w	r0, [sl], #4
 80095ea:	f853 0b04 	ldr.w	r0, [r3], #4
 80095ee:	459c      	cmp	ip, r3
 80095f0:	fa20 f00e 	lsr.w	r0, r0, lr
 80095f4:	d814      	bhi.n	8009620 <__lshift+0x94>
 80095f6:	6048      	str	r0, [r1, #4]
 80095f8:	b108      	cbz	r0, 80095fe <__lshift+0x72>
 80095fa:	f109 0502 	add.w	r5, r9, #2
 80095fe:	3d01      	subs	r5, #1
 8009600:	4638      	mov	r0, r7
 8009602:	f8c8 5010 	str.w	r5, [r8, #16]
 8009606:	4621      	mov	r1, r4
 8009608:	f7ff fe32 	bl	8009270 <_Bfree>
 800960c:	4640      	mov	r0, r8
 800960e:	e8bd 87f0 	ldmia.w	sp!, {r4, r5, r6, r7, r8, r9, sl, pc}
 8009612:	3101      	adds	r1, #1
 8009614:	005b      	lsls	r3, r3, #1
 8009616:	e7c7      	b.n	80095a8 <__lshift+0x1c>
 8009618:	f841 2023 	str.w	r2, [r1, r3, lsl #2]
 800961c:	3301      	adds	r3, #1
 800961e:	e7cd      	b.n	80095bc <__lshift+0x30>
 8009620:	4651      	mov	r1, sl
 8009622:	e7dc      	b.n	80095de <__lshift+0x52>
 8009624:	3904      	subs	r1, #4
 8009626:	f853 2b04 	ldr.w	r2, [r3], #4
 800962a:	f841 2f04 	str.w	r2, [r1, #4]!
 800962e:	459c      	cmp	ip, r3
 8009630:	d8f9      	bhi.n	8009626 <__lshift+0x9a>
 8009632:	e7e4      	b.n	80095fe <__lshift+0x72>

08009634 <__mcmp>:
 8009634:	6903      	ldr	r3, [r0, #16]
 8009636:	690a      	ldr	r2, [r1, #16]
 8009638:	1a9b      	subs	r3, r3, r2
 800963a:	b530      	push	{r4, r5, lr}
 800963c:	d10c      	bne.n	8009658 <__mcmp+0x24>
 800963e:	0092      	lsls	r2, r2, #2
 8009640:	3014      	adds	r0, #20
 8009642:	3114      	adds	r1, #20
 8009644:	1884      	adds	r4, r0, r2
 8009646:	4411      	add	r1, r2
 8009648:	f854 5d04 	ldr.w	r5, [r4, #-4]!
 800964c:	f851 2d04 	ldr.w	r2, [r1, #-4]!
 8009650:	4295      	cmp	r5, r2
 8009652:	d003      	beq.n	800965c <__mcmp+0x28>
 8009654:	d305      	bcc.n	8009662 <__mcmp+0x2e>
 8009656:	2301      	movs	r3, #1
 8009658:	4618      	mov	r0, r3
 800965a:	bd30      	pop	{r4, r5, pc}
 800965c:	42a0      	cmp	r0, r4
 800965e:	d3f3      	bcc.n	8009648 <__mcmp+0x14>
 8009660:	e7fa      	b.n	8009658 <__mcmp+0x24>
 8009662:	f04f 33ff 	mov.w	r3, #4294967295	; 0xffffffff
 8009666:	e7f7      	b.n	8009658 <__mcmp+0x24>

08009668 <__mdiff>:
 8009668:	e92d 47f0 	stmdb	sp!, {r4, r5, r6, r7, r8, r9, sl, lr}
 800966c:	460d      	mov	r5, r1
 800966e:	4607      	mov	r7, r0
 8009670:	4611      	mov	r1, r2
 8009672:	4628      	mov	r0, r5
 8009674:	4614      	mov	r4, r2
 8009676:	f7ff ffdd 	bl	8009634 <__mcmp>
 800967a:	1e06      	subs	r6, r0, #0
 800967c:	d108      	bne.n	8009690 <__mdiff+0x28>
 800967e:	4631      	mov	r1, r6
 8009680:	4638      	mov	r0, r7
 8009682:	f7ff fdc1 	bl	8009208 <_Balloc>
 8009686:	2301      	movs	r3, #1
 8009688:	e9c0 3604 	strd	r3, r6, [r0, #16]
 800968c:	e8bd 87f0 	ldmia.w	sp!, {r4, r5, r6, r7, r8, r9, sl, pc}
 8009690:	bfa4      	itt	ge
 8009692:	4623      	movge	r3, r4
 8009694:	462c      	movge	r4, r5
 8009696:	4638      	mov	r0, r7
 8009698:	6861      	ldr	r1, [r4, #4]
 800969a:	bfa6      	itte	ge
 800969c:	461d      	movge	r5, r3
 800969e:	2600      	movge	r6, #0
 80096a0:	2601      	movlt	r6, #1
 80096a2:	f7ff fdb1 	bl	8009208 <_Balloc>
 80096a6:	692b      	ldr	r3, [r5, #16]
 80096a8:	60c6      	str	r6, [r0, #12]
 80096aa:	6926      	ldr	r6, [r4, #16]
 80096ac:	f105 0914 	add.w	r9, r5, #20
 80096b0:	f104 0214 	add.w	r2, r4, #20
 80096b4:	eb02 0786 	add.w	r7, r2, r6, lsl #2
 80096b8:	eb09 0883 	add.w	r8, r9, r3, lsl #2
 80096bc:	f100 0514 	add.w	r5, r0, #20
 80096c0:	f04f 0e00 	mov.w	lr, #0
 80096c4:	f852 ab04 	ldr.w	sl, [r2], #4
 80096c8:	f859 4b04 	ldr.w	r4, [r9], #4
 80096cc:	fa1e f18a 	uxtah	r1, lr, sl
 80096d0:	b2a3      	uxth	r3, r4
 80096d2:	1ac9      	subs	r1, r1, r3
 80096d4:	0c23      	lsrs	r3, r4, #16
 80096d6:	ebc3 431a 	rsb	r3, r3, sl, lsr #16
 80096da:	eb03 4321 	add.w	r3, r3, r1, asr #16
 80096de:	b289      	uxth	r1, r1
 80096e0:	ea4f 4e23 	mov.w	lr, r3, asr #16
 80096e4:	45c8      	cmp	r8, r9
 80096e6:	ea41 4303 	orr.w	r3, r1, r3, lsl #16
 80096ea:	4694      	mov	ip, r2
 80096ec:	f845 3b04 	str.w	r3, [r5], #4
 80096f0:	d8e8      	bhi.n	80096c4 <__mdiff+0x5c>
 80096f2:	45bc      	cmp	ip, r7
 80096f4:	d304      	bcc.n	8009700 <__mdiff+0x98>
 80096f6:	f855 3d04 	ldr.w	r3, [r5, #-4]!
 80096fa:	b183      	cbz	r3, 800971e <__mdiff+0xb6>
 80096fc:	6106      	str	r6, [r0, #16]
 80096fe:	e7c5      	b.n	800968c <__mdiff+0x24>
 8009700:	f85c 1b04 	ldr.w	r1, [ip], #4
 8009704:	fa1e f381 	uxtah	r3, lr, r1
 8009708:	141a      	asrs	r2, r3, #16
 800970a:	eb02 4211 	add.w	r2, r2, r1, lsr #16
 800970e:	b29b      	uxth	r3, r3
 8009710:	ea43 4302 	orr.w	r3, r3, r2, lsl #16
 8009714:	ea4f 4e22 	mov.w	lr, r2, asr #16
 8009718:	f845 3b04 	str.w	r3, [r5], #4
 800971c:	e7e9      	b.n	80096f2 <__mdiff+0x8a>
 800971e:	3e01      	subs	r6, #1
 8009720:	e7e9      	b.n	80096f6 <__mdiff+0x8e>

08009722 <__d2b>:
 8009722:	e92d 43f7 	stmdb	sp!, {r0, r1, r2, r4, r5, r6, r7, r8, r9, lr}
 8009726:	460e      	mov	r6, r1
 8009728:	2101      	movs	r1, #1
 800972a:	ec59 8b10 	vmov	r8, r9, d0
 800972e:	4615      	mov	r5, r2
 8009730:	f7ff fd6a 	bl	8009208 <_Balloc>
 8009734:	f3c9 540a 	ubfx	r4, r9, #20, #11
 8009738:	4607      	mov	r7, r0
 800973a:	f3c9 0313 	ubfx	r3, r9, #0, #20
 800973e:	bb34      	cbnz	r4, 800978e <__d2b+0x6c>
 8009740:	9301      	str	r3, [sp, #4]
 8009742:	f1b8 0300 	subs.w	r3, r8, #0
 8009746:	d027      	beq.n	8009798 <__d2b+0x76>
 8009748:	a802      	add	r0, sp, #8
 800974a:	f840 3d08 	str.w	r3, [r0, #-8]!
 800974e:	f7ff fe00 	bl	8009352 <__lo0bits>
 8009752:	9900      	ldr	r1, [sp, #0]
 8009754:	b1f0      	cbz	r0, 8009794 <__d2b+0x72>
 8009756:	9a01      	ldr	r2, [sp, #4]
 8009758:	f1c0 0320 	rsb	r3, r0, #32
 800975c:	fa02 f303 	lsl.w	r3, r2, r3
 8009760:	430b      	orrs	r3, r1
 8009762:	40c2      	lsrs	r2, r0
 8009764:	617b      	str	r3, [r7, #20]
 8009766:	9201      	str	r2, [sp, #4]
 8009768:	9b01      	ldr	r3, [sp, #4]
 800976a:	61bb      	str	r3, [r7, #24]
 800976c:	2b00      	cmp	r3, #0
 800976e:	bf14      	ite	ne
 8009770:	2102      	movne	r1, #2
 8009772:	2101      	moveq	r1, #1
 8009774:	6139      	str	r1, [r7, #16]
 8009776:	b1c4      	cbz	r4, 80097aa <__d2b+0x88>
 8009778:	f2a4 4433 	subw	r4, r4, #1075	; 0x433
 800977c:	4404      	add	r4, r0
 800977e:	6034      	str	r4, [r6, #0]
 8009780:	f1c0 0035 	rsb	r0, r0, #53	; 0x35
 8009784:	6028      	str	r0, [r5, #0]
 8009786:	4638      	mov	r0, r7
 8009788:	b003      	add	sp, #12
 800978a:	e8bd 83f0 	ldmia.w	sp!, {r4, r5, r6, r7, r8, r9, pc}
 800978e:	f443 1380 	orr.w	r3, r3, #1048576	; 0x100000
 8009792:	e7d5      	b.n	8009740 <__d2b+0x1e>
 8009794:	6179      	str	r1, [r7, #20]
 8009796:	e7e7      	b.n	8009768 <__d2b+0x46>
 8009798:	a801      	add	r0, sp, #4
 800979a:	f7ff fdda 	bl	8009352 <__lo0bits>
 800979e:	9b01      	ldr	r3, [sp, #4]
 80097a0:	617b      	str	r3, [r7, #20]
 80097a2:	2101      	movs	r1, #1
 80097a4:	6139      	str	r1, [r7, #16]
 80097a6:	3020      	adds	r0, #32
 80097a8:	e7e5      	b.n	8009776 <__d2b+0x54>
 80097aa:	eb07 0381 	add.w	r3, r7, r1, lsl #2
 80097ae:	f2a0 4032 	subw	r0, r0, #1074	; 0x432
 80097b2:	6030      	str	r0, [r6, #0]
 80097b4:	6918      	ldr	r0, [r3, #16]
 80097b6:	f7ff fdad 	bl	8009314 <__hi0bits>
 80097ba:	ebc0 1041 	rsb	r0, r0, r1, lsl #5
 80097be:	e7e1      	b.n	8009784 <__d2b+0x62>

080097c0 <_calloc_r>:
 80097c0:	b538      	push	{r3, r4, r5, lr}
 80097c2:	fb02 f401 	mul.w	r4, r2, r1
 80097c6:	4621      	mov	r1, r4
 80097c8:	f000 f856 	bl	8009878 <_malloc_r>
 80097cc:	4605      	mov	r5, r0
 80097ce:	b118      	cbz	r0, 80097d8 <_calloc_r+0x18>
 80097d0:	4622      	mov	r2, r4
 80097d2:	2100      	movs	r1, #0
 80097d4:	f7fd ff1f 	bl	8007616 <memset>
 80097d8:	4628      	mov	r0, r5
 80097da:	bd38      	pop	{r3, r4, r5, pc}

080097dc <_free_r>:
 80097dc:	b538      	push	{r3, r4, r5, lr}
 80097de:	4605      	mov	r5, r0
 80097e0:	2900      	cmp	r1, #0
 80097e2:	d045      	beq.n	8009870 <_free_r+0x94>
 80097e4:	f851 3c04 	ldr.w	r3, [r1, #-4]
 80097e8:	1f0c      	subs	r4, r1, #4
 80097ea:	2b00      	cmp	r3, #0
 80097ec:	bfb8      	it	lt
 80097ee:	18e4      	addlt	r4, r4, r3
 80097f0:	f000 fc03 	bl	8009ffa <__malloc_lock>
 80097f4:	4a1f      	ldr	r2, [pc, #124]	; (8009874 <_free_r+0x98>)
 80097f6:	6813      	ldr	r3, [r2, #0]
 80097f8:	4610      	mov	r0, r2
 80097fa:	b933      	cbnz	r3, 800980a <_free_r+0x2e>
 80097fc:	6063      	str	r3, [r4, #4]
 80097fe:	6014      	str	r4, [r2, #0]
 8009800:	4628      	mov	r0, r5
 8009802:	e8bd 4038 	ldmia.w	sp!, {r3, r4, r5, lr}
 8009806:	f000 bbf9 	b.w	8009ffc <__malloc_unlock>
 800980a:	42a3      	cmp	r3, r4
 800980c:	d90c      	bls.n	8009828 <_free_r+0x4c>
 800980e:	6821      	ldr	r1, [r4, #0]
 8009810:	1862      	adds	r2, r4, r1
 8009812:	4293      	cmp	r3, r2
 8009814:	bf04      	itt	eq
 8009816:	681a      	ldreq	r2, [r3, #0]
 8009818:	685b      	ldreq	r3, [r3, #4]
 800981a:	6063      	str	r3, [r4, #4]
 800981c:	bf04      	itt	eq
 800981e:	1852      	addeq	r2, r2, r1
 8009820:	6022      	streq	r2, [r4, #0]
 8009822:	6004      	str	r4, [r0, #0]
 8009824:	e7ec      	b.n	8009800 <_free_r+0x24>
 8009826:	4613      	mov	r3, r2
 8009828:	685a      	ldr	r2, [r3, #4]
 800982a:	b10a      	cbz	r2, 8009830 <_free_r+0x54>
 800982c:	42a2      	cmp	r2, r4
 800982e:	d9fa      	bls.n	8009826 <_free_r+0x4a>
 8009830:	6819      	ldr	r1, [r3, #0]
 8009832:	1858      	adds	r0, r3, r1
 8009834:	42a0      	cmp	r0, r4
 8009836:	d10b      	bne.n	8009850 <_free_r+0x74>
 8009838:	6820      	ldr	r0, [r4, #0]
 800983a:	4401      	add	r1, r0
 800983c:	1858      	adds	r0, r3, r1
 800983e:	4282      	cmp	r2, r0
 8009840:	6019      	str	r1, [r3, #0]
 8009842:	d1dd      	bne.n	8009800 <_free_r+0x24>
 8009844:	6810      	ldr	r0, [r2, #0]
 8009846:	6852      	ldr	r2, [r2, #4]
 8009848:	605a      	str	r2, [r3, #4]
 800984a:	4401      	add	r1, r0
 800984c:	6019      	str	r1, [r3, #0]
 800984e:	e7d7      	b.n	8009800 <_free_r+0x24>
 8009850:	d902      	bls.n	8009858 <_free_r+0x7c>
 8009852:	230c      	movs	r3, #12
 8009854:	602b      	str	r3, [r5, #0]
 8009856:	e7d3      	b.n	8009800 <_free_r+0x24>
 8009858:	6820      	ldr	r0, [r4, #0]
 800985a:	1821      	adds	r1, r4, r0
 800985c:	428a      	cmp	r2, r1
 800985e:	bf04      	itt	eq
 8009860:	6811      	ldreq	r1, [r2, #0]
 8009862:	6852      	ldreq	r2, [r2, #4]
 8009864:	6062      	str	r2, [r4, #4]
 8009866:	bf04      	itt	eq
 8009868:	1809      	addeq	r1, r1, r0
 800986a:	6021      	streq	r1, [r4, #0]
 800986c:	605c      	str	r4, [r3, #4]
 800986e:	e7c7      	b.n	8009800 <_free_r+0x24>
 8009870:	bd38      	pop	{r3, r4, r5, pc}
 8009872:	bf00      	nop
 8009874:	200003cc 	.word	0x200003cc

08009878 <_malloc_r>:
 8009878:	b570      	push	{r4, r5, r6, lr}
 800987a:	1ccd      	adds	r5, r1, #3
 800987c:	f025 0503 	bic.w	r5, r5, #3
 8009880:	3508      	adds	r5, #8
 8009882:	2d0c      	cmp	r5, #12
 8009884:	bf38      	it	cc
 8009886:	250c      	movcc	r5, #12
 8009888:	2d00      	cmp	r5, #0
 800988a:	4606      	mov	r6, r0
 800988c:	db01      	blt.n	8009892 <_malloc_r+0x1a>
 800988e:	42a9      	cmp	r1, r5
 8009890:	d903      	bls.n	800989a <_malloc_r+0x22>
 8009892:	230c      	movs	r3, #12
 8009894:	6033      	str	r3, [r6, #0]
 8009896:	2000      	movs	r0, #0
 8009898:	bd70      	pop	{r4, r5, r6, pc}
 800989a:	f000 fbae 	bl	8009ffa <__malloc_lock>
 800989e:	4a21      	ldr	r2, [pc, #132]	; (8009924 <_malloc_r+0xac>)
 80098a0:	6814      	ldr	r4, [r2, #0]
 80098a2:	4621      	mov	r1, r4
 80098a4:	b991      	cbnz	r1, 80098cc <_malloc_r+0x54>
 80098a6:	4c20      	ldr	r4, [pc, #128]	; (8009928 <_malloc_r+0xb0>)
 80098a8:	6823      	ldr	r3, [r4, #0]
 80098aa:	b91b      	cbnz	r3, 80098b4 <_malloc_r+0x3c>
 80098ac:	4630      	mov	r0, r6
 80098ae:	f000 facf 	bl	8009e50 <_sbrk_r>
 80098b2:	6020      	str	r0, [r4, #0]
 80098b4:	4629      	mov	r1, r5
 80098b6:	4630      	mov	r0, r6
 80098b8:	f000 faca 	bl	8009e50 <_sbrk_r>
 80098bc:	1c43      	adds	r3, r0, #1
 80098be:	d124      	bne.n	800990a <_malloc_r+0x92>
 80098c0:	230c      	movs	r3, #12
 80098c2:	6033      	str	r3, [r6, #0]
 80098c4:	4630      	mov	r0, r6
 80098c6:	f000 fb99 	bl	8009ffc <__malloc_unlock>
 80098ca:	e7e4      	b.n	8009896 <_malloc_r+0x1e>
 80098cc:	680b      	ldr	r3, [r1, #0]
 80098ce:	1b5b      	subs	r3, r3, r5
 80098d0:	d418      	bmi.n	8009904 <_malloc_r+0x8c>
 80098d2:	2b0b      	cmp	r3, #11
 80098d4:	d90f      	bls.n	80098f6 <_malloc_r+0x7e>
 80098d6:	600b      	str	r3, [r1, #0]
 80098d8:	50cd      	str	r5, [r1, r3]
 80098da:	18cc      	adds	r4, r1, r3
 80098dc:	4630      	mov	r0, r6
 80098de:	f000 fb8d 	bl	8009ffc <__malloc_unlock>
 80098e2:	f104 000b 	add.w	r0, r4, #11
 80098e6:	1d23      	adds	r3, r4, #4
 80098e8:	f020 0007 	bic.w	r0, r0, #7
 80098ec:	1ac3      	subs	r3, r0, r3
 80098ee:	d0d3      	beq.n	8009898 <_malloc_r+0x20>
 80098f0:	425a      	negs	r2, r3
 80098f2:	50e2      	str	r2, [r4, r3]
 80098f4:	e7d0      	b.n	8009898 <_malloc_r+0x20>
 80098f6:	428c      	cmp	r4, r1
 80098f8:	684b      	ldr	r3, [r1, #4]
 80098fa:	bf16      	itet	ne
 80098fc:	6063      	strne	r3, [r4, #4]
 80098fe:	6013      	streq	r3, [r2, #0]
 8009900:	460c      	movne	r4, r1
 8009902:	e7eb      	b.n	80098dc <_malloc_r+0x64>
 8009904:	460c      	mov	r4, r1
 8009906:	6849      	ldr	r1, [r1, #4]
 8009908:	e7cc      	b.n	80098a4 <_malloc_r+0x2c>
 800990a:	1cc4      	adds	r4, r0, #3
 800990c:	f024 0403 	bic.w	r4, r4, #3
 8009910:	42a0      	cmp	r0, r4
 8009912:	d005      	beq.n	8009920 <_malloc_r+0xa8>
 8009914:	1a21      	subs	r1, r4, r0
 8009916:	4630      	mov	r0, r6
 8009918:	f000 fa9a 	bl	8009e50 <_sbrk_r>
 800991c:	3001      	adds	r0, #1
 800991e:	d0cf      	beq.n	80098c0 <_malloc_r+0x48>
 8009920:	6025      	str	r5, [r4, #0]
 8009922:	e7db      	b.n	80098dc <_malloc_r+0x64>
 8009924:	200003cc 	.word	0x200003cc
 8009928:	200003d0 	.word	0x200003d0

0800992c <__ssputs_r>:
 800992c:	e92d 47f0 	stmdb	sp!, {r4, r5, r6, r7, r8, r9, sl, lr}
 8009930:	688e      	ldr	r6, [r1, #8]
 8009932:	429e      	cmp	r6, r3
 8009934:	4682      	mov	sl, r0
 8009936:	460c      	mov	r4, r1
 8009938:	4690      	mov	r8, r2
 800993a:	4699      	mov	r9, r3
 800993c:	d837      	bhi.n	80099ae <__ssputs_r+0x82>
 800993e:	898a      	ldrh	r2, [r1, #12]
 8009940:	f412 6f90 	tst.w	r2, #1152	; 0x480
 8009944:	d031      	beq.n	80099aa <__ssputs_r+0x7e>
 8009946:	6825      	ldr	r5, [r4, #0]
 8009948:	6909      	ldr	r1, [r1, #16]
 800994a:	1a6f      	subs	r7, r5, r1
 800994c:	6965      	ldr	r5, [r4, #20]
 800994e:	2302      	movs	r3, #2
 8009950:	eb05 0545 	add.w	r5, r5, r5, lsl #1
 8009954:	fb95 f5f3 	sdiv	r5, r5, r3
 8009958:	f109 0301 	add.w	r3, r9, #1
 800995c:	443b      	add	r3, r7
 800995e:	429d      	cmp	r5, r3
 8009960:	bf38      	it	cc
 8009962:	461d      	movcc	r5, r3
 8009964:	0553      	lsls	r3, r2, #21
 8009966:	d530      	bpl.n	80099ca <__ssputs_r+0x9e>
 8009968:	4629      	mov	r1, r5
 800996a:	f7ff ff85 	bl	8009878 <_malloc_r>
 800996e:	4606      	mov	r6, r0
 8009970:	b950      	cbnz	r0, 8009988 <__ssputs_r+0x5c>
 8009972:	230c      	movs	r3, #12
 8009974:	f8ca 3000 	str.w	r3, [sl]
 8009978:	89a3      	ldrh	r3, [r4, #12]
 800997a:	f043 0340 	orr.w	r3, r3, #64	; 0x40
 800997e:	81a3      	strh	r3, [r4, #12]
 8009980:	f04f 30ff 	mov.w	r0, #4294967295	; 0xffffffff
 8009984:	e8bd 87f0 	ldmia.w	sp!, {r4, r5, r6, r7, r8, r9, sl, pc}
 8009988:	463a      	mov	r2, r7
 800998a:	6921      	ldr	r1, [r4, #16]
 800998c:	f7fd fe38 	bl	8007600 <memcpy>
 8009990:	89a3      	ldrh	r3, [r4, #12]
 8009992:	f423 6390 	bic.w	r3, r3, #1152	; 0x480
 8009996:	f043 0380 	orr.w	r3, r3, #128	; 0x80
 800999a:	81a3      	strh	r3, [r4, #12]
 800999c:	6126      	str	r6, [r4, #16]
 800999e:	6165      	str	r5, [r4, #20]
 80099a0:	443e      	add	r6, r7
 80099a2:	1bed      	subs	r5, r5, r7
 80099a4:	6026      	str	r6, [r4, #0]
 80099a6:	60a5      	str	r5, [r4, #8]
 80099a8:	464e      	mov	r6, r9
 80099aa:	454e      	cmp	r6, r9
 80099ac:	d900      	bls.n	80099b0 <__ssputs_r+0x84>
 80099ae:	464e      	mov	r6, r9
 80099b0:	4632      	mov	r2, r6
 80099b2:	4641      	mov	r1, r8
 80099b4:	6820      	ldr	r0, [r4, #0]
 80099b6:	f000 fb07 	bl	8009fc8 <memmove>
 80099ba:	68a3      	ldr	r3, [r4, #8]
 80099bc:	1b9b      	subs	r3, r3, r6
 80099be:	60a3      	str	r3, [r4, #8]
 80099c0:	6823      	ldr	r3, [r4, #0]
 80099c2:	441e      	add	r6, r3
 80099c4:	6026      	str	r6, [r4, #0]
 80099c6:	2000      	movs	r0, #0
 80099c8:	e7dc      	b.n	8009984 <__ssputs_r+0x58>
 80099ca:	462a      	mov	r2, r5
 80099cc:	f000 fb17 	bl	8009ffe <_realloc_r>
 80099d0:	4606      	mov	r6, r0
 80099d2:	2800      	cmp	r0, #0
 80099d4:	d1e2      	bne.n	800999c <__ssputs_r+0x70>
 80099d6:	6921      	ldr	r1, [r4, #16]
 80099d8:	4650      	mov	r0, sl
 80099da:	f7ff feff 	bl	80097dc <_free_r>
 80099de:	e7c8      	b.n	8009972 <__ssputs_r+0x46>

080099e0 <_svfiprintf_r>:
 80099e0:	e92d 4ff0 	stmdb	sp!, {r4, r5, r6, r7, r8, r9, sl, fp, lr}
 80099e4:	461d      	mov	r5, r3
 80099e6:	898b      	ldrh	r3, [r1, #12]
 80099e8:	061f      	lsls	r7, r3, #24
 80099ea:	b09d      	sub	sp, #116	; 0x74
 80099ec:	4680      	mov	r8, r0
 80099ee:	460c      	mov	r4, r1
 80099f0:	4616      	mov	r6, r2
 80099f2:	d50f      	bpl.n	8009a14 <_svfiprintf_r+0x34>
 80099f4:	690b      	ldr	r3, [r1, #16]
 80099f6:	b96b      	cbnz	r3, 8009a14 <_svfiprintf_r+0x34>
 80099f8:	2140      	movs	r1, #64	; 0x40
 80099fa:	f7ff ff3d 	bl	8009878 <_malloc_r>
 80099fe:	6020      	str	r0, [r4, #0]
 8009a00:	6120      	str	r0, [r4, #16]
 8009a02:	b928      	cbnz	r0, 8009a10 <_svfiprintf_r+0x30>
 8009a04:	230c      	movs	r3, #12
 8009a06:	f8c8 3000 	str.w	r3, [r8]
 8009a0a:	f04f 30ff 	mov.w	r0, #4294967295	; 0xffffffff
 8009a0e:	e0c8      	b.n	8009ba2 <_svfiprintf_r+0x1c2>
 8009a10:	2340      	movs	r3, #64	; 0x40
 8009a12:	6163      	str	r3, [r4, #20]
 8009a14:	2300      	movs	r3, #0
 8009a16:	9309      	str	r3, [sp, #36]	; 0x24
 8009a18:	2320      	movs	r3, #32
 8009a1a:	f88d 3029 	strb.w	r3, [sp, #41]	; 0x29
 8009a1e:	2330      	movs	r3, #48	; 0x30
 8009a20:	f88d 302a 	strb.w	r3, [sp, #42]	; 0x2a
 8009a24:	9503      	str	r5, [sp, #12]
 8009a26:	f04f 0b01 	mov.w	fp, #1
 8009a2a:	4637      	mov	r7, r6
 8009a2c:	463d      	mov	r5, r7
 8009a2e:	f815 3b01 	ldrb.w	r3, [r5], #1
 8009a32:	b10b      	cbz	r3, 8009a38 <_svfiprintf_r+0x58>
 8009a34:	2b25      	cmp	r3, #37	; 0x25
 8009a36:	d13e      	bne.n	8009ab6 <_svfiprintf_r+0xd6>
 8009a38:	ebb7 0a06 	subs.w	sl, r7, r6
 8009a3c:	d00b      	beq.n	8009a56 <_svfiprintf_r+0x76>
 8009a3e:	4653      	mov	r3, sl
 8009a40:	4632      	mov	r2, r6
 8009a42:	4621      	mov	r1, r4
 8009a44:	4640      	mov	r0, r8
 8009a46:	f7ff ff71 	bl	800992c <__ssputs_r>
 8009a4a:	3001      	adds	r0, #1
 8009a4c:	f000 80a4 	beq.w	8009b98 <_svfiprintf_r+0x1b8>
 8009a50:	9b09      	ldr	r3, [sp, #36]	; 0x24
 8009a52:	4453      	add	r3, sl
 8009a54:	9309      	str	r3, [sp, #36]	; 0x24
 8009a56:	783b      	ldrb	r3, [r7, #0]
 8009a58:	2b00      	cmp	r3, #0
 8009a5a:	f000 809d 	beq.w	8009b98 <_svfiprintf_r+0x1b8>
 8009a5e:	2300      	movs	r3, #0
 8009a60:	f04f 32ff 	mov.w	r2, #4294967295	; 0xffffffff
 8009a64:	e9cd 2305 	strd	r2, r3, [sp, #20]
 8009a68:	9304      	str	r3, [sp, #16]
 8009a6a:	9307      	str	r3, [sp, #28]
 8009a6c:	f88d 3053 	strb.w	r3, [sp, #83]	; 0x53
 8009a70:	931a      	str	r3, [sp, #104]	; 0x68
 8009a72:	462f      	mov	r7, r5
 8009a74:	2205      	movs	r2, #5
 8009a76:	f817 1b01 	ldrb.w	r1, [r7], #1
 8009a7a:	4850      	ldr	r0, [pc, #320]	; (8009bbc <_svfiprintf_r+0x1dc>)
 8009a7c:	f7f7 f958 	bl	8000d30 <memchr>
 8009a80:	9b04      	ldr	r3, [sp, #16]
 8009a82:	b9d0      	cbnz	r0, 8009aba <_svfiprintf_r+0xda>
 8009a84:	06d9      	lsls	r1, r3, #27
 8009a86:	bf44      	itt	mi
 8009a88:	2220      	movmi	r2, #32
 8009a8a:	f88d 2053 	strbmi.w	r2, [sp, #83]	; 0x53
 8009a8e:	071a      	lsls	r2, r3, #28
 8009a90:	bf44      	itt	mi
 8009a92:	222b      	movmi	r2, #43	; 0x2b
 8009a94:	f88d 2053 	strbmi.w	r2, [sp, #83]	; 0x53
 8009a98:	782a      	ldrb	r2, [r5, #0]
 8009a9a:	2a2a      	cmp	r2, #42	; 0x2a
 8009a9c:	d015      	beq.n	8009aca <_svfiprintf_r+0xea>
 8009a9e:	9a07      	ldr	r2, [sp, #28]
 8009aa0:	462f      	mov	r7, r5
 8009aa2:	2000      	movs	r0, #0
 8009aa4:	250a      	movs	r5, #10
 8009aa6:	4639      	mov	r1, r7
 8009aa8:	f811 3b01 	ldrb.w	r3, [r1], #1
 8009aac:	3b30      	subs	r3, #48	; 0x30
 8009aae:	2b09      	cmp	r3, #9
 8009ab0:	d94d      	bls.n	8009b4e <_svfiprintf_r+0x16e>
 8009ab2:	b1b8      	cbz	r0, 8009ae4 <_svfiprintf_r+0x104>
 8009ab4:	e00f      	b.n	8009ad6 <_svfiprintf_r+0xf6>
 8009ab6:	462f      	mov	r7, r5
 8009ab8:	e7b8      	b.n	8009a2c <_svfiprintf_r+0x4c>
 8009aba:	4a40      	ldr	r2, [pc, #256]	; (8009bbc <_svfiprintf_r+0x1dc>)
 8009abc:	1a80      	subs	r0, r0, r2
 8009abe:	fa0b f000 	lsl.w	r0, fp, r0
 8009ac2:	4318      	orrs	r0, r3
 8009ac4:	9004      	str	r0, [sp, #16]
 8009ac6:	463d      	mov	r5, r7
 8009ac8:	e7d3      	b.n	8009a72 <_svfiprintf_r+0x92>
 8009aca:	9a03      	ldr	r2, [sp, #12]
 8009acc:	1d11      	adds	r1, r2, #4
 8009ace:	6812      	ldr	r2, [r2, #0]
 8009ad0:	9103      	str	r1, [sp, #12]
 8009ad2:	2a00      	cmp	r2, #0
 8009ad4:	db01      	blt.n	8009ada <_svfiprintf_r+0xfa>
 8009ad6:	9207      	str	r2, [sp, #28]
 8009ad8:	e004      	b.n	8009ae4 <_svfiprintf_r+0x104>
 8009ada:	4252      	negs	r2, r2
 8009adc:	f043 0302 	orr.w	r3, r3, #2
 8009ae0:	9207      	str	r2, [sp, #28]
 8009ae2:	9304      	str	r3, [sp, #16]
 8009ae4:	783b      	ldrb	r3, [r7, #0]
 8009ae6:	2b2e      	cmp	r3, #46	; 0x2e
 8009ae8:	d10c      	bne.n	8009b04 <_svfiprintf_r+0x124>
 8009aea:	787b      	ldrb	r3, [r7, #1]
 8009aec:	2b2a      	cmp	r3, #42	; 0x2a
 8009aee:	d133      	bne.n	8009b58 <_svfiprintf_r+0x178>
 8009af0:	9b03      	ldr	r3, [sp, #12]
 8009af2:	1d1a      	adds	r2, r3, #4
 8009af4:	681b      	ldr	r3, [r3, #0]
 8009af6:	9203      	str	r2, [sp, #12]
 8009af8:	2b00      	cmp	r3, #0
 8009afa:	bfb8      	it	lt
 8009afc:	f04f 33ff 	movlt.w	r3, #4294967295	; 0xffffffff
 8009b00:	3702      	adds	r7, #2
 8009b02:	9305      	str	r3, [sp, #20]
 8009b04:	4d2e      	ldr	r5, [pc, #184]	; (8009bc0 <_svfiprintf_r+0x1e0>)
 8009b06:	7839      	ldrb	r1, [r7, #0]
 8009b08:	2203      	movs	r2, #3
 8009b0a:	4628      	mov	r0, r5
 8009b0c:	f7f7 f910 	bl	8000d30 <memchr>
 8009b10:	b138      	cbz	r0, 8009b22 <_svfiprintf_r+0x142>
 8009b12:	2340      	movs	r3, #64	; 0x40
 8009b14:	1b40      	subs	r0, r0, r5
 8009b16:	fa03 f000 	lsl.w	r0, r3, r0
 8009b1a:	9b04      	ldr	r3, [sp, #16]
 8009b1c:	4303      	orrs	r3, r0
 8009b1e:	3701      	adds	r7, #1
 8009b20:	9304      	str	r3, [sp, #16]
 8009b22:	7839      	ldrb	r1, [r7, #0]
 8009b24:	4827      	ldr	r0, [pc, #156]	; (8009bc4 <_svfiprintf_r+0x1e4>)
 8009b26:	f88d 1028 	strb.w	r1, [sp, #40]	; 0x28
 8009b2a:	2206      	movs	r2, #6
 8009b2c:	1c7e      	adds	r6, r7, #1
 8009b2e:	f7f7 f8ff 	bl	8000d30 <memchr>
 8009b32:	2800      	cmp	r0, #0
 8009b34:	d038      	beq.n	8009ba8 <_svfiprintf_r+0x1c8>
 8009b36:	4b24      	ldr	r3, [pc, #144]	; (8009bc8 <_svfiprintf_r+0x1e8>)
 8009b38:	bb13      	cbnz	r3, 8009b80 <_svfiprintf_r+0x1a0>
 8009b3a:	9b03      	ldr	r3, [sp, #12]
 8009b3c:	3307      	adds	r3, #7
 8009b3e:	f023 0307 	bic.w	r3, r3, #7
 8009b42:	3308      	adds	r3, #8
 8009b44:	9303      	str	r3, [sp, #12]
 8009b46:	9b09      	ldr	r3, [sp, #36]	; 0x24
 8009b48:	444b      	add	r3, r9
 8009b4a:	9309      	str	r3, [sp, #36]	; 0x24
 8009b4c:	e76d      	b.n	8009a2a <_svfiprintf_r+0x4a>
 8009b4e:	fb05 3202 	mla	r2, r5, r2, r3
 8009b52:	2001      	movs	r0, #1
 8009b54:	460f      	mov	r7, r1
 8009b56:	e7a6      	b.n	8009aa6 <_svfiprintf_r+0xc6>
 8009b58:	2300      	movs	r3, #0
 8009b5a:	3701      	adds	r7, #1
 8009b5c:	9305      	str	r3, [sp, #20]
 8009b5e:	4619      	mov	r1, r3
 8009b60:	250a      	movs	r5, #10
 8009b62:	4638      	mov	r0, r7
 8009b64:	f810 2b01 	ldrb.w	r2, [r0], #1
 8009b68:	3a30      	subs	r2, #48	; 0x30
 8009b6a:	2a09      	cmp	r2, #9
 8009b6c:	d903      	bls.n	8009b76 <_svfiprintf_r+0x196>
 8009b6e:	2b00      	cmp	r3, #0
 8009b70:	d0c8      	beq.n	8009b04 <_svfiprintf_r+0x124>
 8009b72:	9105      	str	r1, [sp, #20]
 8009b74:	e7c6      	b.n	8009b04 <_svfiprintf_r+0x124>
 8009b76:	fb05 2101 	mla	r1, r5, r1, r2
 8009b7a:	2301      	movs	r3, #1
 8009b7c:	4607      	mov	r7, r0
 8009b7e:	e7f0      	b.n	8009b62 <_svfiprintf_r+0x182>
 8009b80:	ab03      	add	r3, sp, #12
 8009b82:	9300      	str	r3, [sp, #0]
 8009b84:	4622      	mov	r2, r4
 8009b86:	4b11      	ldr	r3, [pc, #68]	; (8009bcc <_svfiprintf_r+0x1ec>)
 8009b88:	a904      	add	r1, sp, #16
 8009b8a:	4640      	mov	r0, r8
 8009b8c:	f7fd fde0 	bl	8007750 <_printf_float>
 8009b90:	f1b0 3fff 	cmp.w	r0, #4294967295	; 0xffffffff
 8009b94:	4681      	mov	r9, r0
 8009b96:	d1d6      	bne.n	8009b46 <_svfiprintf_r+0x166>
 8009b98:	89a3      	ldrh	r3, [r4, #12]
 8009b9a:	065b      	lsls	r3, r3, #25
 8009b9c:	f53f af35 	bmi.w	8009a0a <_svfiprintf_r+0x2a>
 8009ba0:	9809      	ldr	r0, [sp, #36]	; 0x24
 8009ba2:	b01d      	add	sp, #116	; 0x74
 8009ba4:	e8bd 8ff0 	ldmia.w	sp!, {r4, r5, r6, r7, r8, r9, sl, fp, pc}
 8009ba8:	ab03      	add	r3, sp, #12
 8009baa:	9300      	str	r3, [sp, #0]
 8009bac:	4622      	mov	r2, r4
 8009bae:	4b07      	ldr	r3, [pc, #28]	; (8009bcc <_svfiprintf_r+0x1ec>)
 8009bb0:	a904      	add	r1, sp, #16
 8009bb2:	4640      	mov	r0, r8
 8009bb4:	f7fe f882 	bl	8007cbc <_printf_i>
 8009bb8:	e7ea      	b.n	8009b90 <_svfiprintf_r+0x1b0>
 8009bba:	bf00      	nop
 8009bbc:	0800c4a4 	.word	0x0800c4a4
 8009bc0:	0800c4aa 	.word	0x0800c4aa
 8009bc4:	0800c4ae 	.word	0x0800c4ae
 8009bc8:	08007751 	.word	0x08007751
 8009bcc:	0800992d 	.word	0x0800992d

08009bd0 <__sfputc_r>:
 8009bd0:	6893      	ldr	r3, [r2, #8]
 8009bd2:	3b01      	subs	r3, #1
 8009bd4:	2b00      	cmp	r3, #0
 8009bd6:	b410      	push	{r4}
 8009bd8:	6093      	str	r3, [r2, #8]
 8009bda:	da08      	bge.n	8009bee <__sfputc_r+0x1e>
 8009bdc:	6994      	ldr	r4, [r2, #24]
 8009bde:	42a3      	cmp	r3, r4
 8009be0:	db01      	blt.n	8009be6 <__sfputc_r+0x16>
 8009be2:	290a      	cmp	r1, #10
 8009be4:	d103      	bne.n	8009bee <__sfputc_r+0x1e>
 8009be6:	f85d 4b04 	ldr.w	r4, [sp], #4
 8009bea:	f7fe ba15 	b.w	8008018 <__swbuf_r>
 8009bee:	6813      	ldr	r3, [r2, #0]
 8009bf0:	1c58      	adds	r0, r3, #1
 8009bf2:	6010      	str	r0, [r2, #0]
 8009bf4:	7019      	strb	r1, [r3, #0]
 8009bf6:	4608      	mov	r0, r1
 8009bf8:	f85d 4b04 	ldr.w	r4, [sp], #4
 8009bfc:	4770      	bx	lr

08009bfe <__sfputs_r>:
 8009bfe:	b5f8      	push	{r3, r4, r5, r6, r7, lr}
 8009c00:	4606      	mov	r6, r0
 8009c02:	460f      	mov	r7, r1
 8009c04:	4614      	mov	r4, r2
 8009c06:	18d5      	adds	r5, r2, r3
 8009c08:	42ac      	cmp	r4, r5
 8009c0a:	d101      	bne.n	8009c10 <__sfputs_r+0x12>
 8009c0c:	2000      	movs	r0, #0
 8009c0e:	e007      	b.n	8009c20 <__sfputs_r+0x22>
 8009c10:	463a      	mov	r2, r7
 8009c12:	f814 1b01 	ldrb.w	r1, [r4], #1
 8009c16:	4630      	mov	r0, r6
 8009c18:	f7ff ffda 	bl	8009bd0 <__sfputc_r>
 8009c1c:	1c43      	adds	r3, r0, #1
 8009c1e:	d1f3      	bne.n	8009c08 <__sfputs_r+0xa>
 8009c20:	bdf8      	pop	{r3, r4, r5, r6, r7, pc}
	...

08009c24 <_vfiprintf_r>:
 8009c24:	e92d 4ff0 	stmdb	sp!, {r4, r5, r6, r7, r8, r9, sl, fp, lr}
 8009c28:	460c      	mov	r4, r1
 8009c2a:	b09d      	sub	sp, #116	; 0x74
 8009c2c:	4617      	mov	r7, r2
 8009c2e:	461d      	mov	r5, r3
 8009c30:	4606      	mov	r6, r0
 8009c32:	b118      	cbz	r0, 8009c3c <_vfiprintf_r+0x18>
 8009c34:	6983      	ldr	r3, [r0, #24]
 8009c36:	b90b      	cbnz	r3, 8009c3c <_vfiprintf_r+0x18>
 8009c38:	f7ff f9e2 	bl	8009000 <__sinit>
 8009c3c:	4b7c      	ldr	r3, [pc, #496]	; (8009e30 <_vfiprintf_r+0x20c>)
 8009c3e:	429c      	cmp	r4, r3
 8009c40:	d158      	bne.n	8009cf4 <_vfiprintf_r+0xd0>
 8009c42:	6874      	ldr	r4, [r6, #4]
 8009c44:	89a3      	ldrh	r3, [r4, #12]
 8009c46:	0718      	lsls	r0, r3, #28
 8009c48:	d55e      	bpl.n	8009d08 <_vfiprintf_r+0xe4>
 8009c4a:	6923      	ldr	r3, [r4, #16]
 8009c4c:	2b00      	cmp	r3, #0
 8009c4e:	d05b      	beq.n	8009d08 <_vfiprintf_r+0xe4>
 8009c50:	2300      	movs	r3, #0
 8009c52:	9309      	str	r3, [sp, #36]	; 0x24
 8009c54:	2320      	movs	r3, #32
 8009c56:	f88d 3029 	strb.w	r3, [sp, #41]	; 0x29
 8009c5a:	2330      	movs	r3, #48	; 0x30
 8009c5c:	f88d 302a 	strb.w	r3, [sp, #42]	; 0x2a
 8009c60:	9503      	str	r5, [sp, #12]
 8009c62:	f04f 0b01 	mov.w	fp, #1
 8009c66:	46b8      	mov	r8, r7
 8009c68:	4645      	mov	r5, r8
 8009c6a:	f815 3b01 	ldrb.w	r3, [r5], #1
 8009c6e:	b10b      	cbz	r3, 8009c74 <_vfiprintf_r+0x50>
 8009c70:	2b25      	cmp	r3, #37	; 0x25
 8009c72:	d154      	bne.n	8009d1e <_vfiprintf_r+0xfa>
 8009c74:	ebb8 0a07 	subs.w	sl, r8, r7
 8009c78:	d00b      	beq.n	8009c92 <_vfiprintf_r+0x6e>
 8009c7a:	4653      	mov	r3, sl
 8009c7c:	463a      	mov	r2, r7
 8009c7e:	4621      	mov	r1, r4
 8009c80:	4630      	mov	r0, r6
 8009c82:	f7ff ffbc 	bl	8009bfe <__sfputs_r>
 8009c86:	3001      	adds	r0, #1
 8009c88:	f000 80c2 	beq.w	8009e10 <_vfiprintf_r+0x1ec>
 8009c8c:	9b09      	ldr	r3, [sp, #36]	; 0x24
 8009c8e:	4453      	add	r3, sl
 8009c90:	9309      	str	r3, [sp, #36]	; 0x24
 8009c92:	f898 3000 	ldrb.w	r3, [r8]
 8009c96:	2b00      	cmp	r3, #0
 8009c98:	f000 80ba 	beq.w	8009e10 <_vfiprintf_r+0x1ec>
 8009c9c:	2300      	movs	r3, #0
 8009c9e:	f04f 32ff 	mov.w	r2, #4294967295	; 0xffffffff
 8009ca2:	e9cd 2305 	strd	r2, r3, [sp, #20]
 8009ca6:	9304      	str	r3, [sp, #16]
 8009ca8:	9307      	str	r3, [sp, #28]
 8009caa:	f88d 3053 	strb.w	r3, [sp, #83]	; 0x53
 8009cae:	931a      	str	r3, [sp, #104]	; 0x68
 8009cb0:	46a8      	mov	r8, r5
 8009cb2:	2205      	movs	r2, #5
 8009cb4:	f818 1b01 	ldrb.w	r1, [r8], #1
 8009cb8:	485e      	ldr	r0, [pc, #376]	; (8009e34 <_vfiprintf_r+0x210>)
 8009cba:	f7f7 f839 	bl	8000d30 <memchr>
 8009cbe:	9b04      	ldr	r3, [sp, #16]
 8009cc0:	bb78      	cbnz	r0, 8009d22 <_vfiprintf_r+0xfe>
 8009cc2:	06d9      	lsls	r1, r3, #27
 8009cc4:	bf44      	itt	mi
 8009cc6:	2220      	movmi	r2, #32
 8009cc8:	f88d 2053 	strbmi.w	r2, [sp, #83]	; 0x53
 8009ccc:	071a      	lsls	r2, r3, #28
 8009cce:	bf44      	itt	mi
 8009cd0:	222b      	movmi	r2, #43	; 0x2b
 8009cd2:	f88d 2053 	strbmi.w	r2, [sp, #83]	; 0x53
 8009cd6:	782a      	ldrb	r2, [r5, #0]
 8009cd8:	2a2a      	cmp	r2, #42	; 0x2a
 8009cda:	d02a      	beq.n	8009d32 <_vfiprintf_r+0x10e>
 8009cdc:	9a07      	ldr	r2, [sp, #28]
 8009cde:	46a8      	mov	r8, r5
 8009ce0:	2000      	movs	r0, #0
 8009ce2:	250a      	movs	r5, #10
 8009ce4:	4641      	mov	r1, r8
 8009ce6:	f811 3b01 	ldrb.w	r3, [r1], #1
 8009cea:	3b30      	subs	r3, #48	; 0x30
 8009cec:	2b09      	cmp	r3, #9
 8009cee:	d969      	bls.n	8009dc4 <_vfiprintf_r+0x1a0>
 8009cf0:	b360      	cbz	r0, 8009d4c <_vfiprintf_r+0x128>
 8009cf2:	e024      	b.n	8009d3e <_vfiprintf_r+0x11a>
 8009cf4:	4b50      	ldr	r3, [pc, #320]	; (8009e38 <_vfiprintf_r+0x214>)
 8009cf6:	429c      	cmp	r4, r3
 8009cf8:	d101      	bne.n	8009cfe <_vfiprintf_r+0xda>
 8009cfa:	68b4      	ldr	r4, [r6, #8]
 8009cfc:	e7a2      	b.n	8009c44 <_vfiprintf_r+0x20>
 8009cfe:	4b4f      	ldr	r3, [pc, #316]	; (8009e3c <_vfiprintf_r+0x218>)
 8009d00:	429c      	cmp	r4, r3
 8009d02:	bf08      	it	eq
 8009d04:	68f4      	ldreq	r4, [r6, #12]
 8009d06:	e79d      	b.n	8009c44 <_vfiprintf_r+0x20>
 8009d08:	4621      	mov	r1, r4
 8009d0a:	4630      	mov	r0, r6
 8009d0c:	f7fe f9d6 	bl	80080bc <__swsetup_r>
 8009d10:	2800      	cmp	r0, #0
 8009d12:	d09d      	beq.n	8009c50 <_vfiprintf_r+0x2c>
 8009d14:	f04f 30ff 	mov.w	r0, #4294967295	; 0xffffffff
 8009d18:	b01d      	add	sp, #116	; 0x74
 8009d1a:	e8bd 8ff0 	ldmia.w	sp!, {r4, r5, r6, r7, r8, r9, sl, fp, pc}
 8009d1e:	46a8      	mov	r8, r5
 8009d20:	e7a2      	b.n	8009c68 <_vfiprintf_r+0x44>
 8009d22:	4a44      	ldr	r2, [pc, #272]	; (8009e34 <_vfiprintf_r+0x210>)
 8009d24:	1a80      	subs	r0, r0, r2
 8009d26:	fa0b f000 	lsl.w	r0, fp, r0
 8009d2a:	4318      	orrs	r0, r3
 8009d2c:	9004      	str	r0, [sp, #16]
 8009d2e:	4645      	mov	r5, r8
 8009d30:	e7be      	b.n	8009cb0 <_vfiprintf_r+0x8c>
 8009d32:	9a03      	ldr	r2, [sp, #12]
 8009d34:	1d11      	adds	r1, r2, #4
 8009d36:	6812      	ldr	r2, [r2, #0]
 8009d38:	9103      	str	r1, [sp, #12]
 8009d3a:	2a00      	cmp	r2, #0
 8009d3c:	db01      	blt.n	8009d42 <_vfiprintf_r+0x11e>
 8009d3e:	9207      	str	r2, [sp, #28]
 8009d40:	e004      	b.n	8009d4c <_vfiprintf_r+0x128>
 8009d42:	4252      	negs	r2, r2
 8009d44:	f043 0302 	orr.w	r3, r3, #2
 8009d48:	9207      	str	r2, [sp, #28]
 8009d4a:	9304      	str	r3, [sp, #16]
 8009d4c:	f898 3000 	ldrb.w	r3, [r8]
 8009d50:	2b2e      	cmp	r3, #46	; 0x2e
 8009d52:	d10e      	bne.n	8009d72 <_vfiprintf_r+0x14e>
 8009d54:	f898 3001 	ldrb.w	r3, [r8, #1]
 8009d58:	2b2a      	cmp	r3, #42	; 0x2a
 8009d5a:	d138      	bne.n	8009dce <_vfiprintf_r+0x1aa>
 8009d5c:	9b03      	ldr	r3, [sp, #12]
 8009d5e:	1d1a      	adds	r2, r3, #4
 8009d60:	681b      	ldr	r3, [r3, #0]
 8009d62:	9203      	str	r2, [sp, #12]
 8009d64:	2b00      	cmp	r3, #0
 8009d66:	bfb8      	it	lt
 8009d68:	f04f 33ff 	movlt.w	r3, #4294967295	; 0xffffffff
 8009d6c:	f108 0802 	add.w	r8, r8, #2
 8009d70:	9305      	str	r3, [sp, #20]
 8009d72:	4d33      	ldr	r5, [pc, #204]	; (8009e40 <_vfiprintf_r+0x21c>)
 8009d74:	f898 1000 	ldrb.w	r1, [r8]
 8009d78:	2203      	movs	r2, #3
 8009d7a:	4628      	mov	r0, r5
 8009d7c:	f7f6 ffd8 	bl	8000d30 <memchr>
 8009d80:	b140      	cbz	r0, 8009d94 <_vfiprintf_r+0x170>
 8009d82:	2340      	movs	r3, #64	; 0x40
 8009d84:	1b40      	subs	r0, r0, r5
 8009d86:	fa03 f000 	lsl.w	r0, r3, r0
 8009d8a:	9b04      	ldr	r3, [sp, #16]
 8009d8c:	4303      	orrs	r3, r0
 8009d8e:	f108 0801 	add.w	r8, r8, #1
 8009d92:	9304      	str	r3, [sp, #16]
 8009d94:	f898 1000 	ldrb.w	r1, [r8]
 8009d98:	482a      	ldr	r0, [pc, #168]	; (8009e44 <_vfiprintf_r+0x220>)
 8009d9a:	f88d 1028 	strb.w	r1, [sp, #40]	; 0x28
 8009d9e:	2206      	movs	r2, #6
 8009da0:	f108 0701 	add.w	r7, r8, #1
 8009da4:	f7f6 ffc4 	bl	8000d30 <memchr>
 8009da8:	2800      	cmp	r0, #0
 8009daa:	d037      	beq.n	8009e1c <_vfiprintf_r+0x1f8>
 8009dac:	4b26      	ldr	r3, [pc, #152]	; (8009e48 <_vfiprintf_r+0x224>)
 8009dae:	bb1b      	cbnz	r3, 8009df8 <_vfiprintf_r+0x1d4>
 8009db0:	9b03      	ldr	r3, [sp, #12]
 8009db2:	3307      	adds	r3, #7
 8009db4:	f023 0307 	bic.w	r3, r3, #7
 8009db8:	3308      	adds	r3, #8
 8009dba:	9303      	str	r3, [sp, #12]
 8009dbc:	9b09      	ldr	r3, [sp, #36]	; 0x24
 8009dbe:	444b      	add	r3, r9
 8009dc0:	9309      	str	r3, [sp, #36]	; 0x24
 8009dc2:	e750      	b.n	8009c66 <_vfiprintf_r+0x42>
 8009dc4:	fb05 3202 	mla	r2, r5, r2, r3
 8009dc8:	2001      	movs	r0, #1
 8009dca:	4688      	mov	r8, r1
 8009dcc:	e78a      	b.n	8009ce4 <_vfiprintf_r+0xc0>
 8009dce:	2300      	movs	r3, #0
 8009dd0:	f108 0801 	add.w	r8, r8, #1
 8009dd4:	9305      	str	r3, [sp, #20]
 8009dd6:	4619      	mov	r1, r3
 8009dd8:	250a      	movs	r5, #10
 8009dda:	4640      	mov	r0, r8
 8009ddc:	f810 2b01 	ldrb.w	r2, [r0], #1
 8009de0:	3a30      	subs	r2, #48	; 0x30
 8009de2:	2a09      	cmp	r2, #9
 8009de4:	d903      	bls.n	8009dee <_vfiprintf_r+0x1ca>
 8009de6:	2b00      	cmp	r3, #0
 8009de8:	d0c3      	beq.n	8009d72 <_vfiprintf_r+0x14e>
 8009dea:	9105      	str	r1, [sp, #20]
 8009dec:	e7c1      	b.n	8009d72 <_vfiprintf_r+0x14e>
 8009dee:	fb05 2101 	mla	r1, r5, r1, r2
 8009df2:	2301      	movs	r3, #1
 8009df4:	4680      	mov	r8, r0
 8009df6:	e7f0      	b.n	8009dda <_vfiprintf_r+0x1b6>
 8009df8:	ab03      	add	r3, sp, #12
 8009dfa:	9300      	str	r3, [sp, #0]
 8009dfc:	4622      	mov	r2, r4
 8009dfe:	4b13      	ldr	r3, [pc, #76]	; (8009e4c <_vfiprintf_r+0x228>)
 8009e00:	a904      	add	r1, sp, #16
 8009e02:	4630      	mov	r0, r6
 8009e04:	f7fd fca4 	bl	8007750 <_printf_float>
 8009e08:	f1b0 3fff 	cmp.w	r0, #4294967295	; 0xffffffff
 8009e0c:	4681      	mov	r9, r0
 8009e0e:	d1d5      	bne.n	8009dbc <_vfiprintf_r+0x198>
 8009e10:	89a3      	ldrh	r3, [r4, #12]
 8009e12:	065b      	lsls	r3, r3, #25
 8009e14:	f53f af7e 	bmi.w	8009d14 <_vfiprintf_r+0xf0>
 8009e18:	9809      	ldr	r0, [sp, #36]	; 0x24
 8009e1a:	e77d      	b.n	8009d18 <_vfiprintf_r+0xf4>
 8009e1c:	ab03      	add	r3, sp, #12
 8009e1e:	9300      	str	r3, [sp, #0]
 8009e20:	4622      	mov	r2, r4
 8009e22:	4b0a      	ldr	r3, [pc, #40]	; (8009e4c <_vfiprintf_r+0x228>)
 8009e24:	a904      	add	r1, sp, #16
 8009e26:	4630      	mov	r0, r6
 8009e28:	f7fd ff48 	bl	8007cbc <_printf_i>
 8009e2c:	e7ec      	b.n	8009e08 <_vfiprintf_r+0x1e4>
 8009e2e:	bf00      	nop
 8009e30:	0800c368 	.word	0x0800c368
 8009e34:	0800c4a4 	.word	0x0800c4a4
 8009e38:	0800c388 	.word	0x0800c388
 8009e3c:	0800c348 	.word	0x0800c348
 8009e40:	0800c4aa 	.word	0x0800c4aa
 8009e44:	0800c4ae 	.word	0x0800c4ae
 8009e48:	08007751 	.word	0x08007751
 8009e4c:	08009bff 	.word	0x08009bff

08009e50 <_sbrk_r>:
 8009e50:	b538      	push	{r3, r4, r5, lr}
 8009e52:	4c06      	ldr	r4, [pc, #24]	; (8009e6c <_sbrk_r+0x1c>)
 8009e54:	2300      	movs	r3, #0
 8009e56:	4605      	mov	r5, r0
 8009e58:	4608      	mov	r0, r1
 8009e5a:	6023      	str	r3, [r4, #0]
 8009e5c:	f7fd fb38 	bl	80074d0 <_sbrk>
 8009e60:	1c43      	adds	r3, r0, #1
 8009e62:	d102      	bne.n	8009e6a <_sbrk_r+0x1a>
 8009e64:	6823      	ldr	r3, [r4, #0]
 8009e66:	b103      	cbz	r3, 8009e6a <_sbrk_r+0x1a>
 8009e68:	602b      	str	r3, [r5, #0]
 8009e6a:	bd38      	pop	{r3, r4, r5, pc}
 8009e6c:	2000075c 	.word	0x2000075c

08009e70 <__sread>:
 8009e70:	b510      	push	{r4, lr}
 8009e72:	460c      	mov	r4, r1
 8009e74:	f9b1 100e 	ldrsh.w	r1, [r1, #14]
 8009e78:	f000 f8e8 	bl	800a04c <_read_r>
 8009e7c:	2800      	cmp	r0, #0
 8009e7e:	bfab      	itete	ge
 8009e80:	6d63      	ldrge	r3, [r4, #84]	; 0x54
 8009e82:	89a3      	ldrhlt	r3, [r4, #12]
 8009e84:	181b      	addge	r3, r3, r0
 8009e86:	f423 5380 	biclt.w	r3, r3, #4096	; 0x1000
 8009e8a:	bfac      	ite	ge
 8009e8c:	6563      	strge	r3, [r4, #84]	; 0x54
 8009e8e:	81a3      	strhlt	r3, [r4, #12]
 8009e90:	bd10      	pop	{r4, pc}

08009e92 <__swrite>:
 8009e92:	e92d 41f0 	stmdb	sp!, {r4, r5, r6, r7, r8, lr}
 8009e96:	461f      	mov	r7, r3
 8009e98:	898b      	ldrh	r3, [r1, #12]
 8009e9a:	05db      	lsls	r3, r3, #23
 8009e9c:	4605      	mov	r5, r0
 8009e9e:	460c      	mov	r4, r1
 8009ea0:	4616      	mov	r6, r2
 8009ea2:	d505      	bpl.n	8009eb0 <__swrite+0x1e>
 8009ea4:	2302      	movs	r3, #2
 8009ea6:	2200      	movs	r2, #0
 8009ea8:	f9b1 100e 	ldrsh.w	r1, [r1, #14]
 8009eac:	f000 f868 	bl	8009f80 <_lseek_r>
 8009eb0:	89a3      	ldrh	r3, [r4, #12]
 8009eb2:	f9b4 100e 	ldrsh.w	r1, [r4, #14]
 8009eb6:	f423 5380 	bic.w	r3, r3, #4096	; 0x1000
 8009eba:	81a3      	strh	r3, [r4, #12]
 8009ebc:	4632      	mov	r2, r6
 8009ebe:	463b      	mov	r3, r7
 8009ec0:	4628      	mov	r0, r5
 8009ec2:	e8bd 41f0 	ldmia.w	sp!, {r4, r5, r6, r7, r8, lr}
 8009ec6:	f000 b817 	b.w	8009ef8 <_write_r>

08009eca <__sseek>:
 8009eca:	b510      	push	{r4, lr}
 8009ecc:	460c      	mov	r4, r1
 8009ece:	f9b1 100e 	ldrsh.w	r1, [r1, #14]
 8009ed2:	f000 f855 	bl	8009f80 <_lseek_r>
 8009ed6:	1c43      	adds	r3, r0, #1
 8009ed8:	89a3      	ldrh	r3, [r4, #12]
 8009eda:	bf15      	itete	ne
 8009edc:	6560      	strne	r0, [r4, #84]	; 0x54
 8009ede:	f423 5380 	biceq.w	r3, r3, #4096	; 0x1000
 8009ee2:	f443 5380 	orrne.w	r3, r3, #4096	; 0x1000
 8009ee6:	81a3      	strheq	r3, [r4, #12]
 8009ee8:	bf18      	it	ne
 8009eea:	81a3      	strhne	r3, [r4, #12]
 8009eec:	bd10      	pop	{r4, pc}

08009eee <__sclose>:
 8009eee:	f9b1 100e 	ldrsh.w	r1, [r1, #14]
 8009ef2:	f000 b813 	b.w	8009f1c <_close_r>
	...

08009ef8 <_write_r>:
 8009ef8:	b538      	push	{r3, r4, r5, lr}
 8009efa:	4c07      	ldr	r4, [pc, #28]	; (8009f18 <_write_r+0x20>)
 8009efc:	4605      	mov	r5, r0
 8009efe:	4608      	mov	r0, r1
 8009f00:	4611      	mov	r1, r2
 8009f02:	2200      	movs	r2, #0
 8009f04:	6022      	str	r2, [r4, #0]
 8009f06:	461a      	mov	r2, r3
 8009f08:	f7fc ff0e 	bl	8006d28 <_write>
 8009f0c:	1c43      	adds	r3, r0, #1
 8009f0e:	d102      	bne.n	8009f16 <_write_r+0x1e>
 8009f10:	6823      	ldr	r3, [r4, #0]
 8009f12:	b103      	cbz	r3, 8009f16 <_write_r+0x1e>
 8009f14:	602b      	str	r3, [r5, #0]
 8009f16:	bd38      	pop	{r3, r4, r5, pc}
 8009f18:	2000075c 	.word	0x2000075c

08009f1c <_close_r>:
 8009f1c:	b538      	push	{r3, r4, r5, lr}
 8009f1e:	4c06      	ldr	r4, [pc, #24]	; (8009f38 <_close_r+0x1c>)
 8009f20:	2300      	movs	r3, #0
 8009f22:	4605      	mov	r5, r0
 8009f24:	4608      	mov	r0, r1
 8009f26:	6023      	str	r3, [r4, #0]
 8009f28:	f7fd fac6 	bl	80074b8 <_close>
 8009f2c:	1c43      	adds	r3, r0, #1
 8009f2e:	d102      	bne.n	8009f36 <_close_r+0x1a>
 8009f30:	6823      	ldr	r3, [r4, #0]
 8009f32:	b103      	cbz	r3, 8009f36 <_close_r+0x1a>
 8009f34:	602b      	str	r3, [r5, #0]
 8009f36:	bd38      	pop	{r3, r4, r5, pc}
 8009f38:	2000075c 	.word	0x2000075c

08009f3c <_fstat_r>:
 8009f3c:	b538      	push	{r3, r4, r5, lr}
 8009f3e:	4c07      	ldr	r4, [pc, #28]	; (8009f5c <_fstat_r+0x20>)
 8009f40:	2300      	movs	r3, #0
 8009f42:	4605      	mov	r5, r0
 8009f44:	4608      	mov	r0, r1
 8009f46:	4611      	mov	r1, r2
 8009f48:	6023      	str	r3, [r4, #0]
 8009f4a:	f7fd fab8 	bl	80074be <_fstat>
 8009f4e:	1c43      	adds	r3, r0, #1
 8009f50:	d102      	bne.n	8009f58 <_fstat_r+0x1c>
 8009f52:	6823      	ldr	r3, [r4, #0]
 8009f54:	b103      	cbz	r3, 8009f58 <_fstat_r+0x1c>
 8009f56:	602b      	str	r3, [r5, #0]
 8009f58:	bd38      	pop	{r3, r4, r5, pc}
 8009f5a:	bf00      	nop
 8009f5c:	2000075c 	.word	0x2000075c

08009f60 <_isatty_r>:
 8009f60:	b538      	push	{r3, r4, r5, lr}
 8009f62:	4c06      	ldr	r4, [pc, #24]	; (8009f7c <_isatty_r+0x1c>)
 8009f64:	2300      	movs	r3, #0
 8009f66:	4605      	mov	r5, r0
 8009f68:	4608      	mov	r0, r1
 8009f6a:	6023      	str	r3, [r4, #0]
 8009f6c:	f7fd faac 	bl	80074c8 <_isatty>
 8009f70:	1c43      	adds	r3, r0, #1
 8009f72:	d102      	bne.n	8009f7a <_isatty_r+0x1a>
 8009f74:	6823      	ldr	r3, [r4, #0]
 8009f76:	b103      	cbz	r3, 8009f7a <_isatty_r+0x1a>
 8009f78:	602b      	str	r3, [r5, #0]
 8009f7a:	bd38      	pop	{r3, r4, r5, pc}
 8009f7c:	2000075c 	.word	0x2000075c

08009f80 <_lseek_r>:
 8009f80:	b538      	push	{r3, r4, r5, lr}
 8009f82:	4c07      	ldr	r4, [pc, #28]	; (8009fa0 <_lseek_r+0x20>)
 8009f84:	4605      	mov	r5, r0
 8009f86:	4608      	mov	r0, r1
 8009f88:	4611      	mov	r1, r2
 8009f8a:	2200      	movs	r2, #0
 8009f8c:	6022      	str	r2, [r4, #0]
 8009f8e:	461a      	mov	r2, r3
 8009f90:	f7fd fa9c 	bl	80074cc <_lseek>
 8009f94:	1c43      	adds	r3, r0, #1
 8009f96:	d102      	bne.n	8009f9e <_lseek_r+0x1e>
 8009f98:	6823      	ldr	r3, [r4, #0]
 8009f9a:	b103      	cbz	r3, 8009f9e <_lseek_r+0x1e>
 8009f9c:	602b      	str	r3, [r5, #0]
 8009f9e:	bd38      	pop	{r3, r4, r5, pc}
 8009fa0:	2000075c 	.word	0x2000075c

08009fa4 <__ascii_mbtowc>:
 8009fa4:	b082      	sub	sp, #8
 8009fa6:	b901      	cbnz	r1, 8009faa <__ascii_mbtowc+0x6>
 8009fa8:	a901      	add	r1, sp, #4
 8009faa:	b142      	cbz	r2, 8009fbe <__ascii_mbtowc+0x1a>
 8009fac:	b14b      	cbz	r3, 8009fc2 <__ascii_mbtowc+0x1e>
 8009fae:	7813      	ldrb	r3, [r2, #0]
 8009fb0:	600b      	str	r3, [r1, #0]
 8009fb2:	7812      	ldrb	r2, [r2, #0]
 8009fb4:	1c10      	adds	r0, r2, #0
 8009fb6:	bf18      	it	ne
 8009fb8:	2001      	movne	r0, #1
 8009fba:	b002      	add	sp, #8
 8009fbc:	4770      	bx	lr
 8009fbe:	4610      	mov	r0, r2
 8009fc0:	e7fb      	b.n	8009fba <__ascii_mbtowc+0x16>
 8009fc2:	f06f 0001 	mvn.w	r0, #1
 8009fc6:	e7f8      	b.n	8009fba <__ascii_mbtowc+0x16>

08009fc8 <memmove>:
 8009fc8:	4288      	cmp	r0, r1
 8009fca:	b510      	push	{r4, lr}
 8009fcc:	eb01 0302 	add.w	r3, r1, r2
 8009fd0:	d807      	bhi.n	8009fe2 <memmove+0x1a>
 8009fd2:	1e42      	subs	r2, r0, #1
 8009fd4:	4299      	cmp	r1, r3
 8009fd6:	d00a      	beq.n	8009fee <memmove+0x26>
 8009fd8:	f811 4b01 	ldrb.w	r4, [r1], #1
 8009fdc:	f802 4f01 	strb.w	r4, [r2, #1]!
 8009fe0:	e7f8      	b.n	8009fd4 <memmove+0xc>
 8009fe2:	4283      	cmp	r3, r0
 8009fe4:	d9f5      	bls.n	8009fd2 <memmove+0xa>
 8009fe6:	1881      	adds	r1, r0, r2
 8009fe8:	1ad2      	subs	r2, r2, r3
 8009fea:	42d3      	cmn	r3, r2
 8009fec:	d100      	bne.n	8009ff0 <memmove+0x28>
 8009fee:	bd10      	pop	{r4, pc}
 8009ff0:	f813 4d01 	ldrb.w	r4, [r3, #-1]!
 8009ff4:	f801 4d01 	strb.w	r4, [r1, #-1]!
 8009ff8:	e7f7      	b.n	8009fea <memmove+0x22>

08009ffa <__malloc_lock>:
 8009ffa:	4770      	bx	lr

08009ffc <__malloc_unlock>:
 8009ffc:	4770      	bx	lr

08009ffe <_realloc_r>:
 8009ffe:	b5f8      	push	{r3, r4, r5, r6, r7, lr}
 800a000:	4607      	mov	r7, r0
 800a002:	4614      	mov	r4, r2
 800a004:	460e      	mov	r6, r1
 800a006:	b921      	cbnz	r1, 800a012 <_realloc_r+0x14>
 800a008:	4611      	mov	r1, r2
 800a00a:	e8bd 40f8 	ldmia.w	sp!, {r3, r4, r5, r6, r7, lr}
 800a00e:	f7ff bc33 	b.w	8009878 <_malloc_r>
 800a012:	b922      	cbnz	r2, 800a01e <_realloc_r+0x20>
 800a014:	f7ff fbe2 	bl	80097dc <_free_r>
 800a018:	4625      	mov	r5, r4
 800a01a:	4628      	mov	r0, r5
 800a01c:	bdf8      	pop	{r3, r4, r5, r6, r7, pc}
 800a01e:	f000 f834 	bl	800a08a <_malloc_usable_size_r>
 800a022:	42a0      	cmp	r0, r4
 800a024:	d20f      	bcs.n	800a046 <_realloc_r+0x48>
 800a026:	4621      	mov	r1, r4
 800a028:	4638      	mov	r0, r7
 800a02a:	f7ff fc25 	bl	8009878 <_malloc_r>
 800a02e:	4605      	mov	r5, r0
 800a030:	2800      	cmp	r0, #0
 800a032:	d0f2      	beq.n	800a01a <_realloc_r+0x1c>
 800a034:	4631      	mov	r1, r6
 800a036:	4622      	mov	r2, r4
 800a038:	f7fd fae2 	bl	8007600 <memcpy>
 800a03c:	4631      	mov	r1, r6
 800a03e:	4638      	mov	r0, r7
 800a040:	f7ff fbcc 	bl	80097dc <_free_r>
 800a044:	e7e9      	b.n	800a01a <_realloc_r+0x1c>
 800a046:	4635      	mov	r5, r6
 800a048:	e7e7      	b.n	800a01a <_realloc_r+0x1c>
	...

0800a04c <_read_r>:
 800a04c:	b538      	push	{r3, r4, r5, lr}
 800a04e:	4c07      	ldr	r4, [pc, #28]	; (800a06c <_read_r+0x20>)
 800a050:	4605      	mov	r5, r0
 800a052:	4608      	mov	r0, r1
 800a054:	4611      	mov	r1, r2
 800a056:	2200      	movs	r2, #0
 800a058:	6022      	str	r2, [r4, #0]
 800a05a:	461a      	mov	r2, r3
 800a05c:	f7fd fa1e 	bl	800749c <_read>
 800a060:	1c43      	adds	r3, r0, #1
 800a062:	d102      	bne.n	800a06a <_read_r+0x1e>
 800a064:	6823      	ldr	r3, [r4, #0]
 800a066:	b103      	cbz	r3, 800a06a <_read_r+0x1e>
 800a068:	602b      	str	r3, [r5, #0]
 800a06a:	bd38      	pop	{r3, r4, r5, pc}
 800a06c:	2000075c 	.word	0x2000075c

0800a070 <__ascii_wctomb>:
 800a070:	b149      	cbz	r1, 800a086 <__ascii_wctomb+0x16>
 800a072:	2aff      	cmp	r2, #255	; 0xff
 800a074:	bf85      	ittet	hi
 800a076:	238a      	movhi	r3, #138	; 0x8a
 800a078:	6003      	strhi	r3, [r0, #0]
 800a07a:	700a      	strbls	r2, [r1, #0]
 800a07c:	f04f 30ff 	movhi.w	r0, #4294967295	; 0xffffffff
 800a080:	bf98      	it	ls
 800a082:	2001      	movls	r0, #1
 800a084:	4770      	bx	lr
 800a086:	4608      	mov	r0, r1
 800a088:	4770      	bx	lr

0800a08a <_malloc_usable_size_r>:
 800a08a:	f851 3c04 	ldr.w	r3, [r1, #-4]
 800a08e:	1f18      	subs	r0, r3, #4
 800a090:	2b00      	cmp	r3, #0
 800a092:	bfbc      	itt	lt
 800a094:	580b      	ldrlt	r3, [r1, r0]
 800a096:	18c0      	addlt	r0, r0, r3
 800a098:	4770      	bx	lr
	...

0800a09c <asin>:
 800a09c:	b5f0      	push	{r4, r5, r6, r7, lr}
 800a09e:	ed2d 8b02 	vpush	{d8}
 800a0a2:	4e26      	ldr	r6, [pc, #152]	; (800a13c <asin+0xa0>)
 800a0a4:	b08b      	sub	sp, #44	; 0x2c
 800a0a6:	ec55 4b10 	vmov	r4, r5, d0
 800a0aa:	f000 fa1d 	bl	800a4e8 <__ieee754_asin>
 800a0ae:	f996 3000 	ldrsb.w	r3, [r6]
 800a0b2:	eeb0 8a40 	vmov.f32	s16, s0
 800a0b6:	eef0 8a60 	vmov.f32	s17, s1
 800a0ba:	3301      	adds	r3, #1
 800a0bc:	d036      	beq.n	800a12c <asin+0x90>
 800a0be:	4622      	mov	r2, r4
 800a0c0:	462b      	mov	r3, r5
 800a0c2:	4620      	mov	r0, r4
 800a0c4:	4629      	mov	r1, r5
 800a0c6:	f7f6 ff0b 	bl	8000ee0 <__aeabi_dcmpun>
 800a0ca:	4607      	mov	r7, r0
 800a0cc:	bb70      	cbnz	r0, 800a12c <asin+0x90>
 800a0ce:	ec45 4b10 	vmov	d0, r4, r5
 800a0d2:	f001 fc59 	bl	800b988 <fabs>
 800a0d6:	2200      	movs	r2, #0
 800a0d8:	4b19      	ldr	r3, [pc, #100]	; (800a140 <asin+0xa4>)
 800a0da:	ec51 0b10 	vmov	r0, r1, d0
 800a0de:	f7f6 fef5 	bl	8000ecc <__aeabi_dcmpgt>
 800a0e2:	b318      	cbz	r0, 800a12c <asin+0x90>
 800a0e4:	2301      	movs	r3, #1
 800a0e6:	9300      	str	r3, [sp, #0]
 800a0e8:	4816      	ldr	r0, [pc, #88]	; (800a144 <asin+0xa8>)
 800a0ea:	4b17      	ldr	r3, [pc, #92]	; (800a148 <asin+0xac>)
 800a0ec:	9301      	str	r3, [sp, #4]
 800a0ee:	9708      	str	r7, [sp, #32]
 800a0f0:	e9cd 4504 	strd	r4, r5, [sp, #16]
 800a0f4:	e9cd 4502 	strd	r4, r5, [sp, #8]
 800a0f8:	f001 fc5a 	bl	800b9b0 <nan>
 800a0fc:	f996 3000 	ldrsb.w	r3, [r6]
 800a100:	2b02      	cmp	r3, #2
 800a102:	ed8d 0b06 	vstr	d0, [sp, #24]
 800a106:	d104      	bne.n	800a112 <asin+0x76>
 800a108:	f7fd fa50 	bl	80075ac <__errno>
 800a10c:	2321      	movs	r3, #33	; 0x21
 800a10e:	6003      	str	r3, [r0, #0]
 800a110:	e004      	b.n	800a11c <asin+0x80>
 800a112:	4668      	mov	r0, sp
 800a114:	f001 fc49 	bl	800b9aa <matherr>
 800a118:	2800      	cmp	r0, #0
 800a11a:	d0f5      	beq.n	800a108 <asin+0x6c>
 800a11c:	9b08      	ldr	r3, [sp, #32]
 800a11e:	b11b      	cbz	r3, 800a128 <asin+0x8c>
 800a120:	f7fd fa44 	bl	80075ac <__errno>
 800a124:	9b08      	ldr	r3, [sp, #32]
 800a126:	6003      	str	r3, [r0, #0]
 800a128:	ed9d 8b06 	vldr	d8, [sp, #24]
 800a12c:	eeb0 0a48 	vmov.f32	s0, s16
 800a130:	eef0 0a68 	vmov.f32	s1, s17
 800a134:	b00b      	add	sp, #44	; 0x2c
 800a136:	ecbd 8b02 	vpop	{d8}
 800a13a:	bdf0      	pop	{r4, r5, r6, r7, pc}
 800a13c:	20000264 	.word	0x20000264
 800a140:	3ff00000 	.word	0x3ff00000
 800a144:	0800c4a9 	.word	0x0800c4a9
 800a148:	0800c5c0 	.word	0x0800c5c0

0800a14c <atan2>:
 800a14c:	f000 bbdc 	b.w	800a908 <__ieee754_atan2>

0800a150 <pow>:
 800a150:	e92d 4ff0 	stmdb	sp!, {r4, r5, r6, r7, r8, r9, sl, fp, lr}
 800a154:	ed2d 8b04 	vpush	{d8-d9}
 800a158:	f8df 92d0 	ldr.w	r9, [pc, #720]	; 800a42c <pow+0x2dc>
 800a15c:	b08d      	sub	sp, #52	; 0x34
 800a15e:	ec57 6b10 	vmov	r6, r7, d0
 800a162:	ec55 4b11 	vmov	r4, r5, d1
 800a166:	f000 fcaf 	bl	800aac8 <__ieee754_pow>
 800a16a:	f999 3000 	ldrsb.w	r3, [r9]
 800a16e:	9300      	str	r3, [sp, #0]
 800a170:	3301      	adds	r3, #1
 800a172:	eeb0 8a40 	vmov.f32	s16, s0
 800a176:	eef0 8a60 	vmov.f32	s17, s1
 800a17a:	46c8      	mov	r8, r9
 800a17c:	d05f      	beq.n	800a23e <pow+0xee>
 800a17e:	4622      	mov	r2, r4
 800a180:	462b      	mov	r3, r5
 800a182:	4620      	mov	r0, r4
 800a184:	4629      	mov	r1, r5
 800a186:	f7f6 feab 	bl	8000ee0 <__aeabi_dcmpun>
 800a18a:	4683      	mov	fp, r0
 800a18c:	2800      	cmp	r0, #0
 800a18e:	d156      	bne.n	800a23e <pow+0xee>
 800a190:	4632      	mov	r2, r6
 800a192:	463b      	mov	r3, r7
 800a194:	4630      	mov	r0, r6
 800a196:	4639      	mov	r1, r7
 800a198:	f7f6 fea2 	bl	8000ee0 <__aeabi_dcmpun>
 800a19c:	9001      	str	r0, [sp, #4]
 800a19e:	b1e8      	cbz	r0, 800a1dc <pow+0x8c>
 800a1a0:	2200      	movs	r2, #0
 800a1a2:	2300      	movs	r3, #0
 800a1a4:	4620      	mov	r0, r4
 800a1a6:	4629      	mov	r1, r5
 800a1a8:	f7f6 fe68 	bl	8000e7c <__aeabi_dcmpeq>
 800a1ac:	2800      	cmp	r0, #0
 800a1ae:	d046      	beq.n	800a23e <pow+0xee>
 800a1b0:	2301      	movs	r3, #1
 800a1b2:	9302      	str	r3, [sp, #8]
 800a1b4:	4b96      	ldr	r3, [pc, #600]	; (800a410 <pow+0x2c0>)
 800a1b6:	9303      	str	r3, [sp, #12]
 800a1b8:	4b96      	ldr	r3, [pc, #600]	; (800a414 <pow+0x2c4>)
 800a1ba:	f8cd b028 	str.w	fp, [sp, #40]	; 0x28
 800a1be:	2200      	movs	r2, #0
 800a1c0:	e9cd 2308 	strd	r2, r3, [sp, #32]
 800a1c4:	9b00      	ldr	r3, [sp, #0]
 800a1c6:	2b02      	cmp	r3, #2
 800a1c8:	e9cd 6704 	strd	r6, r7, [sp, #16]
 800a1cc:	e9cd 4506 	strd	r4, r5, [sp, #24]
 800a1d0:	d033      	beq.n	800a23a <pow+0xea>
 800a1d2:	a802      	add	r0, sp, #8
 800a1d4:	f001 fbe9 	bl	800b9aa <matherr>
 800a1d8:	bb48      	cbnz	r0, 800a22e <pow+0xde>
 800a1da:	e05d      	b.n	800a298 <pow+0x148>
 800a1dc:	f04f 0a00 	mov.w	sl, #0
 800a1e0:	f04f 0b00 	mov.w	fp, #0
 800a1e4:	4652      	mov	r2, sl
 800a1e6:	465b      	mov	r3, fp
 800a1e8:	4630      	mov	r0, r6
 800a1ea:	4639      	mov	r1, r7
 800a1ec:	f7f6 fe46 	bl	8000e7c <__aeabi_dcmpeq>
 800a1f0:	ec4b ab19 	vmov	d9, sl, fp
 800a1f4:	2800      	cmp	r0, #0
 800a1f6:	d054      	beq.n	800a2a2 <pow+0x152>
 800a1f8:	4652      	mov	r2, sl
 800a1fa:	465b      	mov	r3, fp
 800a1fc:	4620      	mov	r0, r4
 800a1fe:	4629      	mov	r1, r5
 800a200:	f7f6 fe3c 	bl	8000e7c <__aeabi_dcmpeq>
 800a204:	4680      	mov	r8, r0
 800a206:	b318      	cbz	r0, 800a250 <pow+0x100>
 800a208:	2301      	movs	r3, #1
 800a20a:	9302      	str	r3, [sp, #8]
 800a20c:	4b80      	ldr	r3, [pc, #512]	; (800a410 <pow+0x2c0>)
 800a20e:	9303      	str	r3, [sp, #12]
 800a210:	9b01      	ldr	r3, [sp, #4]
 800a212:	930a      	str	r3, [sp, #40]	; 0x28
 800a214:	9b00      	ldr	r3, [sp, #0]
 800a216:	e9cd 6704 	strd	r6, r7, [sp, #16]
 800a21a:	e9cd 4506 	strd	r4, r5, [sp, #24]
 800a21e:	e9cd ab08 	strd	sl, fp, [sp, #32]
 800a222:	2b00      	cmp	r3, #0
 800a224:	d0d5      	beq.n	800a1d2 <pow+0x82>
 800a226:	4b7b      	ldr	r3, [pc, #492]	; (800a414 <pow+0x2c4>)
 800a228:	2200      	movs	r2, #0
 800a22a:	e9cd 2308 	strd	r2, r3, [sp, #32]
 800a22e:	9b0a      	ldr	r3, [sp, #40]	; 0x28
 800a230:	b11b      	cbz	r3, 800a23a <pow+0xea>
 800a232:	f7fd f9bb 	bl	80075ac <__errno>
 800a236:	9b0a      	ldr	r3, [sp, #40]	; 0x28
 800a238:	6003      	str	r3, [r0, #0]
 800a23a:	ed9d 8b08 	vldr	d8, [sp, #32]
 800a23e:	eeb0 0a48 	vmov.f32	s0, s16
 800a242:	eef0 0a68 	vmov.f32	s1, s17
 800a246:	b00d      	add	sp, #52	; 0x34
 800a248:	ecbd 8b04 	vpop	{d8-d9}
 800a24c:	e8bd 8ff0 	ldmia.w	sp!, {r4, r5, r6, r7, r8, r9, sl, fp, pc}
 800a250:	ec45 4b10 	vmov	d0, r4, r5
 800a254:	f001 fba1 	bl	800b99a <finite>
 800a258:	2800      	cmp	r0, #0
 800a25a:	d0f0      	beq.n	800a23e <pow+0xee>
 800a25c:	4652      	mov	r2, sl
 800a25e:	465b      	mov	r3, fp
 800a260:	4620      	mov	r0, r4
 800a262:	4629      	mov	r1, r5
 800a264:	f7f6 fe14 	bl	8000e90 <__aeabi_dcmplt>
 800a268:	2800      	cmp	r0, #0
 800a26a:	d0e8      	beq.n	800a23e <pow+0xee>
 800a26c:	2301      	movs	r3, #1
 800a26e:	9302      	str	r3, [sp, #8]
 800a270:	4b67      	ldr	r3, [pc, #412]	; (800a410 <pow+0x2c0>)
 800a272:	9303      	str	r3, [sp, #12]
 800a274:	f999 3000 	ldrsb.w	r3, [r9]
 800a278:	f8cd 8028 	str.w	r8, [sp, #40]	; 0x28
 800a27c:	e9cd 6704 	strd	r6, r7, [sp, #16]
 800a280:	e9cd 4506 	strd	r4, r5, [sp, #24]
 800a284:	b913      	cbnz	r3, 800a28c <pow+0x13c>
 800a286:	e9cd ab08 	strd	sl, fp, [sp, #32]
 800a28a:	e7a2      	b.n	800a1d2 <pow+0x82>
 800a28c:	4962      	ldr	r1, [pc, #392]	; (800a418 <pow+0x2c8>)
 800a28e:	2000      	movs	r0, #0
 800a290:	e9cd 0108 	strd	r0, r1, [sp, #32]
 800a294:	2b02      	cmp	r3, #2
 800a296:	d19c      	bne.n	800a1d2 <pow+0x82>
 800a298:	f7fd f988 	bl	80075ac <__errno>
 800a29c:	2321      	movs	r3, #33	; 0x21
 800a29e:	6003      	str	r3, [r0, #0]
 800a2a0:	e7c5      	b.n	800a22e <pow+0xde>
 800a2a2:	eeb0 0a48 	vmov.f32	s0, s16
 800a2a6:	eef0 0a68 	vmov.f32	s1, s17
 800a2aa:	f001 fb76 	bl	800b99a <finite>
 800a2ae:	9000      	str	r0, [sp, #0]
 800a2b0:	2800      	cmp	r0, #0
 800a2b2:	f040 8081 	bne.w	800a3b8 <pow+0x268>
 800a2b6:	ec47 6b10 	vmov	d0, r6, r7
 800a2ba:	f001 fb6e 	bl	800b99a <finite>
 800a2be:	2800      	cmp	r0, #0
 800a2c0:	d07a      	beq.n	800a3b8 <pow+0x268>
 800a2c2:	ec45 4b10 	vmov	d0, r4, r5
 800a2c6:	f001 fb68 	bl	800b99a <finite>
 800a2ca:	2800      	cmp	r0, #0
 800a2cc:	d074      	beq.n	800a3b8 <pow+0x268>
 800a2ce:	ec53 2b18 	vmov	r2, r3, d8
 800a2d2:	ee18 0a10 	vmov	r0, s16
 800a2d6:	4619      	mov	r1, r3
 800a2d8:	f7f6 fe02 	bl	8000ee0 <__aeabi_dcmpun>
 800a2dc:	f999 9000 	ldrsb.w	r9, [r9]
 800a2e0:	4b4b      	ldr	r3, [pc, #300]	; (800a410 <pow+0x2c0>)
 800a2e2:	b1b0      	cbz	r0, 800a312 <pow+0x1c2>
 800a2e4:	2201      	movs	r2, #1
 800a2e6:	e9cd 2302 	strd	r2, r3, [sp, #8]
 800a2ea:	9b00      	ldr	r3, [sp, #0]
 800a2ec:	930a      	str	r3, [sp, #40]	; 0x28
 800a2ee:	e9cd 6704 	strd	r6, r7, [sp, #16]
 800a2f2:	e9cd 4506 	strd	r4, r5, [sp, #24]
 800a2f6:	f1b9 0f00 	cmp.w	r9, #0
 800a2fa:	d0c4      	beq.n	800a286 <pow+0x136>
 800a2fc:	4652      	mov	r2, sl
 800a2fe:	465b      	mov	r3, fp
 800a300:	4650      	mov	r0, sl
 800a302:	4659      	mov	r1, fp
 800a304:	f7f6 fa52 	bl	80007ac <__aeabi_ddiv>
 800a308:	f1b9 0f02 	cmp.w	r9, #2
 800a30c:	e9cd 0108 	strd	r0, r1, [sp, #32]
 800a310:	e7c1      	b.n	800a296 <pow+0x146>
 800a312:	2203      	movs	r2, #3
 800a314:	e9cd 2302 	strd	r2, r3, [sp, #8]
 800a318:	900a      	str	r0, [sp, #40]	; 0x28
 800a31a:	4629      	mov	r1, r5
 800a31c:	4620      	mov	r0, r4
 800a31e:	2200      	movs	r2, #0
 800a320:	4b3e      	ldr	r3, [pc, #248]	; (800a41c <pow+0x2cc>)
 800a322:	e9cd 4506 	strd	r4, r5, [sp, #24]
 800a326:	e9cd 6704 	strd	r6, r7, [sp, #16]
 800a32a:	f7f6 f915 	bl	8000558 <__aeabi_dmul>
 800a32e:	4604      	mov	r4, r0
 800a330:	460d      	mov	r5, r1
 800a332:	f1b9 0f00 	cmp.w	r9, #0
 800a336:	d124      	bne.n	800a382 <pow+0x232>
 800a338:	4b39      	ldr	r3, [pc, #228]	; (800a420 <pow+0x2d0>)
 800a33a:	f04f 4260 	mov.w	r2, #3758096384	; 0xe0000000
 800a33e:	e9cd 2308 	strd	r2, r3, [sp, #32]
 800a342:	4630      	mov	r0, r6
 800a344:	4652      	mov	r2, sl
 800a346:	465b      	mov	r3, fp
 800a348:	4639      	mov	r1, r7
 800a34a:	f7f6 fda1 	bl	8000e90 <__aeabi_dcmplt>
 800a34e:	2800      	cmp	r0, #0
 800a350:	d056      	beq.n	800a400 <pow+0x2b0>
 800a352:	ec45 4b10 	vmov	d0, r4, r5
 800a356:	f001 fb33 	bl	800b9c0 <rint>
 800a35a:	4622      	mov	r2, r4
 800a35c:	462b      	mov	r3, r5
 800a35e:	ec51 0b10 	vmov	r0, r1, d0
 800a362:	f7f6 fd8b 	bl	8000e7c <__aeabi_dcmpeq>
 800a366:	b920      	cbnz	r0, 800a372 <pow+0x222>
 800a368:	4b2e      	ldr	r3, [pc, #184]	; (800a424 <pow+0x2d4>)
 800a36a:	f04f 4260 	mov.w	r2, #3758096384	; 0xe0000000
 800a36e:	e9cd 2308 	strd	r2, r3, [sp, #32]
 800a372:	f998 3000 	ldrsb.w	r3, [r8]
 800a376:	2b02      	cmp	r3, #2
 800a378:	d142      	bne.n	800a400 <pow+0x2b0>
 800a37a:	f7fd f917 	bl	80075ac <__errno>
 800a37e:	2322      	movs	r3, #34	; 0x22
 800a380:	e78d      	b.n	800a29e <pow+0x14e>
 800a382:	4b29      	ldr	r3, [pc, #164]	; (800a428 <pow+0x2d8>)
 800a384:	2200      	movs	r2, #0
 800a386:	e9cd 2308 	strd	r2, r3, [sp, #32]
 800a38a:	4630      	mov	r0, r6
 800a38c:	4652      	mov	r2, sl
 800a38e:	465b      	mov	r3, fp
 800a390:	4639      	mov	r1, r7
 800a392:	f7f6 fd7d 	bl	8000e90 <__aeabi_dcmplt>
 800a396:	2800      	cmp	r0, #0
 800a398:	d0eb      	beq.n	800a372 <pow+0x222>
 800a39a:	ec45 4b10 	vmov	d0, r4, r5
 800a39e:	f001 fb0f 	bl	800b9c0 <rint>
 800a3a2:	4622      	mov	r2, r4
 800a3a4:	462b      	mov	r3, r5
 800a3a6:	ec51 0b10 	vmov	r0, r1, d0
 800a3aa:	f7f6 fd67 	bl	8000e7c <__aeabi_dcmpeq>
 800a3ae:	2800      	cmp	r0, #0
 800a3b0:	d1df      	bne.n	800a372 <pow+0x222>
 800a3b2:	2200      	movs	r2, #0
 800a3b4:	4b18      	ldr	r3, [pc, #96]	; (800a418 <pow+0x2c8>)
 800a3b6:	e7da      	b.n	800a36e <pow+0x21e>
 800a3b8:	2200      	movs	r2, #0
 800a3ba:	2300      	movs	r3, #0
 800a3bc:	ec51 0b18 	vmov	r0, r1, d8
 800a3c0:	f7f6 fd5c 	bl	8000e7c <__aeabi_dcmpeq>
 800a3c4:	2800      	cmp	r0, #0
 800a3c6:	f43f af3a 	beq.w	800a23e <pow+0xee>
 800a3ca:	ec47 6b10 	vmov	d0, r6, r7
 800a3ce:	f001 fae4 	bl	800b99a <finite>
 800a3d2:	2800      	cmp	r0, #0
 800a3d4:	f43f af33 	beq.w	800a23e <pow+0xee>
 800a3d8:	ec45 4b10 	vmov	d0, r4, r5
 800a3dc:	f001 fadd 	bl	800b99a <finite>
 800a3e0:	2800      	cmp	r0, #0
 800a3e2:	f43f af2c 	beq.w	800a23e <pow+0xee>
 800a3e6:	2304      	movs	r3, #4
 800a3e8:	9302      	str	r3, [sp, #8]
 800a3ea:	4b09      	ldr	r3, [pc, #36]	; (800a410 <pow+0x2c0>)
 800a3ec:	9303      	str	r3, [sp, #12]
 800a3ee:	2300      	movs	r3, #0
 800a3f0:	930a      	str	r3, [sp, #40]	; 0x28
 800a3f2:	e9cd 6704 	strd	r6, r7, [sp, #16]
 800a3f6:	e9cd 4506 	strd	r4, r5, [sp, #24]
 800a3fa:	ed8d 9b08 	vstr	d9, [sp, #32]
 800a3fe:	e7b8      	b.n	800a372 <pow+0x222>
 800a400:	a802      	add	r0, sp, #8
 800a402:	f001 fad2 	bl	800b9aa <matherr>
 800a406:	2800      	cmp	r0, #0
 800a408:	f47f af11 	bne.w	800a22e <pow+0xde>
 800a40c:	e7b5      	b.n	800a37a <pow+0x22a>
 800a40e:	bf00      	nop
 800a410:	0800c5c5 	.word	0x0800c5c5
 800a414:	3ff00000 	.word	0x3ff00000
 800a418:	fff00000 	.word	0xfff00000
 800a41c:	3fe00000 	.word	0x3fe00000
 800a420:	47efffff 	.word	0x47efffff
 800a424:	c7efffff 	.word	0xc7efffff
 800a428:	7ff00000 	.word	0x7ff00000
 800a42c:	20000264 	.word	0x20000264

0800a430 <sqrt>:
 800a430:	e92d 43f0 	stmdb	sp!, {r4, r5, r6, r7, r8, r9, lr}
 800a434:	ed2d 8b02 	vpush	{d8}
 800a438:	b08b      	sub	sp, #44	; 0x2c
 800a43a:	ec55 4b10 	vmov	r4, r5, d0
 800a43e:	f001 f851 	bl	800b4e4 <__ieee754_sqrt>
 800a442:	4b26      	ldr	r3, [pc, #152]	; (800a4dc <sqrt+0xac>)
 800a444:	eeb0 8a40 	vmov.f32	s16, s0
 800a448:	eef0 8a60 	vmov.f32	s17, s1
 800a44c:	f993 6000 	ldrsb.w	r6, [r3]
 800a450:	1c73      	adds	r3, r6, #1
 800a452:	d02a      	beq.n	800a4aa <sqrt+0x7a>
 800a454:	4622      	mov	r2, r4
 800a456:	462b      	mov	r3, r5
 800a458:	4620      	mov	r0, r4
 800a45a:	4629      	mov	r1, r5
 800a45c:	f7f6 fd40 	bl	8000ee0 <__aeabi_dcmpun>
 800a460:	4607      	mov	r7, r0
 800a462:	bb10      	cbnz	r0, 800a4aa <sqrt+0x7a>
 800a464:	f04f 0800 	mov.w	r8, #0
 800a468:	f04f 0900 	mov.w	r9, #0
 800a46c:	4642      	mov	r2, r8
 800a46e:	464b      	mov	r3, r9
 800a470:	4620      	mov	r0, r4
 800a472:	4629      	mov	r1, r5
 800a474:	f7f6 fd0c 	bl	8000e90 <__aeabi_dcmplt>
 800a478:	b1b8      	cbz	r0, 800a4aa <sqrt+0x7a>
 800a47a:	2301      	movs	r3, #1
 800a47c:	9300      	str	r3, [sp, #0]
 800a47e:	4b18      	ldr	r3, [pc, #96]	; (800a4e0 <sqrt+0xb0>)
 800a480:	9301      	str	r3, [sp, #4]
 800a482:	9708      	str	r7, [sp, #32]
 800a484:	e9cd 4504 	strd	r4, r5, [sp, #16]
 800a488:	e9cd 4502 	strd	r4, r5, [sp, #8]
 800a48c:	b9b6      	cbnz	r6, 800a4bc <sqrt+0x8c>
 800a48e:	e9cd 8906 	strd	r8, r9, [sp, #24]
 800a492:	4668      	mov	r0, sp
 800a494:	f001 fa89 	bl	800b9aa <matherr>
 800a498:	b1d0      	cbz	r0, 800a4d0 <sqrt+0xa0>
 800a49a:	9b08      	ldr	r3, [sp, #32]
 800a49c:	b11b      	cbz	r3, 800a4a6 <sqrt+0x76>
 800a49e:	f7fd f885 	bl	80075ac <__errno>
 800a4a2:	9b08      	ldr	r3, [sp, #32]
 800a4a4:	6003      	str	r3, [r0, #0]
 800a4a6:	ed9d 8b06 	vldr	d8, [sp, #24]
 800a4aa:	eeb0 0a48 	vmov.f32	s0, s16
 800a4ae:	eef0 0a68 	vmov.f32	s1, s17
 800a4b2:	b00b      	add	sp, #44	; 0x2c
 800a4b4:	ecbd 8b02 	vpop	{d8}
 800a4b8:	e8bd 83f0 	ldmia.w	sp!, {r4, r5, r6, r7, r8, r9, pc}
 800a4bc:	4642      	mov	r2, r8
 800a4be:	464b      	mov	r3, r9
 800a4c0:	4640      	mov	r0, r8
 800a4c2:	4649      	mov	r1, r9
 800a4c4:	f7f6 f972 	bl	80007ac <__aeabi_ddiv>
 800a4c8:	2e02      	cmp	r6, #2
 800a4ca:	e9cd 0106 	strd	r0, r1, [sp, #24]
 800a4ce:	d1e0      	bne.n	800a492 <sqrt+0x62>
 800a4d0:	f7fd f86c 	bl	80075ac <__errno>
 800a4d4:	2321      	movs	r3, #33	; 0x21
 800a4d6:	6003      	str	r3, [r0, #0]
 800a4d8:	e7df      	b.n	800a49a <sqrt+0x6a>
 800a4da:	bf00      	nop
 800a4dc:	20000264 	.word	0x20000264
 800a4e0:	0800c5c9 	.word	0x0800c5c9
 800a4e4:	00000000 	.word	0x00000000

0800a4e8 <__ieee754_asin>:
 800a4e8:	e92d 4ff0 	stmdb	sp!, {r4, r5, r6, r7, r8, r9, sl, fp, lr}
 800a4ec:	ec55 4b10 	vmov	r4, r5, d0
 800a4f0:	4bcb      	ldr	r3, [pc, #812]	; (800a820 <__ieee754_asin+0x338>)
 800a4f2:	b087      	sub	sp, #28
 800a4f4:	f025 4700 	bic.w	r7, r5, #2147483648	; 0x80000000
 800a4f8:	429f      	cmp	r7, r3
 800a4fa:	9501      	str	r5, [sp, #4]
 800a4fc:	dd31      	ble.n	800a562 <__ieee754_asin+0x7a>
 800a4fe:	f107 4740 	add.w	r7, r7, #3221225472	; 0xc0000000
 800a502:	ee10 3a10 	vmov	r3, s0
 800a506:	f507 1780 	add.w	r7, r7, #1048576	; 0x100000
 800a50a:	433b      	orrs	r3, r7
 800a50c:	d117      	bne.n	800a53e <__ieee754_asin+0x56>
 800a50e:	a3aa      	add	r3, pc, #680	; (adr r3, 800a7b8 <__ieee754_asin+0x2d0>)
 800a510:	e9d3 2300 	ldrd	r2, r3, [r3]
 800a514:	ee10 0a10 	vmov	r0, s0
 800a518:	4629      	mov	r1, r5
 800a51a:	f7f6 f81d 	bl	8000558 <__aeabi_dmul>
 800a51e:	a3a8      	add	r3, pc, #672	; (adr r3, 800a7c0 <__ieee754_asin+0x2d8>)
 800a520:	e9d3 2300 	ldrd	r2, r3, [r3]
 800a524:	4606      	mov	r6, r0
 800a526:	460f      	mov	r7, r1
 800a528:	4620      	mov	r0, r4
 800a52a:	4629      	mov	r1, r5
 800a52c:	f7f6 f814 	bl	8000558 <__aeabi_dmul>
 800a530:	4602      	mov	r2, r0
 800a532:	460b      	mov	r3, r1
 800a534:	4630      	mov	r0, r6
 800a536:	4639      	mov	r1, r7
 800a538:	f7f5 fe58 	bl	80001ec <__adddf3>
 800a53c:	e00a      	b.n	800a554 <__ieee754_asin+0x6c>
 800a53e:	ee10 2a10 	vmov	r2, s0
 800a542:	462b      	mov	r3, r5
 800a544:	4620      	mov	r0, r4
 800a546:	4629      	mov	r1, r5
 800a548:	f7f5 fe4e 	bl	80001e8 <__aeabi_dsub>
 800a54c:	4602      	mov	r2, r0
 800a54e:	460b      	mov	r3, r1
 800a550:	f7f6 f92c 	bl	80007ac <__aeabi_ddiv>
 800a554:	4604      	mov	r4, r0
 800a556:	460d      	mov	r5, r1
 800a558:	ec45 4b10 	vmov	d0, r4, r5
 800a55c:	b007      	add	sp, #28
 800a55e:	e8bd 8ff0 	ldmia.w	sp!, {r4, r5, r6, r7, r8, r9, sl, fp, pc}
 800a562:	4bb0      	ldr	r3, [pc, #704]	; (800a824 <__ieee754_asin+0x33c>)
 800a564:	429f      	cmp	r7, r3
 800a566:	dc11      	bgt.n	800a58c <__ieee754_asin+0xa4>
 800a568:	f1b7 5f79 	cmp.w	r7, #1044381696	; 0x3e400000
 800a56c:	f280 80ae 	bge.w	800a6cc <__ieee754_asin+0x1e4>
 800a570:	a395      	add	r3, pc, #596	; (adr r3, 800a7c8 <__ieee754_asin+0x2e0>)
 800a572:	e9d3 2300 	ldrd	r2, r3, [r3]
 800a576:	ee10 0a10 	vmov	r0, s0
 800a57a:	4629      	mov	r1, r5
 800a57c:	f7f5 fe36 	bl	80001ec <__adddf3>
 800a580:	2200      	movs	r2, #0
 800a582:	4ba9      	ldr	r3, [pc, #676]	; (800a828 <__ieee754_asin+0x340>)
 800a584:	f7f6 fca2 	bl	8000ecc <__aeabi_dcmpgt>
 800a588:	2800      	cmp	r0, #0
 800a58a:	d1e5      	bne.n	800a558 <__ieee754_asin+0x70>
 800a58c:	ec45 4b10 	vmov	d0, r4, r5
 800a590:	f001 f9fa 	bl	800b988 <fabs>
 800a594:	2000      	movs	r0, #0
 800a596:	ec53 2b10 	vmov	r2, r3, d0
 800a59a:	49a3      	ldr	r1, [pc, #652]	; (800a828 <__ieee754_asin+0x340>)
 800a59c:	f7f5 fe24 	bl	80001e8 <__aeabi_dsub>
 800a5a0:	2200      	movs	r2, #0
 800a5a2:	4ba2      	ldr	r3, [pc, #648]	; (800a82c <__ieee754_asin+0x344>)
 800a5a4:	f7f5 ffd8 	bl	8000558 <__aeabi_dmul>
 800a5a8:	a389      	add	r3, pc, #548	; (adr r3, 800a7d0 <__ieee754_asin+0x2e8>)
 800a5aa:	e9d3 2300 	ldrd	r2, r3, [r3]
 800a5ae:	4604      	mov	r4, r0
 800a5b0:	460d      	mov	r5, r1
 800a5b2:	f7f5 ffd1 	bl	8000558 <__aeabi_dmul>
 800a5b6:	a388      	add	r3, pc, #544	; (adr r3, 800a7d8 <__ieee754_asin+0x2f0>)
 800a5b8:	e9d3 2300 	ldrd	r2, r3, [r3]
 800a5bc:	f7f5 fe16 	bl	80001ec <__adddf3>
 800a5c0:	4622      	mov	r2, r4
 800a5c2:	462b      	mov	r3, r5
 800a5c4:	f7f5 ffc8 	bl	8000558 <__aeabi_dmul>
 800a5c8:	a385      	add	r3, pc, #532	; (adr r3, 800a7e0 <__ieee754_asin+0x2f8>)
 800a5ca:	e9d3 2300 	ldrd	r2, r3, [r3]
 800a5ce:	f7f5 fe0b 	bl	80001e8 <__aeabi_dsub>
 800a5d2:	4622      	mov	r2, r4
 800a5d4:	462b      	mov	r3, r5
 800a5d6:	f7f5 ffbf 	bl	8000558 <__aeabi_dmul>
 800a5da:	a383      	add	r3, pc, #524	; (adr r3, 800a7e8 <__ieee754_asin+0x300>)
 800a5dc:	e9d3 2300 	ldrd	r2, r3, [r3]
 800a5e0:	f7f5 fe04 	bl	80001ec <__adddf3>
 800a5e4:	4622      	mov	r2, r4
 800a5e6:	462b      	mov	r3, r5
 800a5e8:	f7f5 ffb6 	bl	8000558 <__aeabi_dmul>
 800a5ec:	a380      	add	r3, pc, #512	; (adr r3, 800a7f0 <__ieee754_asin+0x308>)
 800a5ee:	e9d3 2300 	ldrd	r2, r3, [r3]
 800a5f2:	f7f5 fdf9 	bl	80001e8 <__aeabi_dsub>
 800a5f6:	4622      	mov	r2, r4
 800a5f8:	462b      	mov	r3, r5
 800a5fa:	f7f5 ffad 	bl	8000558 <__aeabi_dmul>
 800a5fe:	a37e      	add	r3, pc, #504	; (adr r3, 800a7f8 <__ieee754_asin+0x310>)
 800a600:	e9d3 2300 	ldrd	r2, r3, [r3]
 800a604:	f7f5 fdf2 	bl	80001ec <__adddf3>
 800a608:	4622      	mov	r2, r4
 800a60a:	462b      	mov	r3, r5
 800a60c:	f7f5 ffa4 	bl	8000558 <__aeabi_dmul>
 800a610:	a37b      	add	r3, pc, #492	; (adr r3, 800a800 <__ieee754_asin+0x318>)
 800a612:	e9d3 2300 	ldrd	r2, r3, [r3]
 800a616:	4680      	mov	r8, r0
 800a618:	4689      	mov	r9, r1
 800a61a:	4620      	mov	r0, r4
 800a61c:	4629      	mov	r1, r5
 800a61e:	f7f5 ff9b 	bl	8000558 <__aeabi_dmul>
 800a622:	a379      	add	r3, pc, #484	; (adr r3, 800a808 <__ieee754_asin+0x320>)
 800a624:	e9d3 2300 	ldrd	r2, r3, [r3]
 800a628:	f7f5 fdde 	bl	80001e8 <__aeabi_dsub>
 800a62c:	4622      	mov	r2, r4
 800a62e:	462b      	mov	r3, r5
 800a630:	f7f5 ff92 	bl	8000558 <__aeabi_dmul>
 800a634:	a376      	add	r3, pc, #472	; (adr r3, 800a810 <__ieee754_asin+0x328>)
 800a636:	e9d3 2300 	ldrd	r2, r3, [r3]
 800a63a:	f7f5 fdd7 	bl	80001ec <__adddf3>
 800a63e:	4622      	mov	r2, r4
 800a640:	462b      	mov	r3, r5
 800a642:	f7f5 ff89 	bl	8000558 <__aeabi_dmul>
 800a646:	a374      	add	r3, pc, #464	; (adr r3, 800a818 <__ieee754_asin+0x330>)
 800a648:	e9d3 2300 	ldrd	r2, r3, [r3]
 800a64c:	f7f5 fdcc 	bl	80001e8 <__aeabi_dsub>
 800a650:	4622      	mov	r2, r4
 800a652:	462b      	mov	r3, r5
 800a654:	f7f5 ff80 	bl	8000558 <__aeabi_dmul>
 800a658:	4b73      	ldr	r3, [pc, #460]	; (800a828 <__ieee754_asin+0x340>)
 800a65a:	2200      	movs	r2, #0
 800a65c:	f7f5 fdc6 	bl	80001ec <__adddf3>
 800a660:	ec45 4b10 	vmov	d0, r4, r5
 800a664:	e9cd 0102 	strd	r0, r1, [sp, #8]
 800a668:	f000 ff3c 	bl	800b4e4 <__ieee754_sqrt>
 800a66c:	4b70      	ldr	r3, [pc, #448]	; (800a830 <__ieee754_asin+0x348>)
 800a66e:	429f      	cmp	r7, r3
 800a670:	ec5b ab10 	vmov	sl, fp, d0
 800a674:	f340 80de 	ble.w	800a834 <__ieee754_asin+0x34c>
 800a678:	e9dd 2302 	ldrd	r2, r3, [sp, #8]
 800a67c:	4640      	mov	r0, r8
 800a67e:	4649      	mov	r1, r9
 800a680:	f7f6 f894 	bl	80007ac <__aeabi_ddiv>
 800a684:	4652      	mov	r2, sl
 800a686:	465b      	mov	r3, fp
 800a688:	f7f5 ff66 	bl	8000558 <__aeabi_dmul>
 800a68c:	4652      	mov	r2, sl
 800a68e:	465b      	mov	r3, fp
 800a690:	f7f5 fdac 	bl	80001ec <__adddf3>
 800a694:	4602      	mov	r2, r0
 800a696:	460b      	mov	r3, r1
 800a698:	f7f5 fda8 	bl	80001ec <__adddf3>
 800a69c:	a348      	add	r3, pc, #288	; (adr r3, 800a7c0 <__ieee754_asin+0x2d8>)
 800a69e:	e9d3 2300 	ldrd	r2, r3, [r3]
 800a6a2:	f7f5 fda1 	bl	80001e8 <__aeabi_dsub>
 800a6a6:	4602      	mov	r2, r0
 800a6a8:	460b      	mov	r3, r1
 800a6aa:	a143      	add	r1, pc, #268	; (adr r1, 800a7b8 <__ieee754_asin+0x2d0>)
 800a6ac:	e9d1 0100 	ldrd	r0, r1, [r1]
 800a6b0:	f7f5 fd9a 	bl	80001e8 <__aeabi_dsub>
 800a6b4:	9b01      	ldr	r3, [sp, #4]
 800a6b6:	2b00      	cmp	r3, #0
 800a6b8:	bfdc      	itt	le
 800a6ba:	4602      	movle	r2, r0
 800a6bc:	f101 4300 	addle.w	r3, r1, #2147483648	; 0x80000000
 800a6c0:	4604      	mov	r4, r0
 800a6c2:	460d      	mov	r5, r1
 800a6c4:	bfdc      	itt	le
 800a6c6:	4614      	movle	r4, r2
 800a6c8:	461d      	movle	r5, r3
 800a6ca:	e745      	b.n	800a558 <__ieee754_asin+0x70>
 800a6cc:	ee10 2a10 	vmov	r2, s0
 800a6d0:	ee10 0a10 	vmov	r0, s0
 800a6d4:	462b      	mov	r3, r5
 800a6d6:	4629      	mov	r1, r5
 800a6d8:	f7f5 ff3e 	bl	8000558 <__aeabi_dmul>
 800a6dc:	a33c      	add	r3, pc, #240	; (adr r3, 800a7d0 <__ieee754_asin+0x2e8>)
 800a6de:	e9d3 2300 	ldrd	r2, r3, [r3]
 800a6e2:	4606      	mov	r6, r0
 800a6e4:	460f      	mov	r7, r1
 800a6e6:	f7f5 ff37 	bl	8000558 <__aeabi_dmul>
 800a6ea:	a33b      	add	r3, pc, #236	; (adr r3, 800a7d8 <__ieee754_asin+0x2f0>)
 800a6ec:	e9d3 2300 	ldrd	r2, r3, [r3]
 800a6f0:	f7f5 fd7c 	bl	80001ec <__adddf3>
 800a6f4:	4632      	mov	r2, r6
 800a6f6:	463b      	mov	r3, r7
 800a6f8:	f7f5 ff2e 	bl	8000558 <__aeabi_dmul>
 800a6fc:	a338      	add	r3, pc, #224	; (adr r3, 800a7e0 <__ieee754_asin+0x2f8>)
 800a6fe:	e9d3 2300 	ldrd	r2, r3, [r3]
 800a702:	f7f5 fd71 	bl	80001e8 <__aeabi_dsub>
 800a706:	4632      	mov	r2, r6
 800a708:	463b      	mov	r3, r7
 800a70a:	f7f5 ff25 	bl	8000558 <__aeabi_dmul>
 800a70e:	a336      	add	r3, pc, #216	; (adr r3, 800a7e8 <__ieee754_asin+0x300>)
 800a710:	e9d3 2300 	ldrd	r2, r3, [r3]
 800a714:	f7f5 fd6a 	bl	80001ec <__adddf3>
 800a718:	4632      	mov	r2, r6
 800a71a:	463b      	mov	r3, r7
 800a71c:	f7f5 ff1c 	bl	8000558 <__aeabi_dmul>
 800a720:	a333      	add	r3, pc, #204	; (adr r3, 800a7f0 <__ieee754_asin+0x308>)
 800a722:	e9d3 2300 	ldrd	r2, r3, [r3]
 800a726:	f7f5 fd5f 	bl	80001e8 <__aeabi_dsub>
 800a72a:	4632      	mov	r2, r6
 800a72c:	463b      	mov	r3, r7
 800a72e:	f7f5 ff13 	bl	8000558 <__aeabi_dmul>
 800a732:	a331      	add	r3, pc, #196	; (adr r3, 800a7f8 <__ieee754_asin+0x310>)
 800a734:	e9d3 2300 	ldrd	r2, r3, [r3]
 800a738:	f7f5 fd58 	bl	80001ec <__adddf3>
 800a73c:	4632      	mov	r2, r6
 800a73e:	463b      	mov	r3, r7
 800a740:	f7f5 ff0a 	bl	8000558 <__aeabi_dmul>
 800a744:	a32e      	add	r3, pc, #184	; (adr r3, 800a800 <__ieee754_asin+0x318>)
 800a746:	e9d3 2300 	ldrd	r2, r3, [r3]
 800a74a:	4680      	mov	r8, r0
 800a74c:	4689      	mov	r9, r1
 800a74e:	4630      	mov	r0, r6
 800a750:	4639      	mov	r1, r7
 800a752:	f7f5 ff01 	bl	8000558 <__aeabi_dmul>
 800a756:	a32c      	add	r3, pc, #176	; (adr r3, 800a808 <__ieee754_asin+0x320>)
 800a758:	e9d3 2300 	ldrd	r2, r3, [r3]
 800a75c:	f7f5 fd44 	bl	80001e8 <__aeabi_dsub>
 800a760:	4632      	mov	r2, r6
 800a762:	463b      	mov	r3, r7
 800a764:	f7f5 fef8 	bl	8000558 <__aeabi_dmul>
 800a768:	a329      	add	r3, pc, #164	; (adr r3, 800a810 <__ieee754_asin+0x328>)
 800a76a:	e9d3 2300 	ldrd	r2, r3, [r3]
 800a76e:	f7f5 fd3d 	bl	80001ec <__adddf3>
 800a772:	4632      	mov	r2, r6
 800a774:	463b      	mov	r3, r7
 800a776:	f7f5 feef 	bl	8000558 <__aeabi_dmul>
 800a77a:	a327      	add	r3, pc, #156	; (adr r3, 800a818 <__ieee754_asin+0x330>)
 800a77c:	e9d3 2300 	ldrd	r2, r3, [r3]
 800a780:	f7f5 fd32 	bl	80001e8 <__aeabi_dsub>
 800a784:	4632      	mov	r2, r6
 800a786:	463b      	mov	r3, r7
 800a788:	f7f5 fee6 	bl	8000558 <__aeabi_dmul>
 800a78c:	2200      	movs	r2, #0
 800a78e:	4b26      	ldr	r3, [pc, #152]	; (800a828 <__ieee754_asin+0x340>)
 800a790:	f7f5 fd2c 	bl	80001ec <__adddf3>
 800a794:	4602      	mov	r2, r0
 800a796:	460b      	mov	r3, r1
 800a798:	4640      	mov	r0, r8
 800a79a:	4649      	mov	r1, r9
 800a79c:	f7f6 f806 	bl	80007ac <__aeabi_ddiv>
 800a7a0:	4622      	mov	r2, r4
 800a7a2:	462b      	mov	r3, r5
 800a7a4:	f7f5 fed8 	bl	8000558 <__aeabi_dmul>
 800a7a8:	4602      	mov	r2, r0
 800a7aa:	460b      	mov	r3, r1
 800a7ac:	4620      	mov	r0, r4
 800a7ae:	4629      	mov	r1, r5
 800a7b0:	e6c2      	b.n	800a538 <__ieee754_asin+0x50>
 800a7b2:	bf00      	nop
 800a7b4:	f3af 8000 	nop.w
 800a7b8:	54442d18 	.word	0x54442d18
 800a7bc:	3ff921fb 	.word	0x3ff921fb
 800a7c0:	33145c07 	.word	0x33145c07
 800a7c4:	3c91a626 	.word	0x3c91a626
 800a7c8:	8800759c 	.word	0x8800759c
 800a7cc:	7e37e43c 	.word	0x7e37e43c
 800a7d0:	0dfdf709 	.word	0x0dfdf709
 800a7d4:	3f023de1 	.word	0x3f023de1
 800a7d8:	7501b288 	.word	0x7501b288
 800a7dc:	3f49efe0 	.word	0x3f49efe0
 800a7e0:	b5688f3b 	.word	0xb5688f3b
 800a7e4:	3fa48228 	.word	0x3fa48228
 800a7e8:	0e884455 	.word	0x0e884455
 800a7ec:	3fc9c155 	.word	0x3fc9c155
 800a7f0:	03eb6f7d 	.word	0x03eb6f7d
 800a7f4:	3fd4d612 	.word	0x3fd4d612
 800a7f8:	55555555 	.word	0x55555555
 800a7fc:	3fc55555 	.word	0x3fc55555
 800a800:	b12e9282 	.word	0xb12e9282
 800a804:	3fb3b8c5 	.word	0x3fb3b8c5
 800a808:	1b8d0159 	.word	0x1b8d0159
 800a80c:	3fe6066c 	.word	0x3fe6066c
 800a810:	9c598ac8 	.word	0x9c598ac8
 800a814:	40002ae5 	.word	0x40002ae5
 800a818:	1c8a2d4b 	.word	0x1c8a2d4b
 800a81c:	40033a27 	.word	0x40033a27
 800a820:	3fefffff 	.word	0x3fefffff
 800a824:	3fdfffff 	.word	0x3fdfffff
 800a828:	3ff00000 	.word	0x3ff00000
 800a82c:	3fe00000 	.word	0x3fe00000
 800a830:	3fef3332 	.word	0x3fef3332
 800a834:	ee10 2a10 	vmov	r2, s0
 800a838:	ee10 0a10 	vmov	r0, s0
 800a83c:	465b      	mov	r3, fp
 800a83e:	4659      	mov	r1, fp
 800a840:	f7f5 fcd4 	bl	80001ec <__adddf3>
 800a844:	e9dd 2302 	ldrd	r2, r3, [sp, #8]
 800a848:	e9cd 0104 	strd	r0, r1, [sp, #16]
 800a84c:	4640      	mov	r0, r8
 800a84e:	4649      	mov	r1, r9
 800a850:	f7f5 ffac 	bl	80007ac <__aeabi_ddiv>
 800a854:	4602      	mov	r2, r0
 800a856:	460b      	mov	r3, r1
 800a858:	e9dd 0104 	ldrd	r0, r1, [sp, #16]
 800a85c:	f7f5 fe7c 	bl	8000558 <__aeabi_dmul>
 800a860:	2600      	movs	r6, #0
 800a862:	4680      	mov	r8, r0
 800a864:	4689      	mov	r9, r1
 800a866:	4632      	mov	r2, r6
 800a868:	465b      	mov	r3, fp
 800a86a:	4630      	mov	r0, r6
 800a86c:	4659      	mov	r1, fp
 800a86e:	f7f5 fe73 	bl	8000558 <__aeabi_dmul>
 800a872:	4602      	mov	r2, r0
 800a874:	460b      	mov	r3, r1
 800a876:	4620      	mov	r0, r4
 800a878:	4629      	mov	r1, r5
 800a87a:	f7f5 fcb5 	bl	80001e8 <__aeabi_dsub>
 800a87e:	4632      	mov	r2, r6
 800a880:	4604      	mov	r4, r0
 800a882:	460d      	mov	r5, r1
 800a884:	465b      	mov	r3, fp
 800a886:	4650      	mov	r0, sl
 800a888:	4659      	mov	r1, fp
 800a88a:	f7f5 fcaf 	bl	80001ec <__adddf3>
 800a88e:	4602      	mov	r2, r0
 800a890:	460b      	mov	r3, r1
 800a892:	4620      	mov	r0, r4
 800a894:	4629      	mov	r1, r5
 800a896:	f7f5 ff89 	bl	80007ac <__aeabi_ddiv>
 800a89a:	4602      	mov	r2, r0
 800a89c:	460b      	mov	r3, r1
 800a89e:	f7f5 fca5 	bl	80001ec <__adddf3>
 800a8a2:	4602      	mov	r2, r0
 800a8a4:	460b      	mov	r3, r1
 800a8a6:	a114      	add	r1, pc, #80	; (adr r1, 800a8f8 <__ieee754_asin+0x410>)
 800a8a8:	e9d1 0100 	ldrd	r0, r1, [r1]
 800a8ac:	f7f5 fc9c 	bl	80001e8 <__aeabi_dsub>
 800a8b0:	4602      	mov	r2, r0
 800a8b2:	460b      	mov	r3, r1
 800a8b4:	4640      	mov	r0, r8
 800a8b6:	4649      	mov	r1, r9
 800a8b8:	f7f5 fc96 	bl	80001e8 <__aeabi_dsub>
 800a8bc:	465f      	mov	r7, fp
 800a8be:	4604      	mov	r4, r0
 800a8c0:	460d      	mov	r5, r1
 800a8c2:	4632      	mov	r2, r6
 800a8c4:	465b      	mov	r3, fp
 800a8c6:	4630      	mov	r0, r6
 800a8c8:	4639      	mov	r1, r7
 800a8ca:	f7f5 fc8f 	bl	80001ec <__adddf3>
 800a8ce:	4602      	mov	r2, r0
 800a8d0:	460b      	mov	r3, r1
 800a8d2:	a10b      	add	r1, pc, #44	; (adr r1, 800a900 <__ieee754_asin+0x418>)
 800a8d4:	e9d1 0100 	ldrd	r0, r1, [r1]
 800a8d8:	f7f5 fc86 	bl	80001e8 <__aeabi_dsub>
 800a8dc:	4602      	mov	r2, r0
 800a8de:	460b      	mov	r3, r1
 800a8e0:	4620      	mov	r0, r4
 800a8e2:	4629      	mov	r1, r5
 800a8e4:	f7f5 fc80 	bl	80001e8 <__aeabi_dsub>
 800a8e8:	4602      	mov	r2, r0
 800a8ea:	460b      	mov	r3, r1
 800a8ec:	a104      	add	r1, pc, #16	; (adr r1, 800a900 <__ieee754_asin+0x418>)
 800a8ee:	e9d1 0100 	ldrd	r0, r1, [r1]
 800a8f2:	e6dd      	b.n	800a6b0 <__ieee754_asin+0x1c8>
 800a8f4:	f3af 8000 	nop.w
 800a8f8:	33145c07 	.word	0x33145c07
 800a8fc:	3c91a626 	.word	0x3c91a626
 800a900:	54442d18 	.word	0x54442d18
 800a904:	3fe921fb 	.word	0x3fe921fb

0800a908 <__ieee754_atan2>:
 800a908:	e92d 43f8 	stmdb	sp!, {r3, r4, r5, r6, r7, r8, r9, lr}
 800a90c:	ec57 6b11 	vmov	r6, r7, d1
 800a910:	4273      	negs	r3, r6
 800a912:	f027 4200 	bic.w	r2, r7, #2147483648	; 0x80000000
 800a916:	4333      	orrs	r3, r6
 800a918:	f8df e1a4 	ldr.w	lr, [pc, #420]	; 800aac0 <__ieee754_atan2+0x1b8>
 800a91c:	ea42 73d3 	orr.w	r3, r2, r3, lsr #31
 800a920:	4573      	cmp	r3, lr
 800a922:	ec51 0b10 	vmov	r0, r1, d0
 800a926:	ee11 8a10 	vmov	r8, s2
 800a92a:	d80a      	bhi.n	800a942 <__ieee754_atan2+0x3a>
 800a92c:	4244      	negs	r4, r0
 800a92e:	f021 4300 	bic.w	r3, r1, #2147483648	; 0x80000000
 800a932:	4304      	orrs	r4, r0
 800a934:	ea43 74d4 	orr.w	r4, r3, r4, lsr #31
 800a938:	4574      	cmp	r4, lr
 800a93a:	468c      	mov	ip, r1
 800a93c:	ee10 9a10 	vmov	r9, s0
 800a940:	d907      	bls.n	800a952 <__ieee754_atan2+0x4a>
 800a942:	4632      	mov	r2, r6
 800a944:	463b      	mov	r3, r7
 800a946:	f7f5 fc51 	bl	80001ec <__adddf3>
 800a94a:	ec41 0b10 	vmov	d0, r0, r1
 800a94e:	e8bd 83f8 	ldmia.w	sp!, {r3, r4, r5, r6, r7, r8, r9, pc}
 800a952:	f107 4440 	add.w	r4, r7, #3221225472	; 0xc0000000
 800a956:	f504 1480 	add.w	r4, r4, #1048576	; 0x100000
 800a95a:	4334      	orrs	r4, r6
 800a95c:	d103      	bne.n	800a966 <__ieee754_atan2+0x5e>
 800a95e:	e8bd 43f8 	ldmia.w	sp!, {r3, r4, r5, r6, r7, r8, r9, lr}
 800a962:	f000 be71 	b.w	800b648 <atan>
 800a966:	17bc      	asrs	r4, r7, #30
 800a968:	f004 0402 	and.w	r4, r4, #2
 800a96c:	ea53 0909 	orrs.w	r9, r3, r9
 800a970:	ea44 74d1 	orr.w	r4, r4, r1, lsr #31
 800a974:	d107      	bne.n	800a986 <__ieee754_atan2+0x7e>
 800a976:	2c02      	cmp	r4, #2
 800a978:	d073      	beq.n	800aa62 <__ieee754_atan2+0x15a>
 800a97a:	2c03      	cmp	r4, #3
 800a97c:	d1e5      	bne.n	800a94a <__ieee754_atan2+0x42>
 800a97e:	a13e      	add	r1, pc, #248	; (adr r1, 800aa78 <__ieee754_atan2+0x170>)
 800a980:	e9d1 0100 	ldrd	r0, r1, [r1]
 800a984:	e7e1      	b.n	800a94a <__ieee754_atan2+0x42>
 800a986:	ea52 0808 	orrs.w	r8, r2, r8
 800a98a:	d106      	bne.n	800a99a <__ieee754_atan2+0x92>
 800a98c:	f1bc 0f00 	cmp.w	ip, #0
 800a990:	da6b      	bge.n	800aa6a <__ieee754_atan2+0x162>
 800a992:	a13b      	add	r1, pc, #236	; (adr r1, 800aa80 <__ieee754_atan2+0x178>)
 800a994:	e9d1 0100 	ldrd	r0, r1, [r1]
 800a998:	e7d7      	b.n	800a94a <__ieee754_atan2+0x42>
 800a99a:	4572      	cmp	r2, lr
 800a99c:	d120      	bne.n	800a9e0 <__ieee754_atan2+0xd8>
 800a99e:	4293      	cmp	r3, r2
 800a9a0:	d111      	bne.n	800a9c6 <__ieee754_atan2+0xbe>
 800a9a2:	2c02      	cmp	r4, #2
 800a9a4:	d007      	beq.n	800a9b6 <__ieee754_atan2+0xae>
 800a9a6:	2c03      	cmp	r4, #3
 800a9a8:	d009      	beq.n	800a9be <__ieee754_atan2+0xb6>
 800a9aa:	2c01      	cmp	r4, #1
 800a9ac:	d155      	bne.n	800aa5a <__ieee754_atan2+0x152>
 800a9ae:	a136      	add	r1, pc, #216	; (adr r1, 800aa88 <__ieee754_atan2+0x180>)
 800a9b0:	e9d1 0100 	ldrd	r0, r1, [r1]
 800a9b4:	e7c9      	b.n	800a94a <__ieee754_atan2+0x42>
 800a9b6:	a136      	add	r1, pc, #216	; (adr r1, 800aa90 <__ieee754_atan2+0x188>)
 800a9b8:	e9d1 0100 	ldrd	r0, r1, [r1]
 800a9bc:	e7c5      	b.n	800a94a <__ieee754_atan2+0x42>
 800a9be:	a136      	add	r1, pc, #216	; (adr r1, 800aa98 <__ieee754_atan2+0x190>)
 800a9c0:	e9d1 0100 	ldrd	r0, r1, [r1]
 800a9c4:	e7c1      	b.n	800a94a <__ieee754_atan2+0x42>
 800a9c6:	2c02      	cmp	r4, #2
 800a9c8:	d04b      	beq.n	800aa62 <__ieee754_atan2+0x15a>
 800a9ca:	2c03      	cmp	r4, #3
 800a9cc:	d0d7      	beq.n	800a97e <__ieee754_atan2+0x76>
 800a9ce:	2c01      	cmp	r4, #1
 800a9d0:	f04f 0000 	mov.w	r0, #0
 800a9d4:	d102      	bne.n	800a9dc <__ieee754_atan2+0xd4>
 800a9d6:	f04f 4100 	mov.w	r1, #2147483648	; 0x80000000
 800a9da:	e7b6      	b.n	800a94a <__ieee754_atan2+0x42>
 800a9dc:	2100      	movs	r1, #0
 800a9de:	e7b4      	b.n	800a94a <__ieee754_atan2+0x42>
 800a9e0:	4573      	cmp	r3, lr
 800a9e2:	d0d3      	beq.n	800a98c <__ieee754_atan2+0x84>
 800a9e4:	1a9b      	subs	r3, r3, r2
 800a9e6:	151b      	asrs	r3, r3, #20
 800a9e8:	2b3c      	cmp	r3, #60	; 0x3c
 800a9ea:	dc1e      	bgt.n	800aa2a <__ieee754_atan2+0x122>
 800a9ec:	2f00      	cmp	r7, #0
 800a9ee:	da01      	bge.n	800a9f4 <__ieee754_atan2+0xec>
 800a9f0:	333c      	adds	r3, #60	; 0x3c
 800a9f2:	db1e      	blt.n	800aa32 <__ieee754_atan2+0x12a>
 800a9f4:	4632      	mov	r2, r6
 800a9f6:	463b      	mov	r3, r7
 800a9f8:	f7f5 fed8 	bl	80007ac <__aeabi_ddiv>
 800a9fc:	ec41 0b10 	vmov	d0, r0, r1
 800aa00:	f000 ffc2 	bl	800b988 <fabs>
 800aa04:	f000 fe20 	bl	800b648 <atan>
 800aa08:	ec51 0b10 	vmov	r0, r1, d0
 800aa0c:	2c01      	cmp	r4, #1
 800aa0e:	d013      	beq.n	800aa38 <__ieee754_atan2+0x130>
 800aa10:	2c02      	cmp	r4, #2
 800aa12:	d015      	beq.n	800aa40 <__ieee754_atan2+0x138>
 800aa14:	2c00      	cmp	r4, #0
 800aa16:	d098      	beq.n	800a94a <__ieee754_atan2+0x42>
 800aa18:	a321      	add	r3, pc, #132	; (adr r3, 800aaa0 <__ieee754_atan2+0x198>)
 800aa1a:	e9d3 2300 	ldrd	r2, r3, [r3]
 800aa1e:	f7f5 fbe3 	bl	80001e8 <__aeabi_dsub>
 800aa22:	a321      	add	r3, pc, #132	; (adr r3, 800aaa8 <__ieee754_atan2+0x1a0>)
 800aa24:	e9d3 2300 	ldrd	r2, r3, [r3]
 800aa28:	e014      	b.n	800aa54 <__ieee754_atan2+0x14c>
 800aa2a:	a121      	add	r1, pc, #132	; (adr r1, 800aab0 <__ieee754_atan2+0x1a8>)
 800aa2c:	e9d1 0100 	ldrd	r0, r1, [r1]
 800aa30:	e7ec      	b.n	800aa0c <__ieee754_atan2+0x104>
 800aa32:	2000      	movs	r0, #0
 800aa34:	2100      	movs	r1, #0
 800aa36:	e7e9      	b.n	800aa0c <__ieee754_atan2+0x104>
 800aa38:	f101 4300 	add.w	r3, r1, #2147483648	; 0x80000000
 800aa3c:	4619      	mov	r1, r3
 800aa3e:	e784      	b.n	800a94a <__ieee754_atan2+0x42>
 800aa40:	a317      	add	r3, pc, #92	; (adr r3, 800aaa0 <__ieee754_atan2+0x198>)
 800aa42:	e9d3 2300 	ldrd	r2, r3, [r3]
 800aa46:	f7f5 fbcf 	bl	80001e8 <__aeabi_dsub>
 800aa4a:	4602      	mov	r2, r0
 800aa4c:	460b      	mov	r3, r1
 800aa4e:	a116      	add	r1, pc, #88	; (adr r1, 800aaa8 <__ieee754_atan2+0x1a0>)
 800aa50:	e9d1 0100 	ldrd	r0, r1, [r1]
 800aa54:	f7f5 fbc8 	bl	80001e8 <__aeabi_dsub>
 800aa58:	e777      	b.n	800a94a <__ieee754_atan2+0x42>
 800aa5a:	a117      	add	r1, pc, #92	; (adr r1, 800aab8 <__ieee754_atan2+0x1b0>)
 800aa5c:	e9d1 0100 	ldrd	r0, r1, [r1]
 800aa60:	e773      	b.n	800a94a <__ieee754_atan2+0x42>
 800aa62:	a111      	add	r1, pc, #68	; (adr r1, 800aaa8 <__ieee754_atan2+0x1a0>)
 800aa64:	e9d1 0100 	ldrd	r0, r1, [r1]
 800aa68:	e76f      	b.n	800a94a <__ieee754_atan2+0x42>
 800aa6a:	a111      	add	r1, pc, #68	; (adr r1, 800aab0 <__ieee754_atan2+0x1a8>)
 800aa6c:	e9d1 0100 	ldrd	r0, r1, [r1]
 800aa70:	e76b      	b.n	800a94a <__ieee754_atan2+0x42>
 800aa72:	bf00      	nop
 800aa74:	f3af 8000 	nop.w
 800aa78:	54442d18 	.word	0x54442d18
 800aa7c:	c00921fb 	.word	0xc00921fb
 800aa80:	54442d18 	.word	0x54442d18
 800aa84:	bff921fb 	.word	0xbff921fb
 800aa88:	54442d18 	.word	0x54442d18
 800aa8c:	bfe921fb 	.word	0xbfe921fb
 800aa90:	7f3321d2 	.word	0x7f3321d2
 800aa94:	4002d97c 	.word	0x4002d97c
 800aa98:	7f3321d2 	.word	0x7f3321d2
 800aa9c:	c002d97c 	.word	0xc002d97c
 800aaa0:	33145c07 	.word	0x33145c07
 800aaa4:	3ca1a626 	.word	0x3ca1a626
 800aaa8:	54442d18 	.word	0x54442d18
 800aaac:	400921fb 	.word	0x400921fb
 800aab0:	54442d18 	.word	0x54442d18
 800aab4:	3ff921fb 	.word	0x3ff921fb
 800aab8:	54442d18 	.word	0x54442d18
 800aabc:	3fe921fb 	.word	0x3fe921fb
 800aac0:	7ff00000 	.word	0x7ff00000
 800aac4:	00000000 	.word	0x00000000

0800aac8 <__ieee754_pow>:
 800aac8:	e92d 4ff0 	stmdb	sp!, {r4, r5, r6, r7, r8, r9, sl, fp, lr}
 800aacc:	b091      	sub	sp, #68	; 0x44
 800aace:	ed8d 1b00 	vstr	d1, [sp]
 800aad2:	e9dd 2900 	ldrd	r2, r9, [sp]
 800aad6:	f029 4800 	bic.w	r8, r9, #2147483648	; 0x80000000
 800aada:	ea58 0302 	orrs.w	r3, r8, r2
 800aade:	ec57 6b10 	vmov	r6, r7, d0
 800aae2:	f000 84be 	beq.w	800b462 <__ieee754_pow+0x99a>
 800aae6:	4b7a      	ldr	r3, [pc, #488]	; (800acd0 <__ieee754_pow+0x208>)
 800aae8:	f027 4400 	bic.w	r4, r7, #2147483648	; 0x80000000
 800aaec:	429c      	cmp	r4, r3
 800aaee:	463d      	mov	r5, r7
 800aaf0:	ee10 aa10 	vmov	sl, s0
 800aaf4:	dc09      	bgt.n	800ab0a <__ieee754_pow+0x42>
 800aaf6:	d103      	bne.n	800ab00 <__ieee754_pow+0x38>
 800aaf8:	b93e      	cbnz	r6, 800ab0a <__ieee754_pow+0x42>
 800aafa:	45a0      	cmp	r8, r4
 800aafc:	dc0d      	bgt.n	800ab1a <__ieee754_pow+0x52>
 800aafe:	e001      	b.n	800ab04 <__ieee754_pow+0x3c>
 800ab00:	4598      	cmp	r8, r3
 800ab02:	dc02      	bgt.n	800ab0a <__ieee754_pow+0x42>
 800ab04:	4598      	cmp	r8, r3
 800ab06:	d10e      	bne.n	800ab26 <__ieee754_pow+0x5e>
 800ab08:	b16a      	cbz	r2, 800ab26 <__ieee754_pow+0x5e>
 800ab0a:	f104 4440 	add.w	r4, r4, #3221225472	; 0xc0000000
 800ab0e:	f504 1480 	add.w	r4, r4, #1048576	; 0x100000
 800ab12:	ea54 030a 	orrs.w	r3, r4, sl
 800ab16:	f000 84a4 	beq.w	800b462 <__ieee754_pow+0x99a>
 800ab1a:	486e      	ldr	r0, [pc, #440]	; (800acd4 <__ieee754_pow+0x20c>)
 800ab1c:	b011      	add	sp, #68	; 0x44
 800ab1e:	e8bd 4ff0 	ldmia.w	sp!, {r4, r5, r6, r7, r8, r9, sl, fp, lr}
 800ab22:	f000 bf45 	b.w	800b9b0 <nan>
 800ab26:	2d00      	cmp	r5, #0
 800ab28:	da53      	bge.n	800abd2 <__ieee754_pow+0x10a>
 800ab2a:	4b6b      	ldr	r3, [pc, #428]	; (800acd8 <__ieee754_pow+0x210>)
 800ab2c:	4598      	cmp	r8, r3
 800ab2e:	dc4d      	bgt.n	800abcc <__ieee754_pow+0x104>
 800ab30:	f1a3 7354 	sub.w	r3, r3, #55574528	; 0x3500000
 800ab34:	4598      	cmp	r8, r3
 800ab36:	dd4c      	ble.n	800abd2 <__ieee754_pow+0x10a>
 800ab38:	ea4f 5328 	mov.w	r3, r8, asr #20
 800ab3c:	f2a3 33ff 	subw	r3, r3, #1023	; 0x3ff
 800ab40:	2b14      	cmp	r3, #20
 800ab42:	dd26      	ble.n	800ab92 <__ieee754_pow+0xca>
 800ab44:	f1c3 0334 	rsb	r3, r3, #52	; 0x34
 800ab48:	fa22 f103 	lsr.w	r1, r2, r3
 800ab4c:	fa01 f303 	lsl.w	r3, r1, r3
 800ab50:	4293      	cmp	r3, r2
 800ab52:	d13e      	bne.n	800abd2 <__ieee754_pow+0x10a>
 800ab54:	f001 0101 	and.w	r1, r1, #1
 800ab58:	f1c1 0b02 	rsb	fp, r1, #2
 800ab5c:	2a00      	cmp	r2, #0
 800ab5e:	d15b      	bne.n	800ac18 <__ieee754_pow+0x150>
 800ab60:	4b5b      	ldr	r3, [pc, #364]	; (800acd0 <__ieee754_pow+0x208>)
 800ab62:	4598      	cmp	r8, r3
 800ab64:	d124      	bne.n	800abb0 <__ieee754_pow+0xe8>
 800ab66:	f104 4340 	add.w	r3, r4, #3221225472	; 0xc0000000
 800ab6a:	f503 1380 	add.w	r3, r3, #1048576	; 0x100000
 800ab6e:	ea53 030a 	orrs.w	r3, r3, sl
 800ab72:	f000 8476 	beq.w	800b462 <__ieee754_pow+0x99a>
 800ab76:	4b59      	ldr	r3, [pc, #356]	; (800acdc <__ieee754_pow+0x214>)
 800ab78:	429c      	cmp	r4, r3
 800ab7a:	dd2d      	ble.n	800abd8 <__ieee754_pow+0x110>
 800ab7c:	f1b9 0f00 	cmp.w	r9, #0
 800ab80:	f280 8473 	bge.w	800b46a <__ieee754_pow+0x9a2>
 800ab84:	2000      	movs	r0, #0
 800ab86:	2100      	movs	r1, #0
 800ab88:	ec41 0b10 	vmov	d0, r0, r1
 800ab8c:	b011      	add	sp, #68	; 0x44
 800ab8e:	e8bd 8ff0 	ldmia.w	sp!, {r4, r5, r6, r7, r8, r9, sl, fp, pc}
 800ab92:	2a00      	cmp	r2, #0
 800ab94:	d13e      	bne.n	800ac14 <__ieee754_pow+0x14c>
 800ab96:	f1c3 0314 	rsb	r3, r3, #20
 800ab9a:	fa48 f103 	asr.w	r1, r8, r3
 800ab9e:	fa01 f303 	lsl.w	r3, r1, r3
 800aba2:	4543      	cmp	r3, r8
 800aba4:	f040 8469 	bne.w	800b47a <__ieee754_pow+0x9b2>
 800aba8:	f001 0101 	and.w	r1, r1, #1
 800abac:	f1c1 0b02 	rsb	fp, r1, #2
 800abb0:	4b4b      	ldr	r3, [pc, #300]	; (800ace0 <__ieee754_pow+0x218>)
 800abb2:	4598      	cmp	r8, r3
 800abb4:	d118      	bne.n	800abe8 <__ieee754_pow+0x120>
 800abb6:	f1b9 0f00 	cmp.w	r9, #0
 800abba:	f280 845a 	bge.w	800b472 <__ieee754_pow+0x9aa>
 800abbe:	4948      	ldr	r1, [pc, #288]	; (800ace0 <__ieee754_pow+0x218>)
 800abc0:	4632      	mov	r2, r6
 800abc2:	463b      	mov	r3, r7
 800abc4:	2000      	movs	r0, #0
 800abc6:	f7f5 fdf1 	bl	80007ac <__aeabi_ddiv>
 800abca:	e7dd      	b.n	800ab88 <__ieee754_pow+0xc0>
 800abcc:	f04f 0b02 	mov.w	fp, #2
 800abd0:	e7c4      	b.n	800ab5c <__ieee754_pow+0x94>
 800abd2:	f04f 0b00 	mov.w	fp, #0
 800abd6:	e7c1      	b.n	800ab5c <__ieee754_pow+0x94>
 800abd8:	f1b9 0f00 	cmp.w	r9, #0
 800abdc:	dad2      	bge.n	800ab84 <__ieee754_pow+0xbc>
 800abde:	e9dd 0300 	ldrd	r0, r3, [sp]
 800abe2:	f103 4100 	add.w	r1, r3, #2147483648	; 0x80000000
 800abe6:	e7cf      	b.n	800ab88 <__ieee754_pow+0xc0>
 800abe8:	f1b9 4f80 	cmp.w	r9, #1073741824	; 0x40000000
 800abec:	d106      	bne.n	800abfc <__ieee754_pow+0x134>
 800abee:	4632      	mov	r2, r6
 800abf0:	463b      	mov	r3, r7
 800abf2:	4610      	mov	r0, r2
 800abf4:	4619      	mov	r1, r3
 800abf6:	f7f5 fcaf 	bl	8000558 <__aeabi_dmul>
 800abfa:	e7c5      	b.n	800ab88 <__ieee754_pow+0xc0>
 800abfc:	4b39      	ldr	r3, [pc, #228]	; (800ace4 <__ieee754_pow+0x21c>)
 800abfe:	4599      	cmp	r9, r3
 800ac00:	d10a      	bne.n	800ac18 <__ieee754_pow+0x150>
 800ac02:	2d00      	cmp	r5, #0
 800ac04:	db08      	blt.n	800ac18 <__ieee754_pow+0x150>
 800ac06:	ec47 6b10 	vmov	d0, r6, r7
 800ac0a:	b011      	add	sp, #68	; 0x44
 800ac0c:	e8bd 4ff0 	ldmia.w	sp!, {r4, r5, r6, r7, r8, r9, sl, fp, lr}
 800ac10:	f000 bc68 	b.w	800b4e4 <__ieee754_sqrt>
 800ac14:	f04f 0b00 	mov.w	fp, #0
 800ac18:	ec47 6b10 	vmov	d0, r6, r7
 800ac1c:	f000 feb4 	bl	800b988 <fabs>
 800ac20:	ec51 0b10 	vmov	r0, r1, d0
 800ac24:	f1ba 0f00 	cmp.w	sl, #0
 800ac28:	d127      	bne.n	800ac7a <__ieee754_pow+0x1b2>
 800ac2a:	b124      	cbz	r4, 800ac36 <__ieee754_pow+0x16e>
 800ac2c:	4b2c      	ldr	r3, [pc, #176]	; (800ace0 <__ieee754_pow+0x218>)
 800ac2e:	f025 4240 	bic.w	r2, r5, #3221225472	; 0xc0000000
 800ac32:	429a      	cmp	r2, r3
 800ac34:	d121      	bne.n	800ac7a <__ieee754_pow+0x1b2>
 800ac36:	f1b9 0f00 	cmp.w	r9, #0
 800ac3a:	da05      	bge.n	800ac48 <__ieee754_pow+0x180>
 800ac3c:	4602      	mov	r2, r0
 800ac3e:	460b      	mov	r3, r1
 800ac40:	2000      	movs	r0, #0
 800ac42:	4927      	ldr	r1, [pc, #156]	; (800ace0 <__ieee754_pow+0x218>)
 800ac44:	f7f5 fdb2 	bl	80007ac <__aeabi_ddiv>
 800ac48:	2d00      	cmp	r5, #0
 800ac4a:	da9d      	bge.n	800ab88 <__ieee754_pow+0xc0>
 800ac4c:	f104 4440 	add.w	r4, r4, #3221225472	; 0xc0000000
 800ac50:	f504 1480 	add.w	r4, r4, #1048576	; 0x100000
 800ac54:	ea54 030b 	orrs.w	r3, r4, fp
 800ac58:	d108      	bne.n	800ac6c <__ieee754_pow+0x1a4>
 800ac5a:	4602      	mov	r2, r0
 800ac5c:	460b      	mov	r3, r1
 800ac5e:	4610      	mov	r0, r2
 800ac60:	4619      	mov	r1, r3
 800ac62:	f7f5 fac1 	bl	80001e8 <__aeabi_dsub>
 800ac66:	4602      	mov	r2, r0
 800ac68:	460b      	mov	r3, r1
 800ac6a:	e7ac      	b.n	800abc6 <__ieee754_pow+0xfe>
 800ac6c:	f1bb 0f01 	cmp.w	fp, #1
 800ac70:	d18a      	bne.n	800ab88 <__ieee754_pow+0xc0>
 800ac72:	f101 4300 	add.w	r3, r1, #2147483648	; 0x80000000
 800ac76:	4619      	mov	r1, r3
 800ac78:	e786      	b.n	800ab88 <__ieee754_pow+0xc0>
 800ac7a:	0fed      	lsrs	r5, r5, #31
 800ac7c:	1e6b      	subs	r3, r5, #1
 800ac7e:	930d      	str	r3, [sp, #52]	; 0x34
 800ac80:	ea5b 0303 	orrs.w	r3, fp, r3
 800ac84:	d102      	bne.n	800ac8c <__ieee754_pow+0x1c4>
 800ac86:	4632      	mov	r2, r6
 800ac88:	463b      	mov	r3, r7
 800ac8a:	e7e8      	b.n	800ac5e <__ieee754_pow+0x196>
 800ac8c:	4b16      	ldr	r3, [pc, #88]	; (800ace8 <__ieee754_pow+0x220>)
 800ac8e:	4598      	cmp	r8, r3
 800ac90:	f340 80fe 	ble.w	800ae90 <__ieee754_pow+0x3c8>
 800ac94:	f103 7304 	add.w	r3, r3, #34603008	; 0x2100000
 800ac98:	4598      	cmp	r8, r3
 800ac9a:	dd0a      	ble.n	800acb2 <__ieee754_pow+0x1ea>
 800ac9c:	4b0f      	ldr	r3, [pc, #60]	; (800acdc <__ieee754_pow+0x214>)
 800ac9e:	429c      	cmp	r4, r3
 800aca0:	dc0d      	bgt.n	800acbe <__ieee754_pow+0x1f6>
 800aca2:	f1b9 0f00 	cmp.w	r9, #0
 800aca6:	f6bf af6d 	bge.w	800ab84 <__ieee754_pow+0xbc>
 800acaa:	a307      	add	r3, pc, #28	; (adr r3, 800acc8 <__ieee754_pow+0x200>)
 800acac:	e9d3 2300 	ldrd	r2, r3, [r3]
 800acb0:	e79f      	b.n	800abf2 <__ieee754_pow+0x12a>
 800acb2:	4b0e      	ldr	r3, [pc, #56]	; (800acec <__ieee754_pow+0x224>)
 800acb4:	429c      	cmp	r4, r3
 800acb6:	ddf4      	ble.n	800aca2 <__ieee754_pow+0x1da>
 800acb8:	4b09      	ldr	r3, [pc, #36]	; (800ace0 <__ieee754_pow+0x218>)
 800acba:	429c      	cmp	r4, r3
 800acbc:	dd18      	ble.n	800acf0 <__ieee754_pow+0x228>
 800acbe:	f1b9 0f00 	cmp.w	r9, #0
 800acc2:	dcf2      	bgt.n	800acaa <__ieee754_pow+0x1e2>
 800acc4:	e75e      	b.n	800ab84 <__ieee754_pow+0xbc>
 800acc6:	bf00      	nop
 800acc8:	8800759c 	.word	0x8800759c
 800accc:	7e37e43c 	.word	0x7e37e43c
 800acd0:	7ff00000 	.word	0x7ff00000
 800acd4:	0800c4a9 	.word	0x0800c4a9
 800acd8:	433fffff 	.word	0x433fffff
 800acdc:	3fefffff 	.word	0x3fefffff
 800ace0:	3ff00000 	.word	0x3ff00000
 800ace4:	3fe00000 	.word	0x3fe00000
 800ace8:	41e00000 	.word	0x41e00000
 800acec:	3feffffe 	.word	0x3feffffe
 800acf0:	2200      	movs	r2, #0
 800acf2:	4b63      	ldr	r3, [pc, #396]	; (800ae80 <__ieee754_pow+0x3b8>)
 800acf4:	f7f5 fa78 	bl	80001e8 <__aeabi_dsub>
 800acf8:	a355      	add	r3, pc, #340	; (adr r3, 800ae50 <__ieee754_pow+0x388>)
 800acfa:	e9d3 2300 	ldrd	r2, r3, [r3]
 800acfe:	4604      	mov	r4, r0
 800ad00:	460d      	mov	r5, r1
 800ad02:	f7f5 fc29 	bl	8000558 <__aeabi_dmul>
 800ad06:	a354      	add	r3, pc, #336	; (adr r3, 800ae58 <__ieee754_pow+0x390>)
 800ad08:	e9d3 2300 	ldrd	r2, r3, [r3]
 800ad0c:	4606      	mov	r6, r0
 800ad0e:	460f      	mov	r7, r1
 800ad10:	4620      	mov	r0, r4
 800ad12:	4629      	mov	r1, r5
 800ad14:	f7f5 fc20 	bl	8000558 <__aeabi_dmul>
 800ad18:	2200      	movs	r2, #0
 800ad1a:	e9cd 0102 	strd	r0, r1, [sp, #8]
 800ad1e:	4b59      	ldr	r3, [pc, #356]	; (800ae84 <__ieee754_pow+0x3bc>)
 800ad20:	4620      	mov	r0, r4
 800ad22:	4629      	mov	r1, r5
 800ad24:	f7f5 fc18 	bl	8000558 <__aeabi_dmul>
 800ad28:	4602      	mov	r2, r0
 800ad2a:	460b      	mov	r3, r1
 800ad2c:	a14c      	add	r1, pc, #304	; (adr r1, 800ae60 <__ieee754_pow+0x398>)
 800ad2e:	e9d1 0100 	ldrd	r0, r1, [r1]
 800ad32:	f7f5 fa59 	bl	80001e8 <__aeabi_dsub>
 800ad36:	4622      	mov	r2, r4
 800ad38:	462b      	mov	r3, r5
 800ad3a:	f7f5 fc0d 	bl	8000558 <__aeabi_dmul>
 800ad3e:	4602      	mov	r2, r0
 800ad40:	460b      	mov	r3, r1
 800ad42:	2000      	movs	r0, #0
 800ad44:	4950      	ldr	r1, [pc, #320]	; (800ae88 <__ieee754_pow+0x3c0>)
 800ad46:	f7f5 fa4f 	bl	80001e8 <__aeabi_dsub>
 800ad4a:	4622      	mov	r2, r4
 800ad4c:	462b      	mov	r3, r5
 800ad4e:	4680      	mov	r8, r0
 800ad50:	4689      	mov	r9, r1
 800ad52:	4620      	mov	r0, r4
 800ad54:	4629      	mov	r1, r5
 800ad56:	f7f5 fbff 	bl	8000558 <__aeabi_dmul>
 800ad5a:	4602      	mov	r2, r0
 800ad5c:	460b      	mov	r3, r1
 800ad5e:	4640      	mov	r0, r8
 800ad60:	4649      	mov	r1, r9
 800ad62:	f7f5 fbf9 	bl	8000558 <__aeabi_dmul>
 800ad66:	a340      	add	r3, pc, #256	; (adr r3, 800ae68 <__ieee754_pow+0x3a0>)
 800ad68:	e9d3 2300 	ldrd	r2, r3, [r3]
 800ad6c:	f7f5 fbf4 	bl	8000558 <__aeabi_dmul>
 800ad70:	4602      	mov	r2, r0
 800ad72:	460b      	mov	r3, r1
 800ad74:	e9dd 0102 	ldrd	r0, r1, [sp, #8]
 800ad78:	f7f5 fa36 	bl	80001e8 <__aeabi_dsub>
 800ad7c:	4602      	mov	r2, r0
 800ad7e:	460b      	mov	r3, r1
 800ad80:	4604      	mov	r4, r0
 800ad82:	460d      	mov	r5, r1
 800ad84:	4630      	mov	r0, r6
 800ad86:	4639      	mov	r1, r7
 800ad88:	f7f5 fa30 	bl	80001ec <__adddf3>
 800ad8c:	2000      	movs	r0, #0
 800ad8e:	e9cd 0104 	strd	r0, r1, [sp, #16]
 800ad92:	4632      	mov	r2, r6
 800ad94:	463b      	mov	r3, r7
 800ad96:	f7f5 fa27 	bl	80001e8 <__aeabi_dsub>
 800ad9a:	4602      	mov	r2, r0
 800ad9c:	460b      	mov	r3, r1
 800ad9e:	4620      	mov	r0, r4
 800ada0:	4629      	mov	r1, r5
 800ada2:	f7f5 fa21 	bl	80001e8 <__aeabi_dsub>
 800ada6:	9a0d      	ldr	r2, [sp, #52]	; 0x34
 800ada8:	f10b 33ff 	add.w	r3, fp, #4294967295	; 0xffffffff
 800adac:	4313      	orrs	r3, r2
 800adae:	4606      	mov	r6, r0
 800adb0:	460f      	mov	r7, r1
 800adb2:	f040 81eb 	bne.w	800b18c <__ieee754_pow+0x6c4>
 800adb6:	ed9f 7b2e 	vldr	d7, [pc, #184]	; 800ae70 <__ieee754_pow+0x3a8>
 800adba:	e9dd 4500 	ldrd	r4, r5, [sp]
 800adbe:	2400      	movs	r4, #0
 800adc0:	4622      	mov	r2, r4
 800adc2:	462b      	mov	r3, r5
 800adc4:	e9dd 0100 	ldrd	r0, r1, [sp]
 800adc8:	ed8d 7b02 	vstr	d7, [sp, #8]
 800adcc:	f7f5 fa0c 	bl	80001e8 <__aeabi_dsub>
 800add0:	e9dd 2304 	ldrd	r2, r3, [sp, #16]
 800add4:	f7f5 fbc0 	bl	8000558 <__aeabi_dmul>
 800add8:	e9dd 2300 	ldrd	r2, r3, [sp]
 800addc:	4680      	mov	r8, r0
 800adde:	4689      	mov	r9, r1
 800ade0:	4630      	mov	r0, r6
 800ade2:	4639      	mov	r1, r7
 800ade4:	f7f5 fbb8 	bl	8000558 <__aeabi_dmul>
 800ade8:	4602      	mov	r2, r0
 800adea:	460b      	mov	r3, r1
 800adec:	4640      	mov	r0, r8
 800adee:	4649      	mov	r1, r9
 800adf0:	f7f5 f9fc 	bl	80001ec <__adddf3>
 800adf4:	4622      	mov	r2, r4
 800adf6:	462b      	mov	r3, r5
 800adf8:	4680      	mov	r8, r0
 800adfa:	4689      	mov	r9, r1
 800adfc:	e9dd 0104 	ldrd	r0, r1, [sp, #16]
 800ae00:	f7f5 fbaa 	bl	8000558 <__aeabi_dmul>
 800ae04:	460b      	mov	r3, r1
 800ae06:	4604      	mov	r4, r0
 800ae08:	460d      	mov	r5, r1
 800ae0a:	4602      	mov	r2, r0
 800ae0c:	4649      	mov	r1, r9
 800ae0e:	4640      	mov	r0, r8
 800ae10:	e9cd 4500 	strd	r4, r5, [sp]
 800ae14:	f7f5 f9ea 	bl	80001ec <__adddf3>
 800ae18:	4b1c      	ldr	r3, [pc, #112]	; (800ae8c <__ieee754_pow+0x3c4>)
 800ae1a:	4299      	cmp	r1, r3
 800ae1c:	4606      	mov	r6, r0
 800ae1e:	460f      	mov	r7, r1
 800ae20:	468b      	mov	fp, r1
 800ae22:	f340 82f7 	ble.w	800b414 <__ieee754_pow+0x94c>
 800ae26:	f101 433f 	add.w	r3, r1, #3204448256	; 0xbf000000
 800ae2a:	f503 03e0 	add.w	r3, r3, #7340032	; 0x700000
 800ae2e:	4303      	orrs	r3, r0
 800ae30:	f000 81ea 	beq.w	800b208 <__ieee754_pow+0x740>
 800ae34:	a310      	add	r3, pc, #64	; (adr r3, 800ae78 <__ieee754_pow+0x3b0>)
 800ae36:	e9d3 2300 	ldrd	r2, r3, [r3]
 800ae3a:	e9dd 0102 	ldrd	r0, r1, [sp, #8]
 800ae3e:	f7f5 fb8b 	bl	8000558 <__aeabi_dmul>
 800ae42:	a30d      	add	r3, pc, #52	; (adr r3, 800ae78 <__ieee754_pow+0x3b0>)
 800ae44:	e9d3 2300 	ldrd	r2, r3, [r3]
 800ae48:	e6d5      	b.n	800abf6 <__ieee754_pow+0x12e>
 800ae4a:	bf00      	nop
 800ae4c:	f3af 8000 	nop.w
 800ae50:	60000000 	.word	0x60000000
 800ae54:	3ff71547 	.word	0x3ff71547
 800ae58:	f85ddf44 	.word	0xf85ddf44
 800ae5c:	3e54ae0b 	.word	0x3e54ae0b
 800ae60:	55555555 	.word	0x55555555
 800ae64:	3fd55555 	.word	0x3fd55555
 800ae68:	652b82fe 	.word	0x652b82fe
 800ae6c:	3ff71547 	.word	0x3ff71547
 800ae70:	00000000 	.word	0x00000000
 800ae74:	bff00000 	.word	0xbff00000
 800ae78:	8800759c 	.word	0x8800759c
 800ae7c:	7e37e43c 	.word	0x7e37e43c
 800ae80:	3ff00000 	.word	0x3ff00000
 800ae84:	3fd00000 	.word	0x3fd00000
 800ae88:	3fe00000 	.word	0x3fe00000
 800ae8c:	408fffff 	.word	0x408fffff
 800ae90:	f5b4 1f80 	cmp.w	r4, #1048576	; 0x100000
 800ae94:	f04f 0200 	mov.w	r2, #0
 800ae98:	da05      	bge.n	800aea6 <__ieee754_pow+0x3de>
 800ae9a:	4bd3      	ldr	r3, [pc, #844]	; (800b1e8 <__ieee754_pow+0x720>)
 800ae9c:	f7f5 fb5c 	bl	8000558 <__aeabi_dmul>
 800aea0:	f06f 0234 	mvn.w	r2, #52	; 0x34
 800aea4:	460c      	mov	r4, r1
 800aea6:	1523      	asrs	r3, r4, #20
 800aea8:	f2a3 33ff 	subw	r3, r3, #1023	; 0x3ff
 800aeac:	4413      	add	r3, r2
 800aeae:	9309      	str	r3, [sp, #36]	; 0x24
 800aeb0:	4bce      	ldr	r3, [pc, #824]	; (800b1ec <__ieee754_pow+0x724>)
 800aeb2:	f3c4 0413 	ubfx	r4, r4, #0, #20
 800aeb6:	f044 557f 	orr.w	r5, r4, #1069547520	; 0x3fc00000
 800aeba:	429c      	cmp	r4, r3
 800aebc:	f445 1540 	orr.w	r5, r5, #3145728	; 0x300000
 800aec0:	dd08      	ble.n	800aed4 <__ieee754_pow+0x40c>
 800aec2:	4bcb      	ldr	r3, [pc, #812]	; (800b1f0 <__ieee754_pow+0x728>)
 800aec4:	429c      	cmp	r4, r3
 800aec6:	f340 815e 	ble.w	800b186 <__ieee754_pow+0x6be>
 800aeca:	9b09      	ldr	r3, [sp, #36]	; 0x24
 800aecc:	3301      	adds	r3, #1
 800aece:	9309      	str	r3, [sp, #36]	; 0x24
 800aed0:	f5a5 1580 	sub.w	r5, r5, #1048576	; 0x100000
 800aed4:	f04f 0a00 	mov.w	sl, #0
 800aed8:	ea4f 03ca 	mov.w	r3, sl, lsl #3
 800aedc:	930c      	str	r3, [sp, #48]	; 0x30
 800aede:	9a0c      	ldr	r2, [sp, #48]	; 0x30
 800aee0:	4bc4      	ldr	r3, [pc, #784]	; (800b1f4 <__ieee754_pow+0x72c>)
 800aee2:	4413      	add	r3, r2
 800aee4:	ed93 7b00 	vldr	d7, [r3]
 800aee8:	4629      	mov	r1, r5
 800aeea:	ec53 2b17 	vmov	r2, r3, d7
 800aeee:	ed8d 7b06 	vstr	d7, [sp, #24]
 800aef2:	e9cd 010a 	strd	r0, r1, [sp, #40]	; 0x28
 800aef6:	f7f5 f977 	bl	80001e8 <__aeabi_dsub>
 800aefa:	e9dd 230a 	ldrd	r2, r3, [sp, #40]	; 0x28
 800aefe:	4606      	mov	r6, r0
 800af00:	460f      	mov	r7, r1
 800af02:	e9dd 0106 	ldrd	r0, r1, [sp, #24]
 800af06:	f7f5 f971 	bl	80001ec <__adddf3>
 800af0a:	4602      	mov	r2, r0
 800af0c:	460b      	mov	r3, r1
 800af0e:	2000      	movs	r0, #0
 800af10:	49b9      	ldr	r1, [pc, #740]	; (800b1f8 <__ieee754_pow+0x730>)
 800af12:	f7f5 fc4b 	bl	80007ac <__aeabi_ddiv>
 800af16:	e9cd 010e 	strd	r0, r1, [sp, #56]	; 0x38
 800af1a:	4602      	mov	r2, r0
 800af1c:	460b      	mov	r3, r1
 800af1e:	4630      	mov	r0, r6
 800af20:	4639      	mov	r1, r7
 800af22:	f7f5 fb19 	bl	8000558 <__aeabi_dmul>
 800af26:	e9cd 0104 	strd	r0, r1, [sp, #16]
 800af2a:	e9dd 3404 	ldrd	r3, r4, [sp, #16]
 800af2e:	e9cd 3402 	strd	r3, r4, [sp, #8]
 800af32:	2300      	movs	r3, #0
 800af34:	9302      	str	r3, [sp, #8]
 800af36:	e9dd 8902 	ldrd	r8, r9, [sp, #8]
 800af3a:	106d      	asrs	r5, r5, #1
 800af3c:	f045 5500 	orr.w	r5, r5, #536870912	; 0x20000000
 800af40:	f505 2500 	add.w	r5, r5, #524288	; 0x80000
 800af44:	2200      	movs	r2, #0
 800af46:	eb05 438a 	add.w	r3, r5, sl, lsl #18
 800af4a:	4640      	mov	r0, r8
 800af4c:	4649      	mov	r1, r9
 800af4e:	4614      	mov	r4, r2
 800af50:	461d      	mov	r5, r3
 800af52:	f7f5 fb01 	bl	8000558 <__aeabi_dmul>
 800af56:	4602      	mov	r2, r0
 800af58:	460b      	mov	r3, r1
 800af5a:	4630      	mov	r0, r6
 800af5c:	4639      	mov	r1, r7
 800af5e:	f7f5 f943 	bl	80001e8 <__aeabi_dsub>
 800af62:	e9dd 2306 	ldrd	r2, r3, [sp, #24]
 800af66:	4606      	mov	r6, r0
 800af68:	460f      	mov	r7, r1
 800af6a:	4620      	mov	r0, r4
 800af6c:	4629      	mov	r1, r5
 800af6e:	f7f5 f93b 	bl	80001e8 <__aeabi_dsub>
 800af72:	4602      	mov	r2, r0
 800af74:	460b      	mov	r3, r1
 800af76:	e9dd 010a 	ldrd	r0, r1, [sp, #40]	; 0x28
 800af7a:	f7f5 f935 	bl	80001e8 <__aeabi_dsub>
 800af7e:	4642      	mov	r2, r8
 800af80:	464b      	mov	r3, r9
 800af82:	f7f5 fae9 	bl	8000558 <__aeabi_dmul>
 800af86:	4602      	mov	r2, r0
 800af88:	460b      	mov	r3, r1
 800af8a:	4630      	mov	r0, r6
 800af8c:	4639      	mov	r1, r7
 800af8e:	f7f5 f92b 	bl	80001e8 <__aeabi_dsub>
 800af92:	e9dd 230e 	ldrd	r2, r3, [sp, #56]	; 0x38
 800af96:	f7f5 fadf 	bl	8000558 <__aeabi_dmul>
 800af9a:	e9dd 2304 	ldrd	r2, r3, [sp, #16]
 800af9e:	e9cd 0106 	strd	r0, r1, [sp, #24]
 800afa2:	4610      	mov	r0, r2
 800afa4:	4619      	mov	r1, r3
 800afa6:	f7f5 fad7 	bl	8000558 <__aeabi_dmul>
 800afaa:	a37b      	add	r3, pc, #492	; (adr r3, 800b198 <__ieee754_pow+0x6d0>)
 800afac:	e9d3 2300 	ldrd	r2, r3, [r3]
 800afb0:	4604      	mov	r4, r0
 800afb2:	460d      	mov	r5, r1
 800afb4:	f7f5 fad0 	bl	8000558 <__aeabi_dmul>
 800afb8:	a379      	add	r3, pc, #484	; (adr r3, 800b1a0 <__ieee754_pow+0x6d8>)
 800afba:	e9d3 2300 	ldrd	r2, r3, [r3]
 800afbe:	f7f5 f915 	bl	80001ec <__adddf3>
 800afc2:	4622      	mov	r2, r4
 800afc4:	462b      	mov	r3, r5
 800afc6:	f7f5 fac7 	bl	8000558 <__aeabi_dmul>
 800afca:	a377      	add	r3, pc, #476	; (adr r3, 800b1a8 <__ieee754_pow+0x6e0>)
 800afcc:	e9d3 2300 	ldrd	r2, r3, [r3]
 800afd0:	f7f5 f90c 	bl	80001ec <__adddf3>
 800afd4:	4622      	mov	r2, r4
 800afd6:	462b      	mov	r3, r5
 800afd8:	f7f5 fabe 	bl	8000558 <__aeabi_dmul>
 800afdc:	a374      	add	r3, pc, #464	; (adr r3, 800b1b0 <__ieee754_pow+0x6e8>)
 800afde:	e9d3 2300 	ldrd	r2, r3, [r3]
 800afe2:	f7f5 f903 	bl	80001ec <__adddf3>
 800afe6:	4622      	mov	r2, r4
 800afe8:	462b      	mov	r3, r5
 800afea:	f7f5 fab5 	bl	8000558 <__aeabi_dmul>
 800afee:	a372      	add	r3, pc, #456	; (adr r3, 800b1b8 <__ieee754_pow+0x6f0>)
 800aff0:	e9d3 2300 	ldrd	r2, r3, [r3]
 800aff4:	f7f5 f8fa 	bl	80001ec <__adddf3>
 800aff8:	4622      	mov	r2, r4
 800affa:	462b      	mov	r3, r5
 800affc:	f7f5 faac 	bl	8000558 <__aeabi_dmul>
 800b000:	a36f      	add	r3, pc, #444	; (adr r3, 800b1c0 <__ieee754_pow+0x6f8>)
 800b002:	e9d3 2300 	ldrd	r2, r3, [r3]
 800b006:	f7f5 f8f1 	bl	80001ec <__adddf3>
 800b00a:	4622      	mov	r2, r4
 800b00c:	4606      	mov	r6, r0
 800b00e:	460f      	mov	r7, r1
 800b010:	462b      	mov	r3, r5
 800b012:	4620      	mov	r0, r4
 800b014:	4629      	mov	r1, r5
 800b016:	f7f5 fa9f 	bl	8000558 <__aeabi_dmul>
 800b01a:	4602      	mov	r2, r0
 800b01c:	460b      	mov	r3, r1
 800b01e:	4630      	mov	r0, r6
 800b020:	4639      	mov	r1, r7
 800b022:	f7f5 fa99 	bl	8000558 <__aeabi_dmul>
 800b026:	4642      	mov	r2, r8
 800b028:	4604      	mov	r4, r0
 800b02a:	460d      	mov	r5, r1
 800b02c:	464b      	mov	r3, r9
 800b02e:	e9dd 0104 	ldrd	r0, r1, [sp, #16]
 800b032:	f7f5 f8db 	bl	80001ec <__adddf3>
 800b036:	e9dd 2306 	ldrd	r2, r3, [sp, #24]
 800b03a:	f7f5 fa8d 	bl	8000558 <__aeabi_dmul>
 800b03e:	4622      	mov	r2, r4
 800b040:	462b      	mov	r3, r5
 800b042:	f7f5 f8d3 	bl	80001ec <__adddf3>
 800b046:	4642      	mov	r2, r8
 800b048:	4606      	mov	r6, r0
 800b04a:	460f      	mov	r7, r1
 800b04c:	464b      	mov	r3, r9
 800b04e:	4640      	mov	r0, r8
 800b050:	4649      	mov	r1, r9
 800b052:	f7f5 fa81 	bl	8000558 <__aeabi_dmul>
 800b056:	2200      	movs	r2, #0
 800b058:	4b68      	ldr	r3, [pc, #416]	; (800b1fc <__ieee754_pow+0x734>)
 800b05a:	e9cd 010a 	strd	r0, r1, [sp, #40]	; 0x28
 800b05e:	f7f5 f8c5 	bl	80001ec <__adddf3>
 800b062:	4632      	mov	r2, r6
 800b064:	463b      	mov	r3, r7
 800b066:	f7f5 f8c1 	bl	80001ec <__adddf3>
 800b06a:	9802      	ldr	r0, [sp, #8]
 800b06c:	460d      	mov	r5, r1
 800b06e:	4604      	mov	r4, r0
 800b070:	4602      	mov	r2, r0
 800b072:	460b      	mov	r3, r1
 800b074:	4640      	mov	r0, r8
 800b076:	4649      	mov	r1, r9
 800b078:	f7f5 fa6e 	bl	8000558 <__aeabi_dmul>
 800b07c:	2200      	movs	r2, #0
 800b07e:	4680      	mov	r8, r0
 800b080:	4689      	mov	r9, r1
 800b082:	4b5e      	ldr	r3, [pc, #376]	; (800b1fc <__ieee754_pow+0x734>)
 800b084:	4620      	mov	r0, r4
 800b086:	4629      	mov	r1, r5
 800b088:	f7f5 f8ae 	bl	80001e8 <__aeabi_dsub>
 800b08c:	e9dd 230a 	ldrd	r2, r3, [sp, #40]	; 0x28
 800b090:	f7f5 f8aa 	bl	80001e8 <__aeabi_dsub>
 800b094:	4602      	mov	r2, r0
 800b096:	460b      	mov	r3, r1
 800b098:	4630      	mov	r0, r6
 800b09a:	4639      	mov	r1, r7
 800b09c:	f7f5 f8a4 	bl	80001e8 <__aeabi_dsub>
 800b0a0:	e9dd 2304 	ldrd	r2, r3, [sp, #16]
 800b0a4:	f7f5 fa58 	bl	8000558 <__aeabi_dmul>
 800b0a8:	4622      	mov	r2, r4
 800b0aa:	4606      	mov	r6, r0
 800b0ac:	460f      	mov	r7, r1
 800b0ae:	462b      	mov	r3, r5
 800b0b0:	e9dd 0106 	ldrd	r0, r1, [sp, #24]
 800b0b4:	f7f5 fa50 	bl	8000558 <__aeabi_dmul>
 800b0b8:	4602      	mov	r2, r0
 800b0ba:	460b      	mov	r3, r1
 800b0bc:	4630      	mov	r0, r6
 800b0be:	4639      	mov	r1, r7
 800b0c0:	f7f5 f894 	bl	80001ec <__adddf3>
 800b0c4:	4606      	mov	r6, r0
 800b0c6:	460f      	mov	r7, r1
 800b0c8:	4602      	mov	r2, r0
 800b0ca:	460b      	mov	r3, r1
 800b0cc:	4640      	mov	r0, r8
 800b0ce:	4649      	mov	r1, r9
 800b0d0:	f7f5 f88c 	bl	80001ec <__adddf3>
 800b0d4:	9802      	ldr	r0, [sp, #8]
 800b0d6:	a33c      	add	r3, pc, #240	; (adr r3, 800b1c8 <__ieee754_pow+0x700>)
 800b0d8:	e9d3 2300 	ldrd	r2, r3, [r3]
 800b0dc:	4604      	mov	r4, r0
 800b0de:	460d      	mov	r5, r1
 800b0e0:	f7f5 fa3a 	bl	8000558 <__aeabi_dmul>
 800b0e4:	4642      	mov	r2, r8
 800b0e6:	e9cd 0106 	strd	r0, r1, [sp, #24]
 800b0ea:	464b      	mov	r3, r9
 800b0ec:	4620      	mov	r0, r4
 800b0ee:	4629      	mov	r1, r5
 800b0f0:	f7f5 f87a 	bl	80001e8 <__aeabi_dsub>
 800b0f4:	4602      	mov	r2, r0
 800b0f6:	460b      	mov	r3, r1
 800b0f8:	4630      	mov	r0, r6
 800b0fa:	4639      	mov	r1, r7
 800b0fc:	f7f5 f874 	bl	80001e8 <__aeabi_dsub>
 800b100:	a333      	add	r3, pc, #204	; (adr r3, 800b1d0 <__ieee754_pow+0x708>)
 800b102:	e9d3 2300 	ldrd	r2, r3, [r3]
 800b106:	f7f5 fa27 	bl	8000558 <__aeabi_dmul>
 800b10a:	a333      	add	r3, pc, #204	; (adr r3, 800b1d8 <__ieee754_pow+0x710>)
 800b10c:	e9d3 2300 	ldrd	r2, r3, [r3]
 800b110:	4606      	mov	r6, r0
 800b112:	460f      	mov	r7, r1
 800b114:	4620      	mov	r0, r4
 800b116:	4629      	mov	r1, r5
 800b118:	f7f5 fa1e 	bl	8000558 <__aeabi_dmul>
 800b11c:	4602      	mov	r2, r0
 800b11e:	460b      	mov	r3, r1
 800b120:	4630      	mov	r0, r6
 800b122:	4639      	mov	r1, r7
 800b124:	f7f5 f862 	bl	80001ec <__adddf3>
 800b128:	9a0c      	ldr	r2, [sp, #48]	; 0x30
 800b12a:	4b35      	ldr	r3, [pc, #212]	; (800b200 <__ieee754_pow+0x738>)
 800b12c:	4413      	add	r3, r2
 800b12e:	e9d3 2300 	ldrd	r2, r3, [r3]
 800b132:	f7f5 f85b 	bl	80001ec <__adddf3>
 800b136:	4604      	mov	r4, r0
 800b138:	9809      	ldr	r0, [sp, #36]	; 0x24
 800b13a:	460d      	mov	r5, r1
 800b13c:	f7f5 f9a2 	bl	8000484 <__aeabi_i2d>
 800b140:	9a0c      	ldr	r2, [sp, #48]	; 0x30
 800b142:	4b30      	ldr	r3, [pc, #192]	; (800b204 <__ieee754_pow+0x73c>)
 800b144:	4413      	add	r3, r2
 800b146:	e9d3 8900 	ldrd	r8, r9, [r3]
 800b14a:	4606      	mov	r6, r0
 800b14c:	460f      	mov	r7, r1
 800b14e:	4622      	mov	r2, r4
 800b150:	462b      	mov	r3, r5
 800b152:	e9dd 0106 	ldrd	r0, r1, [sp, #24]
 800b156:	f7f5 f849 	bl	80001ec <__adddf3>
 800b15a:	4642      	mov	r2, r8
 800b15c:	464b      	mov	r3, r9
 800b15e:	f7f5 f845 	bl	80001ec <__adddf3>
 800b162:	4632      	mov	r2, r6
 800b164:	463b      	mov	r3, r7
 800b166:	f7f5 f841 	bl	80001ec <__adddf3>
 800b16a:	9802      	ldr	r0, [sp, #8]
 800b16c:	4632      	mov	r2, r6
 800b16e:	463b      	mov	r3, r7
 800b170:	e9cd 0104 	strd	r0, r1, [sp, #16]
 800b174:	f7f5 f838 	bl	80001e8 <__aeabi_dsub>
 800b178:	4642      	mov	r2, r8
 800b17a:	464b      	mov	r3, r9
 800b17c:	f7f5 f834 	bl	80001e8 <__aeabi_dsub>
 800b180:	e9dd 2306 	ldrd	r2, r3, [sp, #24]
 800b184:	e607      	b.n	800ad96 <__ieee754_pow+0x2ce>
 800b186:	f04f 0a01 	mov.w	sl, #1
 800b18a:	e6a5      	b.n	800aed8 <__ieee754_pow+0x410>
 800b18c:	ed9f 7b14 	vldr	d7, [pc, #80]	; 800b1e0 <__ieee754_pow+0x718>
 800b190:	e613      	b.n	800adba <__ieee754_pow+0x2f2>
 800b192:	bf00      	nop
 800b194:	f3af 8000 	nop.w
 800b198:	4a454eef 	.word	0x4a454eef
 800b19c:	3fca7e28 	.word	0x3fca7e28
 800b1a0:	93c9db65 	.word	0x93c9db65
 800b1a4:	3fcd864a 	.word	0x3fcd864a
 800b1a8:	a91d4101 	.word	0xa91d4101
 800b1ac:	3fd17460 	.word	0x3fd17460
 800b1b0:	518f264d 	.word	0x518f264d
 800b1b4:	3fd55555 	.word	0x3fd55555
 800b1b8:	db6fabff 	.word	0xdb6fabff
 800b1bc:	3fdb6db6 	.word	0x3fdb6db6
 800b1c0:	33333303 	.word	0x33333303
 800b1c4:	3fe33333 	.word	0x3fe33333
 800b1c8:	e0000000 	.word	0xe0000000
 800b1cc:	3feec709 	.word	0x3feec709
 800b1d0:	dc3a03fd 	.word	0xdc3a03fd
 800b1d4:	3feec709 	.word	0x3feec709
 800b1d8:	145b01f5 	.word	0x145b01f5
 800b1dc:	be3e2fe0 	.word	0xbe3e2fe0
 800b1e0:	00000000 	.word	0x00000000
 800b1e4:	3ff00000 	.word	0x3ff00000
 800b1e8:	43400000 	.word	0x43400000
 800b1ec:	0003988e 	.word	0x0003988e
 800b1f0:	000bb679 	.word	0x000bb679
 800b1f4:	0800c5d0 	.word	0x0800c5d0
 800b1f8:	3ff00000 	.word	0x3ff00000
 800b1fc:	40080000 	.word	0x40080000
 800b200:	0800c5f0 	.word	0x0800c5f0
 800b204:	0800c5e0 	.word	0x0800c5e0
 800b208:	a3b4      	add	r3, pc, #720	; (adr r3, 800b4dc <__ieee754_pow+0xa14>)
 800b20a:	e9d3 2300 	ldrd	r2, r3, [r3]
 800b20e:	4640      	mov	r0, r8
 800b210:	4649      	mov	r1, r9
 800b212:	f7f4 ffeb 	bl	80001ec <__adddf3>
 800b216:	4622      	mov	r2, r4
 800b218:	e9cd 0104 	strd	r0, r1, [sp, #16]
 800b21c:	462b      	mov	r3, r5
 800b21e:	4630      	mov	r0, r6
 800b220:	4639      	mov	r1, r7
 800b222:	f7f4 ffe1 	bl	80001e8 <__aeabi_dsub>
 800b226:	4602      	mov	r2, r0
 800b228:	460b      	mov	r3, r1
 800b22a:	e9dd 0104 	ldrd	r0, r1, [sp, #16]
 800b22e:	f7f5 fe4d 	bl	8000ecc <__aeabi_dcmpgt>
 800b232:	2800      	cmp	r0, #0
 800b234:	f47f adfe 	bne.w	800ae34 <__ieee754_pow+0x36c>
 800b238:	4aa3      	ldr	r2, [pc, #652]	; (800b4c8 <__ieee754_pow+0xa00>)
 800b23a:	f02b 4300 	bic.w	r3, fp, #2147483648	; 0x80000000
 800b23e:	4293      	cmp	r3, r2
 800b240:	f340 810a 	ble.w	800b458 <__ieee754_pow+0x990>
 800b244:	151b      	asrs	r3, r3, #20
 800b246:	f44f 1a80 	mov.w	sl, #1048576	; 0x100000
 800b24a:	f2a3 33fe 	subw	r3, r3, #1022	; 0x3fe
 800b24e:	fa4a f303 	asr.w	r3, sl, r3
 800b252:	445b      	add	r3, fp
 800b254:	f3c3 520a 	ubfx	r2, r3, #20, #11
 800b258:	4e9c      	ldr	r6, [pc, #624]	; (800b4cc <__ieee754_pow+0xa04>)
 800b25a:	f2a2 32ff 	subw	r2, r2, #1023	; 0x3ff
 800b25e:	4116      	asrs	r6, r2
 800b260:	f3c3 0a13 	ubfx	sl, r3, #0, #20
 800b264:	2000      	movs	r0, #0
 800b266:	ea23 0106 	bic.w	r1, r3, r6
 800b26a:	f1c2 0214 	rsb	r2, r2, #20
 800b26e:	f44a 1a80 	orr.w	sl, sl, #1048576	; 0x100000
 800b272:	fa4a fa02 	asr.w	sl, sl, r2
 800b276:	f1bb 0f00 	cmp.w	fp, #0
 800b27a:	4602      	mov	r2, r0
 800b27c:	460b      	mov	r3, r1
 800b27e:	4620      	mov	r0, r4
 800b280:	4629      	mov	r1, r5
 800b282:	bfb8      	it	lt
 800b284:	f1ca 0a00 	rsblt	sl, sl, #0
 800b288:	f7f4 ffae 	bl	80001e8 <__aeabi_dsub>
 800b28c:	e9cd 0100 	strd	r0, r1, [sp]
 800b290:	4642      	mov	r2, r8
 800b292:	464b      	mov	r3, r9
 800b294:	e9dd 0100 	ldrd	r0, r1, [sp]
 800b298:	f7f4 ffa8 	bl	80001ec <__adddf3>
 800b29c:	2000      	movs	r0, #0
 800b29e:	a378      	add	r3, pc, #480	; (adr r3, 800b480 <__ieee754_pow+0x9b8>)
 800b2a0:	e9d3 2300 	ldrd	r2, r3, [r3]
 800b2a4:	4604      	mov	r4, r0
 800b2a6:	460d      	mov	r5, r1
 800b2a8:	f7f5 f956 	bl	8000558 <__aeabi_dmul>
 800b2ac:	e9dd 2300 	ldrd	r2, r3, [sp]
 800b2b0:	4606      	mov	r6, r0
 800b2b2:	460f      	mov	r7, r1
 800b2b4:	4620      	mov	r0, r4
 800b2b6:	4629      	mov	r1, r5
 800b2b8:	f7f4 ff96 	bl	80001e8 <__aeabi_dsub>
 800b2bc:	4602      	mov	r2, r0
 800b2be:	460b      	mov	r3, r1
 800b2c0:	4640      	mov	r0, r8
 800b2c2:	4649      	mov	r1, r9
 800b2c4:	f7f4 ff90 	bl	80001e8 <__aeabi_dsub>
 800b2c8:	a36f      	add	r3, pc, #444	; (adr r3, 800b488 <__ieee754_pow+0x9c0>)
 800b2ca:	e9d3 2300 	ldrd	r2, r3, [r3]
 800b2ce:	f7f5 f943 	bl	8000558 <__aeabi_dmul>
 800b2d2:	a36f      	add	r3, pc, #444	; (adr r3, 800b490 <__ieee754_pow+0x9c8>)
 800b2d4:	e9d3 2300 	ldrd	r2, r3, [r3]
 800b2d8:	4680      	mov	r8, r0
 800b2da:	4689      	mov	r9, r1
 800b2dc:	4620      	mov	r0, r4
 800b2de:	4629      	mov	r1, r5
 800b2e0:	f7f5 f93a 	bl	8000558 <__aeabi_dmul>
 800b2e4:	4602      	mov	r2, r0
 800b2e6:	460b      	mov	r3, r1
 800b2e8:	4640      	mov	r0, r8
 800b2ea:	4649      	mov	r1, r9
 800b2ec:	f7f4 ff7e 	bl	80001ec <__adddf3>
 800b2f0:	4604      	mov	r4, r0
 800b2f2:	460d      	mov	r5, r1
 800b2f4:	4602      	mov	r2, r0
 800b2f6:	460b      	mov	r3, r1
 800b2f8:	4630      	mov	r0, r6
 800b2fa:	4639      	mov	r1, r7
 800b2fc:	f7f4 ff76 	bl	80001ec <__adddf3>
 800b300:	4632      	mov	r2, r6
 800b302:	463b      	mov	r3, r7
 800b304:	4680      	mov	r8, r0
 800b306:	4689      	mov	r9, r1
 800b308:	f7f4 ff6e 	bl	80001e8 <__aeabi_dsub>
 800b30c:	4602      	mov	r2, r0
 800b30e:	460b      	mov	r3, r1
 800b310:	4620      	mov	r0, r4
 800b312:	4629      	mov	r1, r5
 800b314:	f7f4 ff68 	bl	80001e8 <__aeabi_dsub>
 800b318:	4642      	mov	r2, r8
 800b31a:	4606      	mov	r6, r0
 800b31c:	460f      	mov	r7, r1
 800b31e:	464b      	mov	r3, r9
 800b320:	4640      	mov	r0, r8
 800b322:	4649      	mov	r1, r9
 800b324:	f7f5 f918 	bl	8000558 <__aeabi_dmul>
 800b328:	a35b      	add	r3, pc, #364	; (adr r3, 800b498 <__ieee754_pow+0x9d0>)
 800b32a:	e9d3 2300 	ldrd	r2, r3, [r3]
 800b32e:	4604      	mov	r4, r0
 800b330:	460d      	mov	r5, r1
 800b332:	f7f5 f911 	bl	8000558 <__aeabi_dmul>
 800b336:	a35a      	add	r3, pc, #360	; (adr r3, 800b4a0 <__ieee754_pow+0x9d8>)
 800b338:	e9d3 2300 	ldrd	r2, r3, [r3]
 800b33c:	f7f4 ff54 	bl	80001e8 <__aeabi_dsub>
 800b340:	4622      	mov	r2, r4
 800b342:	462b      	mov	r3, r5
 800b344:	f7f5 f908 	bl	8000558 <__aeabi_dmul>
 800b348:	a357      	add	r3, pc, #348	; (adr r3, 800b4a8 <__ieee754_pow+0x9e0>)
 800b34a:	e9d3 2300 	ldrd	r2, r3, [r3]
 800b34e:	f7f4 ff4d 	bl	80001ec <__adddf3>
 800b352:	4622      	mov	r2, r4
 800b354:	462b      	mov	r3, r5
 800b356:	f7f5 f8ff 	bl	8000558 <__aeabi_dmul>
 800b35a:	a355      	add	r3, pc, #340	; (adr r3, 800b4b0 <__ieee754_pow+0x9e8>)
 800b35c:	e9d3 2300 	ldrd	r2, r3, [r3]
 800b360:	f7f4 ff42 	bl	80001e8 <__aeabi_dsub>
 800b364:	4622      	mov	r2, r4
 800b366:	462b      	mov	r3, r5
 800b368:	f7f5 f8f6 	bl	8000558 <__aeabi_dmul>
 800b36c:	a352      	add	r3, pc, #328	; (adr r3, 800b4b8 <__ieee754_pow+0x9f0>)
 800b36e:	e9d3 2300 	ldrd	r2, r3, [r3]
 800b372:	f7f4 ff3b 	bl	80001ec <__adddf3>
 800b376:	4622      	mov	r2, r4
 800b378:	462b      	mov	r3, r5
 800b37a:	f7f5 f8ed 	bl	8000558 <__aeabi_dmul>
 800b37e:	4602      	mov	r2, r0
 800b380:	460b      	mov	r3, r1
 800b382:	4640      	mov	r0, r8
 800b384:	4649      	mov	r1, r9
 800b386:	f7f4 ff2f 	bl	80001e8 <__aeabi_dsub>
 800b38a:	4604      	mov	r4, r0
 800b38c:	460d      	mov	r5, r1
 800b38e:	4602      	mov	r2, r0
 800b390:	460b      	mov	r3, r1
 800b392:	4640      	mov	r0, r8
 800b394:	4649      	mov	r1, r9
 800b396:	f7f5 f8df 	bl	8000558 <__aeabi_dmul>
 800b39a:	2200      	movs	r2, #0
 800b39c:	e9cd 0100 	strd	r0, r1, [sp]
 800b3a0:	f04f 4380 	mov.w	r3, #1073741824	; 0x40000000
 800b3a4:	4620      	mov	r0, r4
 800b3a6:	4629      	mov	r1, r5
 800b3a8:	f7f4 ff1e 	bl	80001e8 <__aeabi_dsub>
 800b3ac:	4602      	mov	r2, r0
 800b3ae:	460b      	mov	r3, r1
 800b3b0:	e9dd 0100 	ldrd	r0, r1, [sp]
 800b3b4:	f7f5 f9fa 	bl	80007ac <__aeabi_ddiv>
 800b3b8:	4632      	mov	r2, r6
 800b3ba:	4604      	mov	r4, r0
 800b3bc:	460d      	mov	r5, r1
 800b3be:	463b      	mov	r3, r7
 800b3c0:	4640      	mov	r0, r8
 800b3c2:	4649      	mov	r1, r9
 800b3c4:	f7f5 f8c8 	bl	8000558 <__aeabi_dmul>
 800b3c8:	4632      	mov	r2, r6
 800b3ca:	463b      	mov	r3, r7
 800b3cc:	f7f4 ff0e 	bl	80001ec <__adddf3>
 800b3d0:	4602      	mov	r2, r0
 800b3d2:	460b      	mov	r3, r1
 800b3d4:	4620      	mov	r0, r4
 800b3d6:	4629      	mov	r1, r5
 800b3d8:	f7f4 ff06 	bl	80001e8 <__aeabi_dsub>
 800b3dc:	4642      	mov	r2, r8
 800b3de:	464b      	mov	r3, r9
 800b3e0:	f7f4 ff02 	bl	80001e8 <__aeabi_dsub>
 800b3e4:	4602      	mov	r2, r0
 800b3e6:	460b      	mov	r3, r1
 800b3e8:	2000      	movs	r0, #0
 800b3ea:	4939      	ldr	r1, [pc, #228]	; (800b4d0 <__ieee754_pow+0xa08>)
 800b3ec:	f7f4 fefc 	bl	80001e8 <__aeabi_dsub>
 800b3f0:	eb01 540a 	add.w	r4, r1, sl, lsl #20
 800b3f4:	f5b4 1f80 	cmp.w	r4, #1048576	; 0x100000
 800b3f8:	4602      	mov	r2, r0
 800b3fa:	460b      	mov	r3, r1
 800b3fc:	da2f      	bge.n	800b45e <__ieee754_pow+0x996>
 800b3fe:	4650      	mov	r0, sl
 800b400:	ec43 2b10 	vmov	d0, r2, r3
 800b404:	f000 fb60 	bl	800bac8 <scalbn>
 800b408:	ec51 0b10 	vmov	r0, r1, d0
 800b40c:	e9dd 2302 	ldrd	r2, r3, [sp, #8]
 800b410:	f7ff bbf1 	b.w	800abf6 <__ieee754_pow+0x12e>
 800b414:	4b2f      	ldr	r3, [pc, #188]	; (800b4d4 <__ieee754_pow+0xa0c>)
 800b416:	f021 4600 	bic.w	r6, r1, #2147483648	; 0x80000000
 800b41a:	429e      	cmp	r6, r3
 800b41c:	f77f af0c 	ble.w	800b238 <__ieee754_pow+0x770>
 800b420:	4b2d      	ldr	r3, [pc, #180]	; (800b4d8 <__ieee754_pow+0xa10>)
 800b422:	440b      	add	r3, r1
 800b424:	4303      	orrs	r3, r0
 800b426:	d00b      	beq.n	800b440 <__ieee754_pow+0x978>
 800b428:	a325      	add	r3, pc, #148	; (adr r3, 800b4c0 <__ieee754_pow+0x9f8>)
 800b42a:	e9d3 2300 	ldrd	r2, r3, [r3]
 800b42e:	e9dd 0102 	ldrd	r0, r1, [sp, #8]
 800b432:	f7f5 f891 	bl	8000558 <__aeabi_dmul>
 800b436:	a322      	add	r3, pc, #136	; (adr r3, 800b4c0 <__ieee754_pow+0x9f8>)
 800b438:	e9d3 2300 	ldrd	r2, r3, [r3]
 800b43c:	f7ff bbdb 	b.w	800abf6 <__ieee754_pow+0x12e>
 800b440:	4622      	mov	r2, r4
 800b442:	462b      	mov	r3, r5
 800b444:	f7f4 fed0 	bl	80001e8 <__aeabi_dsub>
 800b448:	4642      	mov	r2, r8
 800b44a:	464b      	mov	r3, r9
 800b44c:	f7f5 fd34 	bl	8000eb8 <__aeabi_dcmpge>
 800b450:	2800      	cmp	r0, #0
 800b452:	f43f aef1 	beq.w	800b238 <__ieee754_pow+0x770>
 800b456:	e7e7      	b.n	800b428 <__ieee754_pow+0x960>
 800b458:	f04f 0a00 	mov.w	sl, #0
 800b45c:	e718      	b.n	800b290 <__ieee754_pow+0x7c8>
 800b45e:	4621      	mov	r1, r4
 800b460:	e7d4      	b.n	800b40c <__ieee754_pow+0x944>
 800b462:	2000      	movs	r0, #0
 800b464:	491a      	ldr	r1, [pc, #104]	; (800b4d0 <__ieee754_pow+0xa08>)
 800b466:	f7ff bb8f 	b.w	800ab88 <__ieee754_pow+0xc0>
 800b46a:	e9dd 0100 	ldrd	r0, r1, [sp]
 800b46e:	f7ff bb8b 	b.w	800ab88 <__ieee754_pow+0xc0>
 800b472:	4630      	mov	r0, r6
 800b474:	4639      	mov	r1, r7
 800b476:	f7ff bb87 	b.w	800ab88 <__ieee754_pow+0xc0>
 800b47a:	4693      	mov	fp, r2
 800b47c:	f7ff bb98 	b.w	800abb0 <__ieee754_pow+0xe8>
 800b480:	00000000 	.word	0x00000000
 800b484:	3fe62e43 	.word	0x3fe62e43
 800b488:	fefa39ef 	.word	0xfefa39ef
 800b48c:	3fe62e42 	.word	0x3fe62e42
 800b490:	0ca86c39 	.word	0x0ca86c39
 800b494:	be205c61 	.word	0xbe205c61
 800b498:	72bea4d0 	.word	0x72bea4d0
 800b49c:	3e663769 	.word	0x3e663769
 800b4a0:	c5d26bf1 	.word	0xc5d26bf1
 800b4a4:	3ebbbd41 	.word	0x3ebbbd41
 800b4a8:	af25de2c 	.word	0xaf25de2c
 800b4ac:	3f11566a 	.word	0x3f11566a
 800b4b0:	16bebd93 	.word	0x16bebd93
 800b4b4:	3f66c16c 	.word	0x3f66c16c
 800b4b8:	5555553e 	.word	0x5555553e
 800b4bc:	3fc55555 	.word	0x3fc55555
 800b4c0:	c2f8f359 	.word	0xc2f8f359
 800b4c4:	01a56e1f 	.word	0x01a56e1f
 800b4c8:	3fe00000 	.word	0x3fe00000
 800b4cc:	000fffff 	.word	0x000fffff
 800b4d0:	3ff00000 	.word	0x3ff00000
 800b4d4:	4090cbff 	.word	0x4090cbff
 800b4d8:	3f6f3400 	.word	0x3f6f3400
 800b4dc:	652b82fe 	.word	0x652b82fe
 800b4e0:	3c971547 	.word	0x3c971547

0800b4e4 <__ieee754_sqrt>:
 800b4e4:	e92d 41f0 	stmdb	sp!, {r4, r5, r6, r7, r8, lr}
 800b4e8:	4955      	ldr	r1, [pc, #340]	; (800b640 <__ieee754_sqrt+0x15c>)
 800b4ea:	ec55 4b10 	vmov	r4, r5, d0
 800b4ee:	43a9      	bics	r1, r5
 800b4f0:	462b      	mov	r3, r5
 800b4f2:	462a      	mov	r2, r5
 800b4f4:	d112      	bne.n	800b51c <__ieee754_sqrt+0x38>
 800b4f6:	ee10 2a10 	vmov	r2, s0
 800b4fa:	ee10 0a10 	vmov	r0, s0
 800b4fe:	4629      	mov	r1, r5
 800b500:	f7f5 f82a 	bl	8000558 <__aeabi_dmul>
 800b504:	4602      	mov	r2, r0
 800b506:	460b      	mov	r3, r1
 800b508:	4620      	mov	r0, r4
 800b50a:	4629      	mov	r1, r5
 800b50c:	f7f4 fe6e 	bl	80001ec <__adddf3>
 800b510:	4604      	mov	r4, r0
 800b512:	460d      	mov	r5, r1
 800b514:	ec45 4b10 	vmov	d0, r4, r5
 800b518:	e8bd 81f0 	ldmia.w	sp!, {r4, r5, r6, r7, r8, pc}
 800b51c:	2d00      	cmp	r5, #0
 800b51e:	ee10 0a10 	vmov	r0, s0
 800b522:	4621      	mov	r1, r4
 800b524:	dc0f      	bgt.n	800b546 <__ieee754_sqrt+0x62>
 800b526:	f025 4600 	bic.w	r6, r5, #2147483648	; 0x80000000
 800b52a:	4330      	orrs	r0, r6
 800b52c:	d0f2      	beq.n	800b514 <__ieee754_sqrt+0x30>
 800b52e:	b155      	cbz	r5, 800b546 <__ieee754_sqrt+0x62>
 800b530:	ee10 2a10 	vmov	r2, s0
 800b534:	4620      	mov	r0, r4
 800b536:	4629      	mov	r1, r5
 800b538:	f7f4 fe56 	bl	80001e8 <__aeabi_dsub>
 800b53c:	4602      	mov	r2, r0
 800b53e:	460b      	mov	r3, r1
 800b540:	f7f5 f934 	bl	80007ac <__aeabi_ddiv>
 800b544:	e7e4      	b.n	800b510 <__ieee754_sqrt+0x2c>
 800b546:	151b      	asrs	r3, r3, #20
 800b548:	d073      	beq.n	800b632 <__ieee754_sqrt+0x14e>
 800b54a:	f2a3 33ff 	subw	r3, r3, #1023	; 0x3ff
 800b54e:	07dd      	lsls	r5, r3, #31
 800b550:	f3c2 0213 	ubfx	r2, r2, #0, #20
 800b554:	bf48      	it	mi
 800b556:	0fc8      	lsrmi	r0, r1, #31
 800b558:	f442 1280 	orr.w	r2, r2, #1048576	; 0x100000
 800b55c:	bf44      	itt	mi
 800b55e:	0049      	lslmi	r1, r1, #1
 800b560:	eb00 0242 	addmi.w	r2, r0, r2, lsl #1
 800b564:	2500      	movs	r5, #0
 800b566:	1058      	asrs	r0, r3, #1
 800b568:	0fcb      	lsrs	r3, r1, #31
 800b56a:	eb03 0242 	add.w	r2, r3, r2, lsl #1
 800b56e:	0049      	lsls	r1, r1, #1
 800b570:	2316      	movs	r3, #22
 800b572:	462c      	mov	r4, r5
 800b574:	f44f 1600 	mov.w	r6, #2097152	; 0x200000
 800b578:	19a7      	adds	r7, r4, r6
 800b57a:	4297      	cmp	r7, r2
 800b57c:	bfde      	ittt	le
 800b57e:	19bc      	addle	r4, r7, r6
 800b580:	1bd2      	suble	r2, r2, r7
 800b582:	19ad      	addle	r5, r5, r6
 800b584:	0fcf      	lsrs	r7, r1, #31
 800b586:	3b01      	subs	r3, #1
 800b588:	eb07 0242 	add.w	r2, r7, r2, lsl #1
 800b58c:	ea4f 0141 	mov.w	r1, r1, lsl #1
 800b590:	ea4f 0656 	mov.w	r6, r6, lsr #1
 800b594:	d1f0      	bne.n	800b578 <__ieee754_sqrt+0x94>
 800b596:	f04f 0c20 	mov.w	ip, #32
 800b59a:	469e      	mov	lr, r3
 800b59c:	f04f 4600 	mov.w	r6, #2147483648	; 0x80000000
 800b5a0:	42a2      	cmp	r2, r4
 800b5a2:	eb06 070e 	add.w	r7, r6, lr
 800b5a6:	dc02      	bgt.n	800b5ae <__ieee754_sqrt+0xca>
 800b5a8:	d112      	bne.n	800b5d0 <__ieee754_sqrt+0xec>
 800b5aa:	428f      	cmp	r7, r1
 800b5ac:	d810      	bhi.n	800b5d0 <__ieee754_sqrt+0xec>
 800b5ae:	2f00      	cmp	r7, #0
 800b5b0:	eb07 0e06 	add.w	lr, r7, r6
 800b5b4:	da42      	bge.n	800b63c <__ieee754_sqrt+0x158>
 800b5b6:	f1be 0f00 	cmp.w	lr, #0
 800b5ba:	db3f      	blt.n	800b63c <__ieee754_sqrt+0x158>
 800b5bc:	f104 0801 	add.w	r8, r4, #1
 800b5c0:	1b12      	subs	r2, r2, r4
 800b5c2:	428f      	cmp	r7, r1
 800b5c4:	bf88      	it	hi
 800b5c6:	f102 32ff 	addhi.w	r2, r2, #4294967295	; 0xffffffff
 800b5ca:	1bc9      	subs	r1, r1, r7
 800b5cc:	4433      	add	r3, r6
 800b5ce:	4644      	mov	r4, r8
 800b5d0:	0052      	lsls	r2, r2, #1
 800b5d2:	f1bc 0c01 	subs.w	ip, ip, #1
 800b5d6:	eb02 72d1 	add.w	r2, r2, r1, lsr #31
 800b5da:	ea4f 0656 	mov.w	r6, r6, lsr #1
 800b5de:	ea4f 0141 	mov.w	r1, r1, lsl #1
 800b5e2:	d1dd      	bne.n	800b5a0 <__ieee754_sqrt+0xbc>
 800b5e4:	430a      	orrs	r2, r1
 800b5e6:	d006      	beq.n	800b5f6 <__ieee754_sqrt+0x112>
 800b5e8:	1c5c      	adds	r4, r3, #1
 800b5ea:	bf13      	iteet	ne
 800b5ec:	3301      	addne	r3, #1
 800b5ee:	3501      	addeq	r5, #1
 800b5f0:	4663      	moveq	r3, ip
 800b5f2:	f023 0301 	bicne.w	r3, r3, #1
 800b5f6:	106a      	asrs	r2, r5, #1
 800b5f8:	085b      	lsrs	r3, r3, #1
 800b5fa:	07e9      	lsls	r1, r5, #31
 800b5fc:	f102 527f 	add.w	r2, r2, #1069547520	; 0x3fc00000
 800b600:	f502 1200 	add.w	r2, r2, #2097152	; 0x200000
 800b604:	bf48      	it	mi
 800b606:	f043 4300 	orrmi.w	r3, r3, #2147483648	; 0x80000000
 800b60a:	eb02 5500 	add.w	r5, r2, r0, lsl #20
 800b60e:	461c      	mov	r4, r3
 800b610:	e780      	b.n	800b514 <__ieee754_sqrt+0x30>
 800b612:	0aca      	lsrs	r2, r1, #11
 800b614:	3815      	subs	r0, #21
 800b616:	0549      	lsls	r1, r1, #21
 800b618:	2a00      	cmp	r2, #0
 800b61a:	d0fa      	beq.n	800b612 <__ieee754_sqrt+0x12e>
 800b61c:	02d6      	lsls	r6, r2, #11
 800b61e:	d50a      	bpl.n	800b636 <__ieee754_sqrt+0x152>
 800b620:	f1c3 0420 	rsb	r4, r3, #32
 800b624:	fa21 f404 	lsr.w	r4, r1, r4
 800b628:	1e5d      	subs	r5, r3, #1
 800b62a:	4099      	lsls	r1, r3
 800b62c:	4322      	orrs	r2, r4
 800b62e:	1b43      	subs	r3, r0, r5
 800b630:	e78b      	b.n	800b54a <__ieee754_sqrt+0x66>
 800b632:	4618      	mov	r0, r3
 800b634:	e7f0      	b.n	800b618 <__ieee754_sqrt+0x134>
 800b636:	0052      	lsls	r2, r2, #1
 800b638:	3301      	adds	r3, #1
 800b63a:	e7ef      	b.n	800b61c <__ieee754_sqrt+0x138>
 800b63c:	46a0      	mov	r8, r4
 800b63e:	e7bf      	b.n	800b5c0 <__ieee754_sqrt+0xdc>
 800b640:	7ff00000 	.word	0x7ff00000
 800b644:	00000000 	.word	0x00000000

0800b648 <atan>:
 800b648:	e92d 4ff8 	stmdb	sp!, {r3, r4, r5, r6, r7, r8, r9, sl, fp, lr}
 800b64c:	ec55 4b10 	vmov	r4, r5, d0
 800b650:	4bc3      	ldr	r3, [pc, #780]	; (800b960 <atan+0x318>)
 800b652:	f025 4600 	bic.w	r6, r5, #2147483648	; 0x80000000
 800b656:	429e      	cmp	r6, r3
 800b658:	46ab      	mov	fp, r5
 800b65a:	dd18      	ble.n	800b68e <atan+0x46>
 800b65c:	4bc1      	ldr	r3, [pc, #772]	; (800b964 <atan+0x31c>)
 800b65e:	429e      	cmp	r6, r3
 800b660:	dc01      	bgt.n	800b666 <atan+0x1e>
 800b662:	d109      	bne.n	800b678 <atan+0x30>
 800b664:	b144      	cbz	r4, 800b678 <atan+0x30>
 800b666:	4622      	mov	r2, r4
 800b668:	462b      	mov	r3, r5
 800b66a:	4620      	mov	r0, r4
 800b66c:	4629      	mov	r1, r5
 800b66e:	f7f4 fdbd 	bl	80001ec <__adddf3>
 800b672:	4604      	mov	r4, r0
 800b674:	460d      	mov	r5, r1
 800b676:	e006      	b.n	800b686 <atan+0x3e>
 800b678:	f1bb 0f00 	cmp.w	fp, #0
 800b67c:	f340 8131 	ble.w	800b8e2 <atan+0x29a>
 800b680:	a59b      	add	r5, pc, #620	; (adr r5, 800b8f0 <atan+0x2a8>)
 800b682:	e9d5 4500 	ldrd	r4, r5, [r5]
 800b686:	ec45 4b10 	vmov	d0, r4, r5
 800b68a:	e8bd 8ff8 	ldmia.w	sp!, {r3, r4, r5, r6, r7, r8, r9, sl, fp, pc}
 800b68e:	4bb6      	ldr	r3, [pc, #728]	; (800b968 <atan+0x320>)
 800b690:	429e      	cmp	r6, r3
 800b692:	dc14      	bgt.n	800b6be <atan+0x76>
 800b694:	f1a3 73de 	sub.w	r3, r3, #29097984	; 0x1bc0000
 800b698:	429e      	cmp	r6, r3
 800b69a:	dc0d      	bgt.n	800b6b8 <atan+0x70>
 800b69c:	a396      	add	r3, pc, #600	; (adr r3, 800b8f8 <atan+0x2b0>)
 800b69e:	e9d3 2300 	ldrd	r2, r3, [r3]
 800b6a2:	ee10 0a10 	vmov	r0, s0
 800b6a6:	4629      	mov	r1, r5
 800b6a8:	f7f4 fda0 	bl	80001ec <__adddf3>
 800b6ac:	2200      	movs	r2, #0
 800b6ae:	4baf      	ldr	r3, [pc, #700]	; (800b96c <atan+0x324>)
 800b6b0:	f7f5 fc0c 	bl	8000ecc <__aeabi_dcmpgt>
 800b6b4:	2800      	cmp	r0, #0
 800b6b6:	d1e6      	bne.n	800b686 <atan+0x3e>
 800b6b8:	f04f 3aff 	mov.w	sl, #4294967295	; 0xffffffff
 800b6bc:	e02b      	b.n	800b716 <atan+0xce>
 800b6be:	f000 f963 	bl	800b988 <fabs>
 800b6c2:	4bab      	ldr	r3, [pc, #684]	; (800b970 <atan+0x328>)
 800b6c4:	429e      	cmp	r6, r3
 800b6c6:	ec55 4b10 	vmov	r4, r5, d0
 800b6ca:	f300 80bf 	bgt.w	800b84c <atan+0x204>
 800b6ce:	f5a3 2350 	sub.w	r3, r3, #851968	; 0xd0000
 800b6d2:	429e      	cmp	r6, r3
 800b6d4:	f300 80a0 	bgt.w	800b818 <atan+0x1d0>
 800b6d8:	ee10 2a10 	vmov	r2, s0
 800b6dc:	ee10 0a10 	vmov	r0, s0
 800b6e0:	462b      	mov	r3, r5
 800b6e2:	4629      	mov	r1, r5
 800b6e4:	f7f4 fd82 	bl	80001ec <__adddf3>
 800b6e8:	2200      	movs	r2, #0
 800b6ea:	4ba0      	ldr	r3, [pc, #640]	; (800b96c <atan+0x324>)
 800b6ec:	f7f4 fd7c 	bl	80001e8 <__aeabi_dsub>
 800b6f0:	2200      	movs	r2, #0
 800b6f2:	4606      	mov	r6, r0
 800b6f4:	460f      	mov	r7, r1
 800b6f6:	f04f 4380 	mov.w	r3, #1073741824	; 0x40000000
 800b6fa:	4620      	mov	r0, r4
 800b6fc:	4629      	mov	r1, r5
 800b6fe:	f7f4 fd75 	bl	80001ec <__adddf3>
 800b702:	4602      	mov	r2, r0
 800b704:	460b      	mov	r3, r1
 800b706:	4630      	mov	r0, r6
 800b708:	4639      	mov	r1, r7
 800b70a:	f7f5 f84f 	bl	80007ac <__aeabi_ddiv>
 800b70e:	f04f 0a00 	mov.w	sl, #0
 800b712:	4604      	mov	r4, r0
 800b714:	460d      	mov	r5, r1
 800b716:	4622      	mov	r2, r4
 800b718:	462b      	mov	r3, r5
 800b71a:	4620      	mov	r0, r4
 800b71c:	4629      	mov	r1, r5
 800b71e:	f7f4 ff1b 	bl	8000558 <__aeabi_dmul>
 800b722:	4602      	mov	r2, r0
 800b724:	460b      	mov	r3, r1
 800b726:	4680      	mov	r8, r0
 800b728:	4689      	mov	r9, r1
 800b72a:	f7f4 ff15 	bl	8000558 <__aeabi_dmul>
 800b72e:	a374      	add	r3, pc, #464	; (adr r3, 800b900 <atan+0x2b8>)
 800b730:	e9d3 2300 	ldrd	r2, r3, [r3]
 800b734:	4606      	mov	r6, r0
 800b736:	460f      	mov	r7, r1
 800b738:	f7f4 ff0e 	bl	8000558 <__aeabi_dmul>
 800b73c:	a372      	add	r3, pc, #456	; (adr r3, 800b908 <atan+0x2c0>)
 800b73e:	e9d3 2300 	ldrd	r2, r3, [r3]
 800b742:	f7f4 fd53 	bl	80001ec <__adddf3>
 800b746:	4632      	mov	r2, r6
 800b748:	463b      	mov	r3, r7
 800b74a:	f7f4 ff05 	bl	8000558 <__aeabi_dmul>
 800b74e:	a370      	add	r3, pc, #448	; (adr r3, 800b910 <atan+0x2c8>)
 800b750:	e9d3 2300 	ldrd	r2, r3, [r3]
 800b754:	f7f4 fd4a 	bl	80001ec <__adddf3>
 800b758:	4632      	mov	r2, r6
 800b75a:	463b      	mov	r3, r7
 800b75c:	f7f4 fefc 	bl	8000558 <__aeabi_dmul>
 800b760:	a36d      	add	r3, pc, #436	; (adr r3, 800b918 <atan+0x2d0>)
 800b762:	e9d3 2300 	ldrd	r2, r3, [r3]
 800b766:	f7f4 fd41 	bl	80001ec <__adddf3>
 800b76a:	4632      	mov	r2, r6
 800b76c:	463b      	mov	r3, r7
 800b76e:	f7f4 fef3 	bl	8000558 <__aeabi_dmul>
 800b772:	a36b      	add	r3, pc, #428	; (adr r3, 800b920 <atan+0x2d8>)
 800b774:	e9d3 2300 	ldrd	r2, r3, [r3]
 800b778:	f7f4 fd38 	bl	80001ec <__adddf3>
 800b77c:	4632      	mov	r2, r6
 800b77e:	463b      	mov	r3, r7
 800b780:	f7f4 feea 	bl	8000558 <__aeabi_dmul>
 800b784:	a368      	add	r3, pc, #416	; (adr r3, 800b928 <atan+0x2e0>)
 800b786:	e9d3 2300 	ldrd	r2, r3, [r3]
 800b78a:	f7f4 fd2f 	bl	80001ec <__adddf3>
 800b78e:	4642      	mov	r2, r8
 800b790:	464b      	mov	r3, r9
 800b792:	f7f4 fee1 	bl	8000558 <__aeabi_dmul>
 800b796:	a366      	add	r3, pc, #408	; (adr r3, 800b930 <atan+0x2e8>)
 800b798:	e9d3 2300 	ldrd	r2, r3, [r3]
 800b79c:	4680      	mov	r8, r0
 800b79e:	4689      	mov	r9, r1
 800b7a0:	4630      	mov	r0, r6
 800b7a2:	4639      	mov	r1, r7
 800b7a4:	f7f4 fed8 	bl	8000558 <__aeabi_dmul>
 800b7a8:	a363      	add	r3, pc, #396	; (adr r3, 800b938 <atan+0x2f0>)
 800b7aa:	e9d3 2300 	ldrd	r2, r3, [r3]
 800b7ae:	f7f4 fd1b 	bl	80001e8 <__aeabi_dsub>
 800b7b2:	4632      	mov	r2, r6
 800b7b4:	463b      	mov	r3, r7
 800b7b6:	f7f4 fecf 	bl	8000558 <__aeabi_dmul>
 800b7ba:	a361      	add	r3, pc, #388	; (adr r3, 800b940 <atan+0x2f8>)
 800b7bc:	e9d3 2300 	ldrd	r2, r3, [r3]
 800b7c0:	f7f4 fd12 	bl	80001e8 <__aeabi_dsub>
 800b7c4:	4632      	mov	r2, r6
 800b7c6:	463b      	mov	r3, r7
 800b7c8:	f7f4 fec6 	bl	8000558 <__aeabi_dmul>
 800b7cc:	a35e      	add	r3, pc, #376	; (adr r3, 800b948 <atan+0x300>)
 800b7ce:	e9d3 2300 	ldrd	r2, r3, [r3]
 800b7d2:	f7f4 fd09 	bl	80001e8 <__aeabi_dsub>
 800b7d6:	4632      	mov	r2, r6
 800b7d8:	463b      	mov	r3, r7
 800b7da:	f7f4 febd 	bl	8000558 <__aeabi_dmul>
 800b7de:	a35c      	add	r3, pc, #368	; (adr r3, 800b950 <atan+0x308>)
 800b7e0:	e9d3 2300 	ldrd	r2, r3, [r3]
 800b7e4:	f7f4 fd00 	bl	80001e8 <__aeabi_dsub>
 800b7e8:	4632      	mov	r2, r6
 800b7ea:	463b      	mov	r3, r7
 800b7ec:	f7f4 feb4 	bl	8000558 <__aeabi_dmul>
 800b7f0:	4602      	mov	r2, r0
 800b7f2:	460b      	mov	r3, r1
 800b7f4:	4640      	mov	r0, r8
 800b7f6:	4649      	mov	r1, r9
 800b7f8:	f7f4 fcf8 	bl	80001ec <__adddf3>
 800b7fc:	4622      	mov	r2, r4
 800b7fe:	462b      	mov	r3, r5
 800b800:	f7f4 feaa 	bl	8000558 <__aeabi_dmul>
 800b804:	f1ba 3fff 	cmp.w	sl, #4294967295	; 0xffffffff
 800b808:	4602      	mov	r2, r0
 800b80a:	460b      	mov	r3, r1
 800b80c:	d14b      	bne.n	800b8a6 <atan+0x25e>
 800b80e:	4620      	mov	r0, r4
 800b810:	4629      	mov	r1, r5
 800b812:	f7f4 fce9 	bl	80001e8 <__aeabi_dsub>
 800b816:	e72c      	b.n	800b672 <atan+0x2a>
 800b818:	ee10 0a10 	vmov	r0, s0
 800b81c:	2200      	movs	r2, #0
 800b81e:	4b53      	ldr	r3, [pc, #332]	; (800b96c <atan+0x324>)
 800b820:	4629      	mov	r1, r5
 800b822:	f7f4 fce1 	bl	80001e8 <__aeabi_dsub>
 800b826:	2200      	movs	r2, #0
 800b828:	4606      	mov	r6, r0
 800b82a:	460f      	mov	r7, r1
 800b82c:	4b4f      	ldr	r3, [pc, #316]	; (800b96c <atan+0x324>)
 800b82e:	4620      	mov	r0, r4
 800b830:	4629      	mov	r1, r5
 800b832:	f7f4 fcdb 	bl	80001ec <__adddf3>
 800b836:	4602      	mov	r2, r0
 800b838:	460b      	mov	r3, r1
 800b83a:	4630      	mov	r0, r6
 800b83c:	4639      	mov	r1, r7
 800b83e:	f7f4 ffb5 	bl	80007ac <__aeabi_ddiv>
 800b842:	f04f 0a01 	mov.w	sl, #1
 800b846:	4604      	mov	r4, r0
 800b848:	460d      	mov	r5, r1
 800b84a:	e764      	b.n	800b716 <atan+0xce>
 800b84c:	4b49      	ldr	r3, [pc, #292]	; (800b974 <atan+0x32c>)
 800b84e:	429e      	cmp	r6, r3
 800b850:	dc1d      	bgt.n	800b88e <atan+0x246>
 800b852:	ee10 0a10 	vmov	r0, s0
 800b856:	2200      	movs	r2, #0
 800b858:	4b47      	ldr	r3, [pc, #284]	; (800b978 <atan+0x330>)
 800b85a:	4629      	mov	r1, r5
 800b85c:	f7f4 fcc4 	bl	80001e8 <__aeabi_dsub>
 800b860:	2200      	movs	r2, #0
 800b862:	4606      	mov	r6, r0
 800b864:	460f      	mov	r7, r1
 800b866:	4b44      	ldr	r3, [pc, #272]	; (800b978 <atan+0x330>)
 800b868:	4620      	mov	r0, r4
 800b86a:	4629      	mov	r1, r5
 800b86c:	f7f4 fe74 	bl	8000558 <__aeabi_dmul>
 800b870:	2200      	movs	r2, #0
 800b872:	4b3e      	ldr	r3, [pc, #248]	; (800b96c <atan+0x324>)
 800b874:	f7f4 fcba 	bl	80001ec <__adddf3>
 800b878:	4602      	mov	r2, r0
 800b87a:	460b      	mov	r3, r1
 800b87c:	4630      	mov	r0, r6
 800b87e:	4639      	mov	r1, r7
 800b880:	f7f4 ff94 	bl	80007ac <__aeabi_ddiv>
 800b884:	f04f 0a02 	mov.w	sl, #2
 800b888:	4604      	mov	r4, r0
 800b88a:	460d      	mov	r5, r1
 800b88c:	e743      	b.n	800b716 <atan+0xce>
 800b88e:	462b      	mov	r3, r5
 800b890:	ee10 2a10 	vmov	r2, s0
 800b894:	2000      	movs	r0, #0
 800b896:	4939      	ldr	r1, [pc, #228]	; (800b97c <atan+0x334>)
 800b898:	f7f4 ff88 	bl	80007ac <__aeabi_ddiv>
 800b89c:	f04f 0a03 	mov.w	sl, #3
 800b8a0:	4604      	mov	r4, r0
 800b8a2:	460d      	mov	r5, r1
 800b8a4:	e737      	b.n	800b716 <atan+0xce>
 800b8a6:	4b36      	ldr	r3, [pc, #216]	; (800b980 <atan+0x338>)
 800b8a8:	4e36      	ldr	r6, [pc, #216]	; (800b984 <atan+0x33c>)
 800b8aa:	ea4f 0aca 	mov.w	sl, sl, lsl #3
 800b8ae:	4456      	add	r6, sl
 800b8b0:	449a      	add	sl, r3
 800b8b2:	e9da 2300 	ldrd	r2, r3, [sl]
 800b8b6:	f7f4 fc97 	bl	80001e8 <__aeabi_dsub>
 800b8ba:	4622      	mov	r2, r4
 800b8bc:	462b      	mov	r3, r5
 800b8be:	f7f4 fc93 	bl	80001e8 <__aeabi_dsub>
 800b8c2:	4602      	mov	r2, r0
 800b8c4:	460b      	mov	r3, r1
 800b8c6:	e9d6 0100 	ldrd	r0, r1, [r6]
 800b8ca:	f7f4 fc8d 	bl	80001e8 <__aeabi_dsub>
 800b8ce:	f1bb 0f00 	cmp.w	fp, #0
 800b8d2:	4604      	mov	r4, r0
 800b8d4:	460d      	mov	r5, r1
 800b8d6:	f6bf aed6 	bge.w	800b686 <atan+0x3e>
 800b8da:	f101 4300 	add.w	r3, r1, #2147483648	; 0x80000000
 800b8de:	461d      	mov	r5, r3
 800b8e0:	e6d1      	b.n	800b686 <atan+0x3e>
 800b8e2:	a51d      	add	r5, pc, #116	; (adr r5, 800b958 <atan+0x310>)
 800b8e4:	e9d5 4500 	ldrd	r4, r5, [r5]
 800b8e8:	e6cd      	b.n	800b686 <atan+0x3e>
 800b8ea:	bf00      	nop
 800b8ec:	f3af 8000 	nop.w
 800b8f0:	54442d18 	.word	0x54442d18
 800b8f4:	3ff921fb 	.word	0x3ff921fb
 800b8f8:	8800759c 	.word	0x8800759c
 800b8fc:	7e37e43c 	.word	0x7e37e43c
 800b900:	e322da11 	.word	0xe322da11
 800b904:	3f90ad3a 	.word	0x3f90ad3a
 800b908:	24760deb 	.word	0x24760deb
 800b90c:	3fa97b4b 	.word	0x3fa97b4b
 800b910:	a0d03d51 	.word	0xa0d03d51
 800b914:	3fb10d66 	.word	0x3fb10d66
 800b918:	c54c206e 	.word	0xc54c206e
 800b91c:	3fb745cd 	.word	0x3fb745cd
 800b920:	920083ff 	.word	0x920083ff
 800b924:	3fc24924 	.word	0x3fc24924
 800b928:	5555550d 	.word	0x5555550d
 800b92c:	3fd55555 	.word	0x3fd55555
 800b930:	2c6a6c2f 	.word	0x2c6a6c2f
 800b934:	bfa2b444 	.word	0xbfa2b444
 800b938:	52defd9a 	.word	0x52defd9a
 800b93c:	3fadde2d 	.word	0x3fadde2d
 800b940:	af749a6d 	.word	0xaf749a6d
 800b944:	3fb3b0f2 	.word	0x3fb3b0f2
 800b948:	fe231671 	.word	0xfe231671
 800b94c:	3fbc71c6 	.word	0x3fbc71c6
 800b950:	9998ebc4 	.word	0x9998ebc4
 800b954:	3fc99999 	.word	0x3fc99999
 800b958:	54442d18 	.word	0x54442d18
 800b95c:	bff921fb 	.word	0xbff921fb
 800b960:	440fffff 	.word	0x440fffff
 800b964:	7ff00000 	.word	0x7ff00000
 800b968:	3fdbffff 	.word	0x3fdbffff
 800b96c:	3ff00000 	.word	0x3ff00000
 800b970:	3ff2ffff 	.word	0x3ff2ffff
 800b974:	40037fff 	.word	0x40037fff
 800b978:	3ff80000 	.word	0x3ff80000
 800b97c:	bff00000 	.word	0xbff00000
 800b980:	0800c620 	.word	0x0800c620
 800b984:	0800c600 	.word	0x0800c600

0800b988 <fabs>:
 800b988:	ec51 0b10 	vmov	r0, r1, d0
 800b98c:	ee10 2a10 	vmov	r2, s0
 800b990:	f021 4300 	bic.w	r3, r1, #2147483648	; 0x80000000
 800b994:	ec43 2b10 	vmov	d0, r2, r3
 800b998:	4770      	bx	lr

0800b99a <finite>:
 800b99a:	ee10 3a90 	vmov	r3, s1
 800b99e:	f043 4000 	orr.w	r0, r3, #2147483648	; 0x80000000
 800b9a2:	f500 1080 	add.w	r0, r0, #1048576	; 0x100000
 800b9a6:	0fc0      	lsrs	r0, r0, #31
 800b9a8:	4770      	bx	lr

0800b9aa <matherr>:
 800b9aa:	2000      	movs	r0, #0
 800b9ac:	4770      	bx	lr
	...

0800b9b0 <nan>:
 800b9b0:	ed9f 0b01 	vldr	d0, [pc, #4]	; 800b9b8 <nan+0x8>
 800b9b4:	4770      	bx	lr
 800b9b6:	bf00      	nop
 800b9b8:	00000000 	.word	0x00000000
 800b9bc:	7ff80000 	.word	0x7ff80000

0800b9c0 <rint>:
 800b9c0:	b5f7      	push	{r0, r1, r2, r4, r5, r6, r7, lr}
 800b9c2:	ec51 0b10 	vmov	r0, r1, d0
 800b9c6:	f3c1 520a 	ubfx	r2, r1, #20, #11
 800b9ca:	f2a2 36ff 	subw	r6, r2, #1023	; 0x3ff
 800b9ce:	2e13      	cmp	r6, #19
 800b9d0:	460b      	mov	r3, r1
 800b9d2:	ee10 4a10 	vmov	r4, s0
 800b9d6:	ea4f 75d1 	mov.w	r5, r1, lsr #31
 800b9da:	dc56      	bgt.n	800ba8a <rint+0xca>
 800b9dc:	2e00      	cmp	r6, #0
 800b9de:	da2b      	bge.n	800ba38 <rint+0x78>
 800b9e0:	f021 4200 	bic.w	r2, r1, #2147483648	; 0x80000000
 800b9e4:	4302      	orrs	r2, r0
 800b9e6:	d023      	beq.n	800ba30 <rint+0x70>
 800b9e8:	f3c1 0213 	ubfx	r2, r1, #0, #20
 800b9ec:	4302      	orrs	r2, r0
 800b9ee:	4254      	negs	r4, r2
 800b9f0:	4314      	orrs	r4, r2
 800b9f2:	0c4b      	lsrs	r3, r1, #17
 800b9f4:	0b24      	lsrs	r4, r4, #12
 800b9f6:	045b      	lsls	r3, r3, #17
 800b9f8:	f404 2400 	and.w	r4, r4, #524288	; 0x80000
 800b9fc:	ea44 0103 	orr.w	r1, r4, r3
 800ba00:	460b      	mov	r3, r1
 800ba02:	492f      	ldr	r1, [pc, #188]	; (800bac0 <rint+0x100>)
 800ba04:	eb01 01c5 	add.w	r1, r1, r5, lsl #3
 800ba08:	e9d1 6700 	ldrd	r6, r7, [r1]
 800ba0c:	4602      	mov	r2, r0
 800ba0e:	4639      	mov	r1, r7
 800ba10:	4630      	mov	r0, r6
 800ba12:	f7f4 fbeb 	bl	80001ec <__adddf3>
 800ba16:	e9cd 0100 	strd	r0, r1, [sp]
 800ba1a:	463b      	mov	r3, r7
 800ba1c:	4632      	mov	r2, r6
 800ba1e:	e9dd 0100 	ldrd	r0, r1, [sp]
 800ba22:	f7f4 fbe1 	bl	80001e8 <__aeabi_dsub>
 800ba26:	f021 4300 	bic.w	r3, r1, #2147483648	; 0x80000000
 800ba2a:	ea43 77c5 	orr.w	r7, r3, r5, lsl #31
 800ba2e:	4639      	mov	r1, r7
 800ba30:	ec41 0b10 	vmov	d0, r0, r1
 800ba34:	b003      	add	sp, #12
 800ba36:	bdf0      	pop	{r4, r5, r6, r7, pc}
 800ba38:	4a22      	ldr	r2, [pc, #136]	; (800bac4 <rint+0x104>)
 800ba3a:	4132      	asrs	r2, r6
 800ba3c:	ea01 0702 	and.w	r7, r1, r2
 800ba40:	4307      	orrs	r7, r0
 800ba42:	d0f5      	beq.n	800ba30 <rint+0x70>
 800ba44:	0852      	lsrs	r2, r2, #1
 800ba46:	4011      	ands	r1, r2
 800ba48:	430c      	orrs	r4, r1
 800ba4a:	d00b      	beq.n	800ba64 <rint+0xa4>
 800ba4c:	ea23 0202 	bic.w	r2, r3, r2
 800ba50:	f44f 2380 	mov.w	r3, #262144	; 0x40000
 800ba54:	2e13      	cmp	r6, #19
 800ba56:	fa43 f306 	asr.w	r3, r3, r6
 800ba5a:	bf0c      	ite	eq
 800ba5c:	f04f 4400 	moveq.w	r4, #2147483648	; 0x80000000
 800ba60:	2400      	movne	r4, #0
 800ba62:	4313      	orrs	r3, r2
 800ba64:	4916      	ldr	r1, [pc, #88]	; (800bac0 <rint+0x100>)
 800ba66:	eb01 05c5 	add.w	r5, r1, r5, lsl #3
 800ba6a:	4622      	mov	r2, r4
 800ba6c:	e9d5 4500 	ldrd	r4, r5, [r5]
 800ba70:	4620      	mov	r0, r4
 800ba72:	4629      	mov	r1, r5
 800ba74:	f7f4 fbba 	bl	80001ec <__adddf3>
 800ba78:	e9cd 0100 	strd	r0, r1, [sp]
 800ba7c:	4622      	mov	r2, r4
 800ba7e:	462b      	mov	r3, r5
 800ba80:	e9dd 0100 	ldrd	r0, r1, [sp]
 800ba84:	f7f4 fbb0 	bl	80001e8 <__aeabi_dsub>
 800ba88:	e7d2      	b.n	800ba30 <rint+0x70>
 800ba8a:	2e33      	cmp	r6, #51	; 0x33
 800ba8c:	dd07      	ble.n	800ba9e <rint+0xde>
 800ba8e:	f5b6 6f80 	cmp.w	r6, #1024	; 0x400
 800ba92:	d1cd      	bne.n	800ba30 <rint+0x70>
 800ba94:	ee10 2a10 	vmov	r2, s0
 800ba98:	f7f4 fba8 	bl	80001ec <__adddf3>
 800ba9c:	e7c8      	b.n	800ba30 <rint+0x70>
 800ba9e:	f2a2 4613 	subw	r6, r2, #1043	; 0x413
 800baa2:	f04f 32ff 	mov.w	r2, #4294967295	; 0xffffffff
 800baa6:	40f2      	lsrs	r2, r6
 800baa8:	4210      	tst	r0, r2
 800baaa:	d0c1      	beq.n	800ba30 <rint+0x70>
 800baac:	0852      	lsrs	r2, r2, #1
 800baae:	4210      	tst	r0, r2
 800bab0:	bf1f      	itttt	ne
 800bab2:	f04f 4480 	movne.w	r4, #1073741824	; 0x40000000
 800bab6:	ea20 0202 	bicne.w	r2, r0, r2
 800baba:	4134      	asrne	r4, r6
 800babc:	4314      	orrne	r4, r2
 800babe:	e7d1      	b.n	800ba64 <rint+0xa4>
 800bac0:	0800c640 	.word	0x0800c640
 800bac4:	000fffff 	.word	0x000fffff

0800bac8 <scalbn>:
 800bac8:	b570      	push	{r4, r5, r6, lr}
 800baca:	ec55 4b10 	vmov	r4, r5, d0
 800bace:	f3c5 520a 	ubfx	r2, r5, #20, #11
 800bad2:	4606      	mov	r6, r0
 800bad4:	462b      	mov	r3, r5
 800bad6:	b9aa      	cbnz	r2, 800bb04 <scalbn+0x3c>
 800bad8:	f025 4300 	bic.w	r3, r5, #2147483648	; 0x80000000
 800badc:	4323      	orrs	r3, r4
 800bade:	d03b      	beq.n	800bb58 <scalbn+0x90>
 800bae0:	4b31      	ldr	r3, [pc, #196]	; (800bba8 <scalbn+0xe0>)
 800bae2:	4629      	mov	r1, r5
 800bae4:	2200      	movs	r2, #0
 800bae6:	ee10 0a10 	vmov	r0, s0
 800baea:	f7f4 fd35 	bl	8000558 <__aeabi_dmul>
 800baee:	4b2f      	ldr	r3, [pc, #188]	; (800bbac <scalbn+0xe4>)
 800baf0:	429e      	cmp	r6, r3
 800baf2:	4604      	mov	r4, r0
 800baf4:	460d      	mov	r5, r1
 800baf6:	da12      	bge.n	800bb1e <scalbn+0x56>
 800baf8:	a327      	add	r3, pc, #156	; (adr r3, 800bb98 <scalbn+0xd0>)
 800bafa:	e9d3 2300 	ldrd	r2, r3, [r3]
 800bafe:	f7f4 fd2b 	bl	8000558 <__aeabi_dmul>
 800bb02:	e009      	b.n	800bb18 <scalbn+0x50>
 800bb04:	f240 71ff 	movw	r1, #2047	; 0x7ff
 800bb08:	428a      	cmp	r2, r1
 800bb0a:	d10c      	bne.n	800bb26 <scalbn+0x5e>
 800bb0c:	ee10 2a10 	vmov	r2, s0
 800bb10:	4620      	mov	r0, r4
 800bb12:	4629      	mov	r1, r5
 800bb14:	f7f4 fb6a 	bl	80001ec <__adddf3>
 800bb18:	4604      	mov	r4, r0
 800bb1a:	460d      	mov	r5, r1
 800bb1c:	e01c      	b.n	800bb58 <scalbn+0x90>
 800bb1e:	f3c1 520a 	ubfx	r2, r1, #20, #11
 800bb22:	460b      	mov	r3, r1
 800bb24:	3a36      	subs	r2, #54	; 0x36
 800bb26:	4432      	add	r2, r6
 800bb28:	f240 71fe 	movw	r1, #2046	; 0x7fe
 800bb2c:	428a      	cmp	r2, r1
 800bb2e:	dd0b      	ble.n	800bb48 <scalbn+0x80>
 800bb30:	ec45 4b11 	vmov	d1, r4, r5
 800bb34:	ed9f 0b1a 	vldr	d0, [pc, #104]	; 800bba0 <scalbn+0xd8>
 800bb38:	f000 f83c 	bl	800bbb4 <copysign>
 800bb3c:	a318      	add	r3, pc, #96	; (adr r3, 800bba0 <scalbn+0xd8>)
 800bb3e:	e9d3 2300 	ldrd	r2, r3, [r3]
 800bb42:	ec51 0b10 	vmov	r0, r1, d0
 800bb46:	e7da      	b.n	800bafe <scalbn+0x36>
 800bb48:	2a00      	cmp	r2, #0
 800bb4a:	dd08      	ble.n	800bb5e <scalbn+0x96>
 800bb4c:	f023 43ff 	bic.w	r3, r3, #2139095040	; 0x7f800000
 800bb50:	f423 03e0 	bic.w	r3, r3, #7340032	; 0x700000
 800bb54:	ea43 5502 	orr.w	r5, r3, r2, lsl #20
 800bb58:	ec45 4b10 	vmov	d0, r4, r5
 800bb5c:	bd70      	pop	{r4, r5, r6, pc}
 800bb5e:	f112 0f35 	cmn.w	r2, #53	; 0x35
 800bb62:	da0d      	bge.n	800bb80 <scalbn+0xb8>
 800bb64:	f24c 3350 	movw	r3, #50000	; 0xc350
 800bb68:	429e      	cmp	r6, r3
 800bb6a:	ec45 4b11 	vmov	d1, r4, r5
 800bb6e:	dce1      	bgt.n	800bb34 <scalbn+0x6c>
 800bb70:	ed9f 0b09 	vldr	d0, [pc, #36]	; 800bb98 <scalbn+0xd0>
 800bb74:	f000 f81e 	bl	800bbb4 <copysign>
 800bb78:	a307      	add	r3, pc, #28	; (adr r3, 800bb98 <scalbn+0xd0>)
 800bb7a:	e9d3 2300 	ldrd	r2, r3, [r3]
 800bb7e:	e7e0      	b.n	800bb42 <scalbn+0x7a>
 800bb80:	f023 43ff 	bic.w	r3, r3, #2139095040	; 0x7f800000
 800bb84:	3236      	adds	r2, #54	; 0x36
 800bb86:	f423 03e0 	bic.w	r3, r3, #7340032	; 0x700000
 800bb8a:	ea43 5502 	orr.w	r5, r3, r2, lsl #20
 800bb8e:	4620      	mov	r0, r4
 800bb90:	4629      	mov	r1, r5
 800bb92:	2200      	movs	r2, #0
 800bb94:	4b06      	ldr	r3, [pc, #24]	; (800bbb0 <scalbn+0xe8>)
 800bb96:	e7b2      	b.n	800bafe <scalbn+0x36>
 800bb98:	c2f8f359 	.word	0xc2f8f359
 800bb9c:	01a56e1f 	.word	0x01a56e1f
 800bba0:	8800759c 	.word	0x8800759c
 800bba4:	7e37e43c 	.word	0x7e37e43c
 800bba8:	43500000 	.word	0x43500000
 800bbac:	ffff3cb0 	.word	0xffff3cb0
 800bbb0:	3c900000 	.word	0x3c900000

0800bbb4 <copysign>:
 800bbb4:	ec51 0b10 	vmov	r0, r1, d0
 800bbb8:	ee11 0a90 	vmov	r0, s3
 800bbbc:	ee10 2a10 	vmov	r2, s0
 800bbc0:	f021 4100 	bic.w	r1, r1, #2147483648	; 0x80000000
 800bbc4:	f000 4000 	and.w	r0, r0, #2147483648	; 0x80000000
 800bbc8:	ea41 0300 	orr.w	r3, r1, r0
 800bbcc:	ec43 2b10 	vmov	d0, r2, r3
 800bbd0:	4770      	bx	lr
	...

0800bbd4 <_init>:
 800bbd4:	b5f8      	push	{r3, r4, r5, r6, r7, lr}
 800bbd6:	bf00      	nop
 800bbd8:	bcf8      	pop	{r3, r4, r5, r6, r7}
 800bbda:	bc08      	pop	{r3}
 800bbdc:	469e      	mov	lr, r3
 800bbde:	4770      	bx	lr

0800bbe0 <_fini>:
 800bbe0:	b5f8      	push	{r3, r4, r5, r6, r7, lr}
 800bbe2:	bf00      	nop
 800bbe4:	bcf8      	pop	{r3, r4, r5, r6, r7}
 800bbe6:	bc08      	pop	{r3}
 800bbe8:	469e      	mov	lr, r3
 800bbea:	4770      	bx	lr
